; Listing generated by Microsoft (R) Optimizing Compiler Version 19.23.28106.4 

include listing.inc

INCLUDELIB MSVCRT
INCLUDELIB OLDNAMES

CONST	SEGMENT
?IDENT_COL3@MAT4@DATA@XGK@@3T__m128@@B DD 000000000r ; 0 ; XGK::DATA::MAT4::IDENT_COL3
	DD	000000000r			; 0
	DD	000000000r			; 0
	DD	03f800000r			; 1
?CONST_MUL@MAT4@DATA@XGK@@3T__m128@@B DD 040000000r ; 2	; XGK::DATA::MAT4::CONST_MUL
	DD	040000000r			; 2
	DD	040000000r			; 2
	DD	000000000r			; 0
?CONST_ONE@MAT4@DATA@XGK@@3T__m128@@B DD 03f800000r ; 1	; XGK::DATA::MAT4::CONST_ONE
	DD	03f800000r			; 1
	DD	03f800000r			; 1
	DD	000000000r			; 0
?IDENT@MAT4@DATA@XGK@@3QBMB DD 03f800000r	; 1	; XGK::DATA::MAT4::IDENT
	DD	000000000r			; 0
	DD	000000000r			; 0
	DD	000000000r			; 0
	DD	000000000r			; 0
	DD	03f800000r			; 1
	DD	000000000r			; 0
	DD	000000000r			; 0
	DD	000000000r			; 0
	DD	000000000r			; 0
	DD	03f800000r			; 1
	DD	000000000r			; 0
CONST	ENDS
PUBLIC	?tan@@YAMM@Z					; tan
PUBLIC	?set128@MAT4@DATA@XGK@@YAXPEAXMMMMMMMMMMMMMMMM@Z ; XGK::DATA::MAT4::set128
PUBLIC	?premul128@MAT4@DATA@XGK@@YAXPEAX0@Z		; XGK::DATA::MAT4::premul128
PUBLIC	?postmul128@MAT4@DATA@XGK@@YAXPEAX0@Z		; XGK::DATA::MAT4::postmul128
PUBLIC	?makeTrans128@MAT4@DATA@XGK@@YAXPEAX0@Z		; XGK::DATA::MAT4::makeTrans128
PUBLIC	?preTrans128@MAT4@DATA@XGK@@YAXPEAX0@Z		; XGK::DATA::MAT4::preTrans128
PUBLIC	?postTrans128@MAT4@DATA@XGK@@YAXPEAX0@Z		; XGK::DATA::MAT4::postTrans128
PUBLIC	?makeTransValue128@MAT4@DATA@XGK@@YAXPEAX0M@Z	; XGK::DATA::MAT4::makeTransValue128
PUBLIC	?preTransValue128@MAT4@DATA@XGK@@YAXPEAX0M@Z	; XGK::DATA::MAT4::preTransValue128
PUBLIC	?postTransValue128@MAT4@DATA@XGK@@YAXPEAX0M@Z	; XGK::DATA::MAT4::postTransValue128
PUBLIC	?makeRotQuat128@MAT4@DATA@XGK@@YAXPEAX0@Z	; XGK::DATA::MAT4::makeRotQuat128
PUBLIC	?preRotQuat128@MAT4@DATA@XGK@@YAXPEAX0@Z	; XGK::DATA::MAT4::preRotQuat128
PUBLIC	?postRotQuat128@MAT4@DATA@XGK@@YAXPEAX0@Z	; XGK::DATA::MAT4::postRotQuat128
PUBLIC	?transp128@MAT4@DATA@XGK@@YAXPEAX@Z		; XGK::DATA::MAT4::transp128
PUBLIC	?invns128@MAT4@DATA@XGK@@YAXPEAX@Z		; XGK::DATA::MAT4::invns128
PUBLIC	?makeProjPersp128@MAT4@DATA@XGK@@YAXPEAXMMMMM@Z	; XGK::DATA::MAT4::makeProjPersp128
PUBLIC	__real@3c0efa35
PUBLIC	__real@3f800000
PUBLIC	__real@bf000000
PUBLIC	__xmm@3f8000003f8000003f8000003f800000
PUBLIC	__xmm@80000000800000008000000080000000
EXTRN	__GSHandlerCheck:PROC
EXTRN	__security_check_cookie:PROC
EXTRN	tanf:PROC
EXTRN	__security_cookie:QWORD
EXTRN	_fltused:DWORD
;	COMDAT pdata
pdata	SEGMENT
$pdata$?set128@MAT4@DATA@XGK@@YAXPEAXMMMMMMMMMMMMMMMM@Z DD imagerel $LN4
	DD	imagerel $LN4+186
	DD	imagerel $unwind$?set128@MAT4@DATA@XGK@@YAXPEAXMMMMMMMMMMMMMMMM@Z
pdata	ENDS
;	COMDAT pdata
pdata	SEGMENT
$pdata$?premul128@MAT4@DATA@XGK@@YAXPEAX0@Z DD imagerel $LN4
	DD	imagerel $LN4+365
	DD	imagerel $unwind$?premul128@MAT4@DATA@XGK@@YAXPEAX0@Z
pdata	ENDS
;	COMDAT pdata
pdata	SEGMENT
$pdata$?postmul128@MAT4@DATA@XGK@@YAXPEAX0@Z DD imagerel $LN4
	DD	imagerel $LN4+346
	DD	imagerel $unwind$?postmul128@MAT4@DATA@XGK@@YAXPEAX0@Z
pdata	ENDS
;	COMDAT pdata
pdata	SEGMENT
$pdata$?preTransValue128@MAT4@DATA@XGK@@YAXPEAX0M@Z DD imagerel $LN4
	DD	imagerel $LN4+461
	DD	imagerel $unwind$?preTransValue128@MAT4@DATA@XGK@@YAXPEAX0M@Z
pdata	ENDS
;	COMDAT pdata
pdata	SEGMENT
$pdata$?postTransValue128@MAT4@DATA@XGK@@YAXPEAX0M@Z DD imagerel $LN4
	DD	imagerel $LN4+386
	DD	imagerel $unwind$?postTransValue128@MAT4@DATA@XGK@@YAXPEAX0M@Z
pdata	ENDS
;	COMDAT pdata
pdata	SEGMENT
$pdata$?preRotQuat128@MAT4@DATA@XGK@@YAXPEAX0@Z DD imagerel $LN4
	DD	imagerel $LN4+374
	DD	imagerel $unwind$?preRotQuat128@MAT4@DATA@XGK@@YAXPEAX0@Z
pdata	ENDS
;	COMDAT pdata
pdata	SEGMENT
$pdata$?postRotQuat128@MAT4@DATA@XGK@@YAXPEAX0@Z DD imagerel $LN4
	DD	imagerel $LN4+256
	DD	imagerel $unwind$?postRotQuat128@MAT4@DATA@XGK@@YAXPEAX0@Z
pdata	ENDS
;	COMDAT pdata
pdata	SEGMENT
$pdata$?invns128@MAT4@DATA@XGK@@YAXPEAX@Z DD imagerel $LN4
	DD	imagerel $LN4+137
	DD	imagerel $unwind$?invns128@MAT4@DATA@XGK@@YAXPEAX@Z
pdata	ENDS
;	COMDAT pdata
pdata	SEGMENT
$pdata$?makeProjPersp128@MAT4@DATA@XGK@@YAXPEAXMMMMM@Z DD imagerel $LN7
	DD	imagerel $LN7+286
	DD	imagerel $unwind$?makeProjPersp128@MAT4@DATA@XGK@@YAXPEAXMMMMM@Z
pdata	ENDS
;	COMDAT __xmm@80000000800000008000000080000000
CONST	SEGMENT
__xmm@80000000800000008000000080000000 DB 00H, 00H, 00H, 080H, 00H, 00H, 00H
	DB	080H, 00H, 00H, 00H, 080H, 00H, 00H, 00H, 080H
CONST	ENDS
;	COMDAT __xmm@3f8000003f8000003f8000003f800000
CONST	SEGMENT
__xmm@3f8000003f8000003f8000003f800000 DB 00H, 00H, 080H, '?', 00H, 00H, 080H
	DB	'?', 00H, 00H, 080H, '?', 00H, 00H, 080H, '?'
CONST	ENDS
;	COMDAT __real@bf000000
CONST	SEGMENT
__real@bf000000 DD 0bf000000r			; -0.5
CONST	ENDS
;	COMDAT __real@3f800000
CONST	SEGMENT
__real@3f800000 DD 03f800000r			; 1
CONST	ENDS
;	COMDAT __real@3c0efa35
CONST	SEGMENT
__real@3c0efa35 DD 03c0efa35r			; 0.00872665
CONST	ENDS
;	COMDAT xdata
xdata	SEGMENT
$unwind$?makeProjPersp128@MAT4@DATA@XGK@@YAXPEAXMMMMM@Z DD 082701H
	DD	028827H
	DD	03781eH
	DD	046816H
	DD	030029206H
xdata	ENDS
;	COMDAT xdata
xdata	SEGMENT
$unwind$?invns128@MAT4@DATA@XGK@@YAXPEAX@Z DD 052601H
	DD	07826H
	DD	01681fH
	DD	04204H
xdata	ENDS
;	COMDAT xdata
xdata	SEGMENT
$unwind$?postRotQuat128@MAT4@DATA@XGK@@YAXPEAX0@Z DD 032001H
	DD	07820H
	DD	02204H
xdata	ENDS
;	COMDAT xdata
xdata	SEGMENT
$unwind$?preRotQuat128@MAT4@DATA@XGK@@YAXPEAX0@Z DD 0b6301H
	DD	0a863H
	DD	01983dH
	DD	028833H
	DD	03782aH
	DD	046823H
	DD	0a207H
xdata	ENDS
;	COMDAT xdata
xdata	SEGMENT
$unwind$?postTransValue128@MAT4@DATA@XGK@@YAXPEAX0M@Z DD 0d6001H
	DD	0b860H
	DD	01a853H
	DD	029849H
	DD	03883bH
	DD	047833H
	DD	056820H
	DD	0c207H
xdata	ENDS
;	COMDAT xdata
xdata	SEGMENT
$unwind$?preTransValue128@MAT4@DATA@XGK@@YAXPEAX0M@Z DD 0e3519H
	DD	05b826H
	DD	06a821H
	DD	07981cH
	DD	088817H
	DD	097812H
	DD	0a680eH
	DD	017010aH
	DD	imagerel __GSHandlerCheck
	DD	040H
xdata	ENDS
;	COMDAT xdata
xdata	SEGMENT
$unwind$?postmul128@MAT4@DATA@XGK@@YAXPEAX0@Z DD 072901H
	DD	08829H
	DD	017820H
	DD	026817H
	DD	06204H
xdata	ENDS
;	COMDAT xdata
xdata	SEGMENT
$unwind$?premul128@MAT4@DATA@XGK@@YAXPEAX0@Z DD 0b6801H
	DD	0a868H
	DD	01985aH
	DD	028849H
	DD	03783eH
	DD	046816H
	DD	0a207H
xdata	ENDS
;	COMDAT xdata
xdata	SEGMENT
$unwind$?set128@MAT4@DATA@XGK@@YAXPEAXMMMMMMMMMMMMMMMM@Z DD 052b01H
	DD	0782bH
	DD	016827H
	DD	04204H
xdata	ENDS
; Function compile flags: /Ogtpy
;	COMDAT ?makeProjPersp128@MAT4@DATA@XGK@@YAXPEAXMMMMM@Z
_TEXT	SEGMENT
dst$ = 96
fov$ = 104
aspect$ = 112
near_$ = 120
far_$ = 128
zoom$ = 136
?makeProjPersp128@MAT4@DATA@XGK@@YAXPEAXMMMMM@Z PROC	; XGK::DATA::MAT4::makeProjPersp128, COMDAT
; File E:\reps\denis-belov\xgk\src\data\mat4\mat4-128.cpp
; Line 505
$LN7:
	push	rbx
	sub	rsp, 80					; 00000050H
; Line 510
	mulss	xmm1, DWORD PTR __real@3c0efa35
	mov	rbx, rcx
	movaps	XMMWORD PTR [rsp+64], xmm6
	movaps	xmm6, xmm2
	movaps	XMMWORD PTR [rsp+48], xmm7
; File C:\Program Files (x86)\Microsoft Visual Studio\2019\Community\VC\Tools\MSVC\14.23.28105\include\cmath
; Line 242
	movaps	xmm0, xmm1
	movaps	XMMWORD PTR [rsp+32], xmm8
; File E:\reps\denis-belov\xgk\src\data\mat4\mat4-128.cpp
; Line 505
	movaps	xmm8, xmm3
; File C:\Program Files (x86)\Microsoft Visual Studio\2019\Community\VC\Tools\MSVC\14.23.28105\include\cmath
; Line 242
	call	tanf
	movaps	xmm7, xmm0
; File E:\reps\denis-belov\xgk\src\data\mat4\mat4-128.cpp
; Line 517
	mov	DWORD PTR [rbx+44], -1082130432		; bf800000H
	mulss	xmm7, xmm8
	movaps	xmm4, xmm8
	xor	eax, eax
	addss	xmm4, xmm8
	mov	QWORD PTR [rbx+12], rax
	mov	QWORD PTR [rbx+48], rax
	divss	xmm7, DWORD PTR zoom$[rsp]
	mov	QWORD PTR [rbx+4], rax
	mov	QWORD PTR [rbx+24], rax
	mov	DWORD PTR [rbx+60], eax
	movaps	xmm0, xmm4
	movaps	xmm1, xmm7
	movaps	xmm5, xmm7
	addss	xmm1, xmm7
	subss	xmm5, xmm1
	mulss	xmm1, xmm6
; Line 525
	movaps	xmm6, XMMWORD PTR [rsp+64]
	movaps	xmm2, xmm1
	mulss	xmm2, DWORD PTR __real@bf000000
	movaps	xmm3, xmm2
	addss	xmm3, xmm1
	movaps	xmm1, xmm3
	addss	xmm3, xmm2
	subss	xmm1, xmm2
	divss	xmm0, xmm1
	divss	xmm3, xmm1
	movss	DWORD PTR [rbx], xmm0
	movaps	xmm0, xmm7
	subss	xmm0, xmm5
	movss	DWORD PTR [rbx+32], xmm3
	movss	xmm3, DWORD PTR far_$[rsp]
	addss	xmm5, xmm7
	movaps	xmm7, XMMWORD PTR [rsp+48]
	movaps	xmm2, xmm3
	subss	xmm2, xmm8
	divss	xmm4, xmm0
	divss	xmm5, xmm0
	movaps	xmm0, xmm8
	movss	DWORD PTR [rbx+20], xmm4
	addss	xmm0, xmm3
	movss	DWORD PTR [rbx+36], xmm5
	addss	xmm3, xmm3
	divss	xmm0, xmm2
	mulss	xmm3, xmm8
	xorps	xmm0, DWORD PTR __xmm@80000000800000008000000080000000
	movaps	xmm8, XMMWORD PTR [rsp+32]
	divss	xmm3, xmm2
	movss	DWORD PTR [rbx+40], xmm0
	xorps	xmm3, DWORD PTR __xmm@80000000800000008000000080000000
	movss	DWORD PTR [rbx+56], xmm3
	add	rsp, 80					; 00000050H
	pop	rbx
	ret	0
?makeProjPersp128@MAT4@DATA@XGK@@YAXPEAXMMMMM@Z ENDP	; XGK::DATA::MAT4::makeProjPersp128
_TEXT	ENDS
; Function compile flags: /Ogtpy
;	COMDAT ?invns128@MAT4@DATA@XGK@@YAXPEAX@Z
_TEXT	SEGMENT
dst$ = 48
?invns128@MAT4@DATA@XGK@@YAXPEAX@Z PROC			; XGK::DATA::MAT4::invns128, COMDAT
; File E:\reps\denis-belov\xgk\src\data\mat4\mat4-128.cpp
; Line 475
$LN4:
	sub	rsp, 40					; 00000028H
; Line 481
	movups	xmm1, XMMWORD PTR [rcx+16]
; Line 482
	movups	xmm2, XMMWORD PTR [rcx+32]
	movaps	xmm5, XMMWORD PTR ?IDENT_COL3@MAT4@DATA@XGK@@3T__m128@@B
	movaps	xmm0, xmm2
	shufps	xmm0, xmm5, 68				; 00000044H
	movaps	XMMWORD PTR [rsp+16], xmm6
	movups	xmm6, XMMWORD PTR [rcx]
	movaps	XMMWORD PTR [rsp], xmm7
	movaps	xmm4, xmm6
	movups	xmm7, XMMWORD PTR [rcx+48]
	shufps	xmm4, xmm1, 68				; 00000044H
; Line 483
	shufps	xmm6, xmm1, 238				; 000000eeH
; Line 490
	movaps	xmm3, xmm4
; Line 491
	shufps	xmm4, xmm0, 221				; 000000ddH
	movaps	xmm1, xmm7
	shufps	xmm3, xmm0, 136				; 00000088H
	movaps	xmm0, xmm7
	shufps	xmm0, xmm7, 0
	shufps	xmm1, xmm7, 85				; 00000055H
	shufps	xmm2, xmm5, 238				; 000000eeH
; Line 492
	shufps	xmm6, xmm2, 136				; 00000088H
	shufps	xmm7, xmm7, 170				; 000000aaH
; Line 493
	mulps	xmm7, xmm6
	mulps	xmm0, xmm3
	mulps	xmm1, xmm4
	movups	XMMWORD PTR [rcx+32], xmm6
; Line 494
	movaps	xmm6, XMMWORD PTR [rsp+16]
	subps	xmm5, xmm0
	movups	XMMWORD PTR [rcx], xmm3
	movups	XMMWORD PTR [rcx+16], xmm4
	subps	xmm5, xmm1
	subps	xmm5, xmm7
	movaps	xmm7, XMMWORD PTR [rsp]
	movups	XMMWORD PTR [rcx+48], xmm5
	add	rsp, 40					; 00000028H
	ret	0
?invns128@MAT4@DATA@XGK@@YAXPEAX@Z ENDP			; XGK::DATA::MAT4::invns128
_TEXT	ENDS
; Function compile flags: /Ogtpy
;	COMDAT ?transp128@MAT4@DATA@XGK@@YAXPEAX@Z
_TEXT	SEGMENT
dst$ = 8
?transp128@MAT4@DATA@XGK@@YAXPEAX@Z PROC		; XGK::DATA::MAT4::transp128, COMDAT
; File E:\reps\denis-belov\xgk\src\data\mat4\mat4-128.cpp
; Line 462
	movups	xmm5, XMMWORD PTR [rcx]
; Line 463
	movups	xmm4, XMMWORD PTR [rcx+32]
	movaps	xmm3, xmm5
	shufps	xmm3, XMMWORD PTR [rcx+16], 68		; 00000044H
	movaps	xmm2, xmm4
	shufps	xmm2, XMMWORD PTR [rcx+48], 68		; 00000044H
; Line 467
	movaps	xmm0, xmm3
	shufps	xmm5, XMMWORD PTR [rcx+16], 238		; 000000eeH
	shufps	xmm4, XMMWORD PTR [rcx+48], 238		; 000000eeH
	shufps	xmm0, xmm2, 136				; 00000088H
	movups	XMMWORD PTR [rcx], xmm0
; Line 469
	movaps	xmm0, xmm5
	shufps	xmm0, xmm4, 136				; 00000088H
	shufps	xmm3, xmm2, 221				; 000000ddH
; Line 470
	shufps	xmm5, xmm4, 221				; 000000ddH
	movups	XMMWORD PTR [rcx+32], xmm0
	movups	XMMWORD PTR [rcx+16], xmm3
	movups	XMMWORD PTR [rcx+48], xmm5
; Line 471
	ret	0
?transp128@MAT4@DATA@XGK@@YAXPEAX@Z ENDP		; XGK::DATA::MAT4::transp128
_TEXT	ENDS
; Function compile flags: /Ogtpy
;	COMDAT ?postRotQuat128@MAT4@DATA@XGK@@YAXPEAX0@Z
_TEXT	SEGMENT
dst_matrix_addr$ = 32
quaternion_addr$ = 40
?postRotQuat128@MAT4@DATA@XGK@@YAXPEAX0@Z PROC		; XGK::DATA::MAT4::postRotQuat128, COMDAT
; File E:\reps\denis-belov\xgk\src\data\mat4\mat4-128.cpp
; Line 432
$LN4:
	sub	rsp, 24
; Line 437
	movups	xmm4, XMMWORD PTR [rdx]
	movaps	xmm2, XMMWORD PTR ?CONST_MUL@MAT4@DATA@XGK@@3T__m128@@B
	movaps	xmm0, xmm4
	shufps	xmm0, xmm4, 16
	movaps	xmm1, xmm4
	shufps	xmm1, xmm4, 63				; 0000003fH
	movaps	XMMWORD PTR [rsp], xmm7
	movaps	xmm7, xmm4
	shufps	xmm7, xmm4, 41				; 00000029H
	mulps	xmm7, xmm0
	movaps	xmm0, xmm4
	shufps	xmm0, xmm4, 6
	mulps	xmm1, xmm0
	mulps	xmm7, xmm2
	mulps	xmm4, xmm4
	mulps	xmm1, xmm2
	mulps	xmm4, xmm2
	movaps	xmm3, xmm1
	addps	xmm3, xmm7
	subps	xmm7, xmm1
	movaps	xmm1, XMMWORD PTR ?CONST_ONE@MAT4@DATA@XGK@@3T__m128@@B
	movaps	xmm0, xmm4
	shufps	xmm0, xmm4, 218				; 000000daH
	shufps	xmm4, xmm4, 193				; 000000c1H
	addps	xmm0, xmm4
	movaps	xmm2, xmm3
; Line 439
	movups	xmm4, XMMWORD PTR [rcx]
	subps	xmm1, xmm0
	shufps	xmm2, xmm1, 33				; 00000021H
	movaps	xmm5, xmm1
	shufps	xmm2, xmm7, 215				; 000000d7H
	shufps	xmm5, xmm7, 20
; Line 443
	movaps	xmm0, xmm2
	shufps	xmm0, xmm2, 0
	shufps	xmm5, xmm3, 231				; 000000e7H
	mulps	xmm0, xmm4
	shufps	xmm7, xmm3, 104				; 00000068H
	movups	xmm3, XMMWORD PTR [rcx+16]
	shufps	xmm7, xmm1, 231				; 000000e7H
; Line 447
	movaps	xmm1, xmm2
	shufps	xmm1, xmm2, 85				; 00000055H
	mulps	xmm1, xmm3
; Line 451
	shufps	xmm2, xmm2, 170				; 000000aaH
	mulps	xmm2, XMMWORD PTR [rcx+32]
	addps	xmm1, xmm0
	movaps	xmm0, xmm5
	shufps	xmm0, xmm5, 0
	mulps	xmm0, xmm4
	addps	xmm1, xmm2
	movaps	xmm2, xmm5
	shufps	xmm2, xmm5, 85				; 00000055H
	mulps	xmm2, xmm3
; Line 452
	shufps	xmm5, xmm5, 170				; 000000aaH
	mulps	xmm5, XMMWORD PTR [rcx+32]
	movups	XMMWORD PTR [rcx], xmm1
	addps	xmm2, xmm0
	movaps	xmm0, xmm7
	movaps	xmm1, xmm7
	shufps	xmm1, xmm7, 85				; 00000055H
	shufps	xmm0, xmm7, 0
	mulps	xmm1, xmm3
; Line 453
	shufps	xmm7, xmm7, 170				; 000000aaH
	addps	xmm2, xmm5
	mulps	xmm7, XMMWORD PTR [rcx+32]
	mulps	xmm0, xmm4
	movups	XMMWORD PTR [rcx+16], xmm2
	addps	xmm1, xmm0
	addps	xmm1, xmm7
; Line 454
	movaps	xmm7, XMMWORD PTR [rsp]
	movups	XMMWORD PTR [rcx+32], xmm1
	add	rsp, 24
	ret	0
?postRotQuat128@MAT4@DATA@XGK@@YAXPEAX0@Z ENDP		; XGK::DATA::MAT4::postRotQuat128
_TEXT	ENDS
; Function compile flags: /Ogtpy
;	COMDAT ?preRotQuat128@MAT4@DATA@XGK@@YAXPEAX0@Z
_TEXT	SEGMENT
dst_matrix_addr$ = 96
quaternion_addr$ = 104
?preRotQuat128@MAT4@DATA@XGK@@YAXPEAX0@Z PROC		; XGK::DATA::MAT4::preRotQuat128, COMDAT
; File E:\reps\denis-belov\xgk\src\data\mat4\mat4-128.cpp
; Line 397
$LN4:
	mov	rax, rsp
	sub	rsp, 88					; 00000058H
; Line 406
	movups	xmm4, XMMWORD PTR [rdx]
	movaps	xmm2, XMMWORD PTR ?CONST_MUL@MAT4@DATA@XGK@@3T__m128@@B
	movaps	xmm0, xmm4
	shufps	xmm0, xmm4, 16
	movaps	xmm1, xmm4
	shufps	xmm1, xmm4, 63				; 0000003fH
	movaps	XMMWORD PTR [rax-24], xmm6
	movups	xmm6, XMMWORD PTR [rcx]
	movaps	XMMWORD PTR [rax-40], xmm7
	movups	xmm7, XMMWORD PTR [rcx+16]
	movaps	XMMWORD PTR [rax-56], xmm8
	movups	xmm8, XMMWORD PTR [rcx+32]
	movaps	XMMWORD PTR [rax-72], xmm9
	movaps	xmm9, xmm4
	shufps	xmm9, xmm4, 41				; 00000029H
	mulps	xmm9, xmm0
	movaps	xmm0, xmm4
	shufps	xmm0, xmm4, 6
	mulps	xmm1, xmm0
	mulps	xmm9, xmm2
	mulps	xmm4, xmm4
	mulps	xmm1, xmm2
	movaps	XMMWORD PTR [rsp], xmm10
	movups	xmm10, XMMWORD PTR [rcx+48]
	mulps	xmm4, xmm2
	movaps	xmm3, xmm1
	addps	xmm3, xmm9
; Line 418
	movaps	xmm2, xmm7
	subps	xmm9, xmm1
	shufps	xmm2, xmm7, 85				; 00000055H
	movaps	xmm1, XMMWORD PTR ?CONST_ONE@MAT4@DATA@XGK@@3T__m128@@B
	movaps	xmm0, xmm4
	shufps	xmm0, xmm4, 218				; 000000daH
	shufps	xmm4, xmm4, 193				; 000000c1H
	movaps	xmm5, xmm3
	addps	xmm0, xmm4
	subps	xmm1, xmm0
	movaps	xmm0, xmm6
	shufps	xmm0, xmm6, 0
	shufps	xmm5, xmm1, 33				; 00000021H
	movaps	xmm4, xmm1
	shufps	xmm5, xmm9, 215				; 000000d7H
	mulps	xmm0, xmm5
	shufps	xmm4, xmm9, 20
	shufps	xmm4, xmm3, 231				; 000000e7H
	mulps	xmm2, xmm4
	shufps	xmm9, xmm3, 104				; 00000068H
	shufps	xmm9, xmm1, 231				; 000000e7H
	movaps	xmm1, xmm6
	shufps	xmm1, xmm6, 85				; 00000055H
	mulps	xmm1, xmm4
; Line 422
	shufps	xmm6, xmm6, 170				; 000000aaH
	mulps	xmm6, xmm9
	addps	xmm1, xmm0
	movaps	xmm0, xmm7
	shufps	xmm0, xmm7, 0
	mulps	xmm0, xmm5
; Line 423
	shufps	xmm7, xmm7, 170				; 000000aaH
	addps	xmm1, xmm6
	mulps	xmm7, xmm9
	addps	xmm2, xmm0
	movaps	xmm0, xmm8
	shufps	xmm0, xmm8, 0
	mulps	xmm0, xmm5
	movups	XMMWORD PTR [rcx], xmm1
	movaps	xmm1, xmm8
	shufps	xmm1, xmm8, 85				; 00000055H
	addps	xmm2, xmm7
	mulps	xmm1, xmm4
; Line 424
	shufps	xmm8, xmm8, 170				; 000000aaH
	mulps	xmm8, xmm9
	addps	xmm1, xmm0
	movups	XMMWORD PTR [rcx+16], xmm2
	movaps	xmm2, xmm10
	movaps	xmm0, xmm10
	shufps	xmm2, xmm10, 85				; 00000055H
	shufps	xmm0, xmm10, 0
	mulps	xmm2, xmm4
	addps	xmm1, xmm8
	mulps	xmm0, xmm5
	movups	XMMWORD PTR [rcx+32], xmm1
; Line 428
	movaps	xmm6, XMMWORD PTR [rax-24]
	addps	xmm2, xmm0
	movaps	xmm7, XMMWORD PTR [rax-40]
	movaps	xmm8, XMMWORD PTR [rax-56]
	shufps	xmm10, xmm10, 170			; 000000aaH
	mulps	xmm10, xmm9
	movaps	xmm9, XMMWORD PTR [rax-72]
	addps	xmm2, xmm10
	movaps	xmm10, XMMWORD PTR [rsp]
	movups	XMMWORD PTR [rcx+48], xmm2
	mov	DWORD PTR [rcx+60], 1065353216		; 3f800000H
	add	rsp, 88					; 00000058H
	ret	0
?preRotQuat128@MAT4@DATA@XGK@@YAXPEAX0@Z ENDP		; XGK::DATA::MAT4::preRotQuat128
_TEXT	ENDS
; Function compile flags: /Ogtpy
;	COMDAT ?makeRotQuat128@MAT4@DATA@XGK@@YAXPEAX0@Z
_TEXT	SEGMENT
dst_matrix_addr$ = 8
quaternion_addr$ = 16
?makeRotQuat128@MAT4@DATA@XGK@@YAXPEAX0@Z PROC		; XGK::DATA::MAT4::makeRotQuat128, COMDAT
; File E:\reps\denis-belov\xgk\src\data\mat4\mat4-128.cpp
; Line 392
	movups	xmm4, XMMWORD PTR [rdx]
	movaps	xmm2, XMMWORD PTR ?CONST_MUL@MAT4@DATA@XGK@@3T__m128@@B
	movaps	xmm5, xmm4
	shufps	xmm5, xmm4, 41				; 00000029H
	movaps	xmm0, xmm4
	shufps	xmm0, xmm4, 16
	movaps	xmm1, xmm4
	mulps	xmm5, xmm0
	movaps	xmm0, xmm4
	shufps	xmm0, xmm4, 6
	shufps	xmm1, xmm4, 63				; 0000003fH
	mulps	xmm1, xmm0
	mulps	xmm5, xmm2
	mulps	xmm4, xmm4
	mulps	xmm1, xmm2
	mulps	xmm4, xmm2
	movaps	xmm2, XMMWORD PTR ?CONST_ONE@MAT4@DATA@XGK@@3T__m128@@B
	movaps	xmm3, xmm1
	addps	xmm3, xmm5
	subps	xmm5, xmm1
	movaps	xmm0, xmm4
	shufps	xmm0, xmm4, 218				; 000000daH
	shufps	xmm4, xmm4, 193				; 000000c1H
	addps	xmm0, xmm4
	subps	xmm2, xmm0
	movaps	xmm0, xmm3
	shufps	xmm0, xmm2, 33				; 00000021H
	movaps	xmm1, xmm2
	shufps	xmm0, xmm5, 215				; 000000d7H
	shufps	xmm1, xmm5, 20
	shufps	xmm5, xmm3, 104				; 00000068H
	movups	XMMWORD PTR [rcx], xmm0
	movaps	xmm0, XMMWORD PTR ?IDENT_COL3@MAT4@DATA@XGK@@3T__m128@@B
	shufps	xmm5, xmm2, 231				; 000000e7H
	shufps	xmm1, xmm3, 231				; 000000e7H
	movups	XMMWORD PTR [rcx+32], xmm5
	movups	XMMWORD PTR [rcx+48], xmm0
	movups	XMMWORD PTR [rcx+16], xmm1
; Line 393
	ret	0
?makeRotQuat128@MAT4@DATA@XGK@@YAXPEAX0@Z ENDP		; XGK::DATA::MAT4::makeRotQuat128
_TEXT	ENDS
; Function compile flags: /Ogtpy
;	COMDAT ?postTransValue128@MAT4@DATA@XGK@@YAXPEAX0M@Z
_TEXT	SEGMENT
dst_matrix_addr$ = 112
vector_addr$ = 120
value$ = 128
?postTransValue128@MAT4@DATA@XGK@@YAXPEAX0M@Z PROC	; XGK::DATA::MAT4::postTransValue128, COMDAT
; File E:\reps\denis-belov\xgk\src\data\mat4\mat4-128.cpp
; Line 375
$LN4:
	mov	rax, rsp
	sub	rsp, 104				; 00000068H
; Line 382
	movaps	xmm4, XMMWORD PTR ?IDENT@MAT4@DATA@XGK@@3QBMB+16
	movaps	xmm5, XMMWORD PTR ?IDENT@MAT4@DATA@XGK@@3QBMB+32
	movaps	xmm3, XMMWORD PTR ?IDENT@MAT4@DATA@XGK@@3QBMB
	movaps	XMMWORD PTR [rax-24], xmm6
; Line 383
	movaps	xmm1, xmm3
	movups	xmm6, XMMWORD PTR [rcx+16]
	shufps	xmm1, xmm3, 170				; 000000aaH
	shufps	xmm1, xmm1, 0
	movaps	XMMWORD PTR [rax-40], xmm7
	movups	xmm7, XMMWORD PTR [rcx]
	movaps	XMMWORD PTR [rax-56], xmm8
	movups	xmm8, XMMWORD PTR [rcx+32]
	mulps	xmm1, xmm8
	movaps	XMMWORD PTR [rax-72], xmm9
	movups	xmm9, XMMWORD PTR [rcx+48]
	movaps	XMMWORD PTR [rax-88], xmm10
	movaps	xmm10, XMMWORD PTR __xmm@3f8000003f8000003f8000003f800000
	movaps	XMMWORD PTR [rsp], xmm11
	movaps	xmm0, xmm10
	movaps	xmm11, xmm2
	mulps	xmm0, xmm7
	movaps	xmm2, xmm3
	shufps	xmm11, xmm11, 0
	mulps	xmm11, XMMWORD PTR [rdx]
	shufps	xmm2, xmm3, 85				; 00000055H
	shufps	xmm2, xmm2, 0
	mulps	xmm2, xmm6
	shufps	xmm3, xmm3, 255				; 000000ffH
	addps	xmm2, xmm0
	movaps	xmm0, xmm3
	shufps	xmm0, xmm0, 0
	mulps	xmm0, xmm9
	addps	xmm2, xmm1
	movaps	xmm1, xmm4
	shufps	xmm1, xmm4, 170				; 000000aaH
	shufps	xmm1, xmm1, 0
	mulps	xmm1, xmm8
	addps	xmm2, xmm0
	movaps	xmm0, xmm4
	shufps	xmm0, xmm0, 0
	mulps	xmm0, xmm7
	movups	XMMWORD PTR [rcx], xmm2
	movaps	xmm2, xmm4
	shufps	xmm2, xmm4, 85				; 00000055H
	shufps	xmm2, xmm2, 0
	mulps	xmm2, xmm6
	shufps	xmm4, xmm4, 255				; 000000ffH
	addps	xmm2, xmm0
	movaps	xmm0, xmm4
	shufps	xmm0, xmm0, 0
	mulps	xmm0, xmm9
	addps	xmm2, xmm1
	movaps	xmm1, xmm5
	shufps	xmm1, xmm5, 170				; 000000aaH
	shufps	xmm1, xmm1, 0
	mulps	xmm1, xmm8
	addps	xmm2, xmm0
	movaps	xmm0, xmm5
	shufps	xmm0, xmm0, 0
	mulps	xmm0, xmm7
	movups	XMMWORD PTR [rcx+16], xmm2
	movaps	xmm2, xmm5
	shufps	xmm2, xmm5, 85				; 00000055H
	shufps	xmm2, xmm2, 0
	mulps	xmm2, xmm6
	shufps	xmm5, xmm5, 255				; 000000ffH
	addps	xmm2, xmm0
	movaps	xmm0, xmm5
	shufps	xmm0, xmm0, 0
	mulps	xmm0, xmm9
	addps	xmm2, xmm1
	movaps	xmm1, xmm11
	shufps	xmm1, xmm11, 85				; 00000055H
	shufps	xmm1, xmm1, 0
	mulps	xmm1, xmm6
	addps	xmm2, xmm0
	movaps	xmm0, xmm11
	shufps	xmm0, xmm0, 0
	mulps	xmm0, xmm7
	movups	XMMWORD PTR [rcx+32], xmm2
	addps	xmm1, xmm0
; Line 384
	movaps	xmm6, XMMWORD PTR [rax-24]
	movaps	xmm7, XMMWORD PTR [rax-40]
	mulps	xmm10, xmm9
	movaps	xmm9, XMMWORD PTR [rax-72]
	shufps	xmm11, xmm11, 170			; 000000aaH
	movaps	xmm0, xmm11
	movaps	xmm11, XMMWORD PTR [rsp]
	shufps	xmm0, xmm0, 0
	mulps	xmm0, xmm8
	movaps	xmm8, XMMWORD PTR [rax-56]
	addps	xmm1, xmm0
	addps	xmm1, xmm10
	movaps	xmm10, XMMWORD PTR [rax-88]
	movups	XMMWORD PTR [rcx+48], xmm1
	add	rsp, 104				; 00000068H
	ret	0
?postTransValue128@MAT4@DATA@XGK@@YAXPEAX0M@Z ENDP	; XGK::DATA::MAT4::postTransValue128
_TEXT	ENDS
; Function compile flags: /Ogtpy
;	COMDAT ?preTransValue128@MAT4@DATA@XGK@@YAXPEAX0M@Z
_TEXT	SEGMENT
__$ArrayPad$ = 64
dst_matrix_addr$ = 192
vector_addr$ = 200
value$ = 208
?preTransValue128@MAT4@DATA@XGK@@YAXPEAX0M@Z PROC	; XGK::DATA::MAT4::preTransValue128, COMDAT
; File E:\reps\denis-belov\xgk\src\data\mat4\mat4-128.cpp
; Line 360
$LN4:
	mov	rax, rsp
	sub	rsp, 184				; 000000b8H
	movaps	XMMWORD PTR [rax-24], xmm6
	movaps	XMMWORD PTR [rax-40], xmm7
	movaps	XMMWORD PTR [rax-56], xmm8
	movaps	XMMWORD PTR [rax-72], xmm9
	movaps	XMMWORD PTR [rax-88], xmm10
	movaps	XMMWORD PTR [rax-104], xmm11
	mov	rax, QWORD PTR __security_cookie
	xor	rax, rsp
	mov	QWORD PTR __$ArrayPad$[rsp], rax
; Line 367
	movups	xmm4, XMMWORD PTR [rcx]
	movups	xmm5, XMMWORD PTR [rcx+16]
	movups	xmm6, XMMWORD PTR [rcx+32]
; Line 370
	movaps	xmm8, XMMWORD PTR ?IDENT@MAT4@DATA@XGK@@3QBMB
	movaps	xmm11, xmm2
	movaps	xmm7, XMMWORD PTR ?IDENT@MAT4@DATA@XGK@@3QBMB+16
	movaps	xmm1, xmm4
	movups	xmm10, XMMWORD PTR [rcx+48]
	movaps	xmm9, XMMWORD PTR ?IDENT@MAT4@DATA@XGK@@3QBMB+32
	movaps	xmm3, xmm4
	movss	xmm2, DWORD PTR __real@3f800000
	shufps	xmm1, xmm4, 85				; 00000055H
	shufps	xmm1, xmm1, 0
	mulps	xmm1, xmm7
	shufps	xmm3, xmm3, 0
	shufps	xmm11, xmm11, 0
	mulps	xmm11, XMMWORD PTR [rdx]
	mulps	xmm3, xmm8
	shufps	xmm11, xmm11, 147			; 00000093H
	movss	xmm11, xmm2
	movaps	xmm2, xmm5
	addps	xmm3, xmm1
	shufps	xmm2, xmm2, 0
	mulps	xmm2, xmm8
	movaps	xmm1, xmm4
	shufps	xmm1, xmm4, 170				; 000000aaH
	shufps	xmm1, xmm1, 0
	mulps	xmm1, xmm9
	shufps	xmm11, xmm11, 57			; 00000039H
	shufps	xmm4, xmm4, 255				; 000000ffH
	movaps	xmm0, xmm4
	addps	xmm3, xmm1
	shufps	xmm0, xmm0, 0
	mulps	xmm0, xmm11
	movaps	xmm1, xmm5
	shufps	xmm1, xmm5, 85				; 00000055H
	shufps	xmm1, xmm1, 0
	mulps	xmm1, xmm7
	addps	xmm3, xmm0
	addps	xmm2, xmm1
	movaps	xmm1, xmm5
	shufps	xmm1, xmm5, 170				; 000000aaH
	shufps	xmm1, xmm1, 0
	mulps	xmm1, xmm9
	shufps	xmm5, xmm5, 255				; 000000ffH
	movaps	xmm0, xmm5
	movups	XMMWORD PTR [rcx], xmm3
	shufps	xmm0, xmm0, 0
	addps	xmm2, xmm1
	mulps	xmm0, xmm11
	movaps	xmm1, xmm6
	shufps	xmm1, xmm6, 170				; 000000aaH
	shufps	xmm1, xmm1, 0
	addps	xmm2, xmm0
	mulps	xmm1, xmm9
	movaps	xmm0, xmm6
	shufps	xmm0, xmm0, 0
	mulps	xmm0, xmm8
	movups	XMMWORD PTR [rcx+16], xmm2
	movaps	xmm2, xmm6
	shufps	xmm2, xmm6, 85				; 00000055H
	shufps	xmm2, xmm2, 0
	mulps	xmm2, xmm7
	shufps	xmm6, xmm6, 255				; 000000ffH
	addps	xmm2, xmm0
	movaps	xmm0, xmm6
	shufps	xmm0, xmm0, 0
	mulps	xmm0, xmm11
	addps	xmm2, xmm1
	movaps	xmm1, xmm10
	shufps	xmm1, xmm10, 170			; 000000aaH
	addps	xmm2, xmm0
	movaps	xmm0, xmm10
	shufps	xmm0, xmm0, 0
	mulps	xmm0, xmm8
	movups	XMMWORD PTR [rcx+32], xmm2
	movaps	xmm2, xmm10
	shufps	xmm2, xmm10, 85				; 00000055H
	shufps	xmm2, xmm2, 0
	mulps	xmm2, xmm7
	addps	xmm2, xmm0
	shufps	xmm1, xmm1, 0
	mulps	xmm1, xmm9
	shufps	xmm10, xmm10, 255			; 000000ffH
	movaps	xmm0, xmm10
	shufps	xmm0, xmm0, 0
	addps	xmm2, xmm1
	mulps	xmm0, xmm11
	addps	xmm2, xmm0
	movups	XMMWORD PTR [rcx+48], xmm2
; Line 371
	mov	rcx, QWORD PTR __$ArrayPad$[rsp]
	xor	rcx, rsp
	call	__security_check_cookie
	lea	r11, QWORD PTR [rsp+184]
	movaps	xmm6, XMMWORD PTR [r11-24]
	movaps	xmm7, XMMWORD PTR [r11-40]
	movaps	xmm8, XMMWORD PTR [r11-56]
	movaps	xmm9, XMMWORD PTR [r11-72]
	movaps	xmm10, XMMWORD PTR [r11-88]
	movaps	xmm11, XMMWORD PTR [r11-104]
	mov	rsp, r11
	ret	0
?preTransValue128@MAT4@DATA@XGK@@YAXPEAX0M@Z ENDP	; XGK::DATA::MAT4::preTransValue128
_TEXT	ENDS
; Function compile flags: /Ogtpy
;	COMDAT ?makeTransValue128@MAT4@DATA@XGK@@YAXPEAX0M@Z
_TEXT	SEGMENT
dst_matrix_addr$ = 8
vector_addr$ = 16
value$ = 24
?makeTransValue128@MAT4@DATA@XGK@@YAXPEAX0M@Z PROC	; XGK::DATA::MAT4::makeTransValue128, COMDAT
; File E:\reps\denis-belov\xgk\src\data\mat4\mat4-128.cpp
; Line 355
	movaps	xmm0, XMMWORD PTR ?IDENT@MAT4@DATA@XGK@@3QBMB
	movups	XMMWORD PTR [rcx], xmm0
	movaps	xmm1, XMMWORD PTR ?IDENT@MAT4@DATA@XGK@@3QBMB+16
	movups	XMMWORD PTR [rcx+16], xmm1
	movaps	xmm0, XMMWORD PTR ?IDENT@MAT4@DATA@XGK@@3QBMB+32
	movaps	xmm1, xmm2
	movups	XMMWORD PTR [rcx+32], xmm0
	shufps	xmm1, xmm1, 0
	mulps	xmm1, XMMWORD PTR [rdx]
	movups	XMMWORD PTR [rcx+48], xmm1
	mov	DWORD PTR [rcx+60], 1065353216		; 3f800000H
; Line 356
	ret	0
?makeTransValue128@MAT4@DATA@XGK@@YAXPEAX0M@Z ENDP	; XGK::DATA::MAT4::makeTransValue128
_TEXT	ENDS
; Function compile flags: /Ogtpy
;	COMDAT ?postTrans128@MAT4@DATA@XGK@@YAXPEAX0@Z
_TEXT	SEGMENT
dst_matrix_addr$ = 8
vector_addr$ = 16
?postTrans128@MAT4@DATA@XGK@@YAXPEAX0@Z PROC		; XGK::DATA::MAT4::postTrans128, COMDAT
; File E:\reps\denis-belov\xgk\src\data\mat4\mat4-128.cpp
; Line 343
	movups	xmm0, XMMWORD PTR [rdx]
	shufps	xmm0, xmm0, 0
	mulps	xmm0, XMMWORD PTR [rcx]
	addps	xmm0, XMMWORD PTR [rcx+48]
	movups	XMMWORD PTR [rcx+48], xmm0
; Line 344
	movups	xmm1, XMMWORD PTR [rdx]
	shufps	xmm1, xmm1, 85				; 00000055H
	mulps	xmm1, XMMWORD PTR [rcx+16]
	addps	xmm1, xmm0
	movups	XMMWORD PTR [rcx+48], xmm1
; Line 345
	movups	xmm0, XMMWORD PTR [rdx]
	shufps	xmm0, xmm0, 170				; 000000aaH
	mulps	xmm0, XMMWORD PTR [rcx+32]
	addps	xmm0, xmm1
	movups	XMMWORD PTR [rcx+48], xmm0
; Line 346
	ret	0
?postTrans128@MAT4@DATA@XGK@@YAXPEAX0@Z ENDP		; XGK::DATA::MAT4::postTrans128
_TEXT	ENDS
; Function compile flags: /Ogtpy
;	COMDAT ?preTrans128@MAT4@DATA@XGK@@YAXPEAX0@Z
_TEXT	SEGMENT
dst_matrix_addr$ = 8
vector_addr$ = 16
?preTrans128@MAT4@DATA@XGK@@YAXPEAX0@Z PROC		; XGK::DATA::MAT4::preTrans128, COMDAT
; File E:\reps\denis-belov\xgk\src\data\mat4\mat4-128.cpp
; Line 326
	movups	xmm0, XMMWORD PTR [rcx+48]
	addps	xmm0, XMMWORD PTR [rdx]
	movups	XMMWORD PTR [rcx+48], xmm0
; Line 327
	ret	0
?preTrans128@MAT4@DATA@XGK@@YAXPEAX0@Z ENDP		; XGK::DATA::MAT4::preTrans128
_TEXT	ENDS
; Function compile flags: /Ogtpy
;	COMDAT ?makeTrans128@MAT4@DATA@XGK@@YAXPEAX0@Z
_TEXT	SEGMENT
dst_matrix_addr$ = 8
vector_addr$ = 16
?makeTrans128@MAT4@DATA@XGK@@YAXPEAX0@Z PROC		; XGK::DATA::MAT4::makeTrans128, COMDAT
; File E:\reps\denis-belov\xgk\src\data\mat4\mat4-128.cpp
; Line 316
	movaps	xmm0, XMMWORD PTR ?IDENT@MAT4@DATA@XGK@@3QBMB
	movups	XMMWORD PTR [rcx], xmm0
	movaps	xmm1, XMMWORD PTR ?IDENT@MAT4@DATA@XGK@@3QBMB+16
	movups	XMMWORD PTR [rcx+16], xmm1
	movaps	xmm0, XMMWORD PTR ?IDENT@MAT4@DATA@XGK@@3QBMB+32
	movups	XMMWORD PTR [rcx+32], xmm0
	movsd	xmm0, QWORD PTR [rdx]
	movsd	QWORD PTR [rcx+48], xmm0
	mov	eax, DWORD PTR [rdx+8]
	mov	DWORD PTR [rcx+56], eax
; Line 317
	ret	0
?makeTrans128@MAT4@DATA@XGK@@YAXPEAX0@Z ENDP		; XGK::DATA::MAT4::makeTrans128
_TEXT	ENDS
; Function compile flags: /Ogtpy
;	COMDAT ?postmul128@MAT4@DATA@XGK@@YAXPEAX0@Z
_TEXT	SEGMENT
dst_matrix_addr$ = 64
src_matrix_addr$ = 72
?postmul128@MAT4@DATA@XGK@@YAXPEAX0@Z PROC		; XGK::DATA::MAT4::postmul128, COMDAT
; File E:\reps\denis-belov\xgk\src\data\mat4\mat4-128.cpp
; Line 301
$LN4:
	sub	rsp, 56					; 00000038H
; Line 307
	movups	xmm0, XMMWORD PTR [rcx]
	movss	xmm1, DWORD PTR [rdx]
	shufps	xmm1, xmm1, 0
	mulps	xmm1, xmm0
	movaps	XMMWORD PTR [rsp+32], xmm6
	movups	xmm6, XMMWORD PTR [rcx+16]
	movaps	XMMWORD PTR [rsp+16], xmm7
	movups	xmm7, XMMWORD PTR [rcx+32]
	movaps	XMMWORD PTR [rsp], xmm8
	movups	xmm8, XMMWORD PTR [rcx+48]
	movups	XMMWORD PTR [rcx], xmm1
	movss	xmm2, DWORD PTR [rdx+16]
	shufps	xmm2, xmm2, 0
	mulps	xmm2, xmm0
	movups	XMMWORD PTR [rcx+16], xmm2
	movss	xmm3, DWORD PTR [rdx+32]
	shufps	xmm3, xmm3, 0
	mulps	xmm3, xmm0
	movups	XMMWORD PTR [rcx+32], xmm3
	movss	xmm4, DWORD PTR [rdx+48]
	shufps	xmm4, xmm4, 0
	mulps	xmm4, xmm0
	movups	XMMWORD PTR [rcx+48], xmm4
	movss	xmm0, DWORD PTR [rdx+4]
	shufps	xmm0, xmm0, 0
	mulps	xmm0, xmm6
	addps	xmm0, xmm1
	movups	XMMWORD PTR [rcx], xmm0
	movss	xmm1, DWORD PTR [rdx+20]
	shufps	xmm1, xmm1, 0
	mulps	xmm1, xmm6
	addps	xmm1, xmm2
	movups	XMMWORD PTR [rcx+16], xmm1
	movss	xmm2, DWORD PTR [rdx+36]
	shufps	xmm2, xmm2, 0
	mulps	xmm2, xmm6
	addps	xmm2, xmm3
	movups	XMMWORD PTR [rcx+32], xmm2
	movss	xmm5, DWORD PTR [rdx+52]
	shufps	xmm5, xmm5, 0
	mulps	xmm5, xmm6
	addps	xmm5, xmm4
	movups	XMMWORD PTR [rcx+48], xmm5
	movss	xmm6, DWORD PTR [rdx+8]
	shufps	xmm6, xmm6, 0
	mulps	xmm6, xmm7
	addps	xmm6, xmm0
	movups	XMMWORD PTR [rcx], xmm6
	movss	xmm4, DWORD PTR [rdx+24]
	shufps	xmm4, xmm4, 0
	mulps	xmm4, xmm7
	addps	xmm4, xmm1
	movups	XMMWORD PTR [rcx+16], xmm4
	movss	xmm3, DWORD PTR [rdx+40]
	shufps	xmm3, xmm3, 0
	mulps	xmm3, xmm7
	addps	xmm3, xmm2
	movups	XMMWORD PTR [rcx+32], xmm3
	movss	xmm2, DWORD PTR [rdx+56]
	shufps	xmm2, xmm2, 0
	mulps	xmm2, xmm7
	addps	xmm2, xmm5
	movups	XMMWORD PTR [rcx+48], xmm2
	movss	xmm0, DWORD PTR [rdx+12]
	shufps	xmm0, xmm0, 0
	mulps	xmm0, xmm8
	addps	xmm0, xmm6
	movups	XMMWORD PTR [rcx], xmm0
	movss	xmm1, DWORD PTR [rdx+28]
	shufps	xmm1, xmm1, 0
	mulps	xmm1, xmm8
	addps	xmm1, xmm4
	movups	XMMWORD PTR [rcx+16], xmm1
	movss	xmm0, DWORD PTR [rdx+44]
	shufps	xmm0, xmm0, 0
	mulps	xmm0, xmm8
	addps	xmm0, xmm3
	movups	XMMWORD PTR [rcx+32], xmm0
	movss	xmm1, DWORD PTR [rdx+60]
	shufps	xmm1, xmm1, 0
	mulps	xmm1, xmm8
; Line 308
	movaps	xmm6, XMMWORD PTR [rsp+32]
	addps	xmm1, xmm2
	movaps	xmm7, XMMWORD PTR [rsp+16]
	movaps	xmm8, XMMWORD PTR [rsp]
	movups	XMMWORD PTR [rcx+48], xmm1
	add	rsp, 56					; 00000038H
	ret	0
?postmul128@MAT4@DATA@XGK@@YAXPEAX0@Z ENDP		; XGK::DATA::MAT4::postmul128
_TEXT	ENDS
; Function compile flags: /Ogtpy
;	COMDAT ?premul128@MAT4@DATA@XGK@@YAXPEAX0@Z
_TEXT	SEGMENT
dst_matrix_addr$ = 96
src_matrix_addr$ = 104
?premul128@MAT4@DATA@XGK@@YAXPEAX0@Z PROC		; XGK::DATA::MAT4::premul128, COMDAT
; File E:\reps\denis-belov\xgk\src\data\mat4\mat4-128.cpp
; Line 287
$LN4:
	mov	rax, rsp
	sub	rsp, 88					; 00000058H
; Line 293
	movups	xmm3, XMMWORD PTR [rcx]
	movups	xmm4, XMMWORD PTR [rcx+16]
	movups	xmm5, XMMWORD PTR [rcx+32]
	movaps	XMMWORD PTR [rax-24], xmm6
; Line 295
	movaps	xmm2, xmm3
	movups	xmm6, XMMWORD PTR [rdx+16]
	movaps	xmm0, xmm3
	shufps	xmm2, xmm3, 85				; 00000055H
	movaps	xmm1, xmm3
	shufps	xmm2, xmm2, 0
	mulps	xmm2, xmm6
	shufps	xmm0, xmm0, 0
	shufps	xmm1, xmm3, 170				; 000000aaH
	shufps	xmm1, xmm1, 0
	movaps	XMMWORD PTR [rax-40], xmm7
	movups	xmm7, XMMWORD PTR [rdx]
	mulps	xmm0, xmm7
	movaps	XMMWORD PTR [rax-56], xmm8
	movups	xmm8, XMMWORD PTR [rdx+32]
	mulps	xmm1, xmm8
	addps	xmm2, xmm0
	movaps	XMMWORD PTR [rax-72], xmm9
	movups	xmm9, XMMWORD PTR [rdx+48]
	shufps	xmm3, xmm3, 255				; 000000ffH
	movaps	XMMWORD PTR [rsp], xmm10
	movaps	xmm0, xmm3
	movups	xmm10, XMMWORD PTR [rcx+48]
	addps	xmm2, xmm1
	shufps	xmm0, xmm0, 0
	mulps	xmm0, xmm9
	movaps	xmm1, xmm4
	shufps	xmm1, xmm4, 170				; 000000aaH
	shufps	xmm1, xmm1, 0
	mulps	xmm1, xmm8
	addps	xmm2, xmm0
	movaps	xmm0, xmm4
	shufps	xmm0, xmm0, 0
	mulps	xmm0, xmm7
	movups	XMMWORD PTR [rcx], xmm2
	movaps	xmm2, xmm4
	shufps	xmm2, xmm4, 85				; 00000055H
	shufps	xmm2, xmm2, 0
	mulps	xmm2, xmm6
	shufps	xmm4, xmm4, 255				; 000000ffH
	addps	xmm2, xmm0
	movaps	xmm0, xmm4
	shufps	xmm0, xmm0, 0
	mulps	xmm0, xmm9
	addps	xmm2, xmm1
	movaps	xmm1, xmm5
	shufps	xmm1, xmm5, 170				; 000000aaH
	shufps	xmm1, xmm1, 0
	mulps	xmm1, xmm8
	addps	xmm2, xmm0
	movaps	xmm0, xmm5
	shufps	xmm0, xmm0, 0
	mulps	xmm0, xmm7
	movups	XMMWORD PTR [rcx+16], xmm2
	movaps	xmm2, xmm5
	shufps	xmm2, xmm5, 85				; 00000055H
	shufps	xmm2, xmm2, 0
	mulps	xmm2, xmm6
	shufps	xmm5, xmm5, 255				; 000000ffH
	addps	xmm2, xmm0
	movaps	xmm0, xmm5
	shufps	xmm0, xmm0, 0
	mulps	xmm0, xmm9
	addps	xmm2, xmm1
	movaps	xmm1, xmm10
	shufps	xmm1, xmm10, 170			; 000000aaH
	shufps	xmm1, xmm1, 0
	addps	xmm2, xmm0
	movaps	xmm0, xmm10
	shufps	xmm0, xmm0, 0
	mulps	xmm0, xmm7
	movups	XMMWORD PTR [rcx+32], xmm2
	movaps	xmm2, xmm10
	shufps	xmm2, xmm10, 85				; 00000055H
	shufps	xmm2, xmm2, 0
	mulps	xmm2, xmm6
	addps	xmm2, xmm0
; Line 296
	movaps	xmm6, XMMWORD PTR [rax-24]
	movaps	xmm7, XMMWORD PTR [rax-40]
	mulps	xmm1, xmm8
	movaps	xmm8, XMMWORD PTR [rax-56]
	shufps	xmm10, xmm10, 255			; 000000ffH
	movaps	xmm0, xmm10
	movaps	xmm10, XMMWORD PTR [rsp]
	shufps	xmm0, xmm0, 0
	addps	xmm2, xmm1
	mulps	xmm0, xmm9
	movaps	xmm9, XMMWORD PTR [rax-72]
	addps	xmm2, xmm0
	movups	XMMWORD PTR [rcx+48], xmm2
	add	rsp, 88					; 00000058H
	ret	0
?premul128@MAT4@DATA@XGK@@YAXPEAX0@Z ENDP		; XGK::DATA::MAT4::premul128
_TEXT	ENDS
; Function compile flags: /Ogtpy
;	COMDAT ?set128@MAT4@DATA@XGK@@YAXPEAXMMMMMMMMMMMMMMMM@Z
_TEXT	SEGMENT
dst$ = 48
e0$ = 56
e4$ = 64
e8$ = 72
e12$ = 80
e1$ = 88
e5$ = 96
e9$ = 104
e13$ = 112
e2$ = 120
e6$ = 128
e10$ = 136
e14$ = 144
e3$ = 152
e7$ = 160
e11$ = 168
e15$ = 176
?set128@MAT4@DATA@XGK@@YAXPEAXMMMMMMMMMMMMMMMM@Z PROC	; XGK::DATA::MAT4::set128, COMDAT
; File E:\reps\denis-belov\xgk\src\data\mat4\mat4-128.cpp
; Line 274
$LN4:
	sub	rsp, 40					; 00000028H
; Line 279
	movss	xmm0, DWORD PTR e1$[rsp]
	movss	xmm4, DWORD PTR e3$[rsp]
	movss	xmm5, DWORD PTR e2$[rsp]
	unpcklps xmm1, xmm0
; Line 280
	movss	xmm0, DWORD PTR e5$[rsp]
	movaps	XMMWORD PTR [rsp+16], xmm6
	movaps	XMMWORD PTR [rsp], xmm7
	movaps	xmm7, xmm3
; Line 283
	movaps	xmm6, XMMWORD PTR [rsp+16]
	movaps	xmm3, xmm2
	movss	xmm2, DWORD PTR e6$[rsp]
	unpcklps xmm3, xmm0
	movss	xmm0, DWORD PTR e9$[rsp]
	unpcklps xmm5, xmm4
	movlhps	xmm1, xmm5
	movups	XMMWORD PTR [rcx], xmm1
	movss	xmm1, DWORD PTR e7$[rsp]
	unpcklps xmm2, xmm1
	movss	xmm1, DWORD PTR e11$[rsp]
	movlhps	xmm3, xmm2
	movss	xmm2, DWORD PTR e10$[rsp]
	movups	XMMWORD PTR [rcx+16], xmm3
	movaps	xmm3, xmm7
	movaps	xmm7, XMMWORD PTR [rsp]
	unpcklps xmm3, xmm0
	movss	xmm0, DWORD PTR e13$[rsp]
	unpcklps xmm2, xmm1
	movss	xmm1, DWORD PTR e15$[rsp]
	movlhps	xmm3, xmm2
	movss	xmm2, DWORD PTR e14$[rsp]
	movups	XMMWORD PTR [rcx+32], xmm3
	movss	xmm3, DWORD PTR e12$[rsp]
	unpcklps xmm3, xmm0
	unpcklps xmm2, xmm1
	movlhps	xmm3, xmm2
	movups	XMMWORD PTR [rcx+48], xmm3
	add	rsp, 40					; 00000028H
	ret	0
?set128@MAT4@DATA@XGK@@YAXPEAXMMMMMMMMMMMMMMMM@Z ENDP	; XGK::DATA::MAT4::set128
_TEXT	ENDS
; Function compile flags: /Ogtpy
;	COMDAT ?tan@@YAMM@Z
_TEXT	SEGMENT
_Xx$ = 8
?tan@@YAMM@Z PROC					; tan, COMDAT
; File C:\Program Files (x86)\Microsoft Visual Studio\2019\Community\VC\Tools\MSVC\14.23.28105\include\cmath
; Line 242
	jmp	tanf
?tan@@YAMM@Z ENDP					; tan
_TEXT	ENDS
END
