; Listing generated by Microsoft (R) Optimizing Compiler Version 19.23.28106.4 

include listing.inc

INCLUDELIB MSVCRT
INCLUDELIB OLDNAMES

PUBLIC	?init@ORBIT@XGK@@YAXPEAUOrbit@2@PEAUObject@2@PEAUTransition@2@@Z ; XGK::ORBIT::init
PUBLIC	?update@ORBIT@XGK@@YAXPEAUOrbit@2@@Z		; XGK::ORBIT::update
PUBLIC	?rotate@ORBIT@XGK@@YAXPEAUOrbit@2@@Z		; XGK::ORBIT::rotate
PUBLIC	?move@ORBIT@XGK@@YAXPEAUOrbit@2@PEAUTime@2@MMP6AXMPEAX@Z@Z ; XGK::ORBIT::move
PUBLIC	__real@447a0000
EXTRN	?copy@MAT4@DATA@XGK@@YAXPEAX0@Z:PROC		; XGK::DATA::MAT4::copy
EXTRN	?ident@MAT4@DATA@XGK@@YAXPEAX@Z:PROC		; XGK::DATA::MAT4::ident
EXTRN	?init@OBJECT@XGK@@YAXPEAUObject@2@@Z:PROC	; XGK::OBJECT::init
EXTRN	?postRotX@OBJECT@XGK@@YAXPEAUObject@2@M@Z:PROC	; XGK::OBJECT::postRotX
EXTRN	?preRotY@OBJECT@XGK@@YAXPEAUObject@2@M@Z:PROC	; XGK::OBJECT::preRotY
EXTRN	?update2@OBJECT@XGK@@YAXPEAUObject@2@@Z:PROC	; XGK::OBJECT::update2
EXTRN	?setTransition2@TIME@XGK@@YAXPEAUTime@2@PEAUTransition@2@MP6AXMPEAX@Z@Z:PROC ; XGK::TIME::setTransition2
EXTRN	?invns@MAT4@DATA@XGK@@3P6AXPEAX@ZEA:QWORD	; XGK::DATA::MAT4::invns
EXTRN	_fltused:DWORD
;	COMDAT pdata
pdata	SEGMENT
$pdata$?init@ORBIT@XGK@@YAXPEAUOrbit@2@PEAUObject@2@PEAUTransition@2@@Z DD imagerel $LN4
	DD	imagerel $LN4+58
	DD	imagerel $unwind$?init@ORBIT@XGK@@YAXPEAUOrbit@2@PEAUObject@2@PEAUTransition@2@@Z
pdata	ENDS
;	COMDAT pdata
pdata	SEGMENT
$pdata$?update@ORBIT@XGK@@YAXPEAUOrbit@2@@Z DD imagerel $LN4
	DD	imagerel $LN4+54
	DD	imagerel $unwind$?update@ORBIT@XGK@@YAXPEAUOrbit@2@@Z
pdata	ENDS
;	COMDAT pdata
pdata	SEGMENT
$pdata$?rotate@ORBIT@XGK@@YAXPEAUOrbit@2@@Z DD imagerel $LN4
	DD	imagerel $LN4+72
	DD	imagerel $unwind$?rotate@ORBIT@XGK@@YAXPEAUOrbit@2@@Z
pdata	ENDS
;	COMDAT __real@447a0000
CONST	SEGMENT
__real@447a0000 DD 0447a0000r			; 1000
CONST	ENDS
;	COMDAT xdata
xdata	SEGMENT
$unwind$?rotate@ORBIT@XGK@@YAXPEAUOrbit@2@@Z DD 020601H
	DD	030023206H
xdata	ENDS
;	COMDAT xdata
xdata	SEGMENT
$unwind$?update@ORBIT@XGK@@YAXPEAUOrbit@2@@Z DD 020601H
	DD	030023206H
xdata	ENDS
;	COMDAT xdata
xdata	SEGMENT
$unwind$?init@ORBIT@XGK@@YAXPEAUOrbit@2@PEAUObject@2@PEAUTransition@2@@Z DD 020601H
	DD	030023206H
xdata	ENDS
; Function compile flags: /Ogtpy
;	COMDAT ?move@ORBIT@XGK@@YAXPEAUOrbit@2@PEAUTime@2@MMP6AXMPEAX@Z@Z
_TEXT	SEGMENT
orbit_addr$ = 8
time$ = 16
movement_x$ = 24
movement_y$ = 32
test$ = 40
?move@ORBIT@XGK@@YAXPEAUOrbit@2@PEAUTime@2@MMP6AXMPEAX@Z@Z PROC ; XGK::ORBIT::move, COMDAT
; File E:\reps\denis-belov\xgk\src\orbit\orbit.cpp
; Line 68
	mov	rax, QWORD PTR [rcx+128]
	mov	r8, rdx
; Line 70
	mov	rdx, QWORD PTR [rcx+136]
	mov	r9, QWORD PTR test$[rsp]
	movss	xmm2, DWORD PTR __real@447a0000
	movups	xmm0, XMMWORD PTR [rax+64]
	movups	XMMWORD PTR [rcx+160], xmm0
	mov	rcx, r8
	jmp	?setTransition2@TIME@XGK@@YAXPEAUTime@2@PEAUTransition@2@MP6AXMPEAX@Z@Z ; XGK::TIME::setTransition2
?move@ORBIT@XGK@@YAXPEAUOrbit@2@PEAUTime@2@MMP6AXMPEAX@Z@Z ENDP ; XGK::ORBIT::move
_TEXT	ENDS
; Function compile flags: /Ogtpy
;	COMDAT ?rotate@ORBIT@XGK@@YAXPEAUOrbit@2@@Z
_TEXT	SEGMENT
orbit_addr$ = 48
?rotate@ORBIT@XGK@@YAXPEAUOrbit@2@@Z PROC		; XGK::ORBIT::rotate, COMDAT
; File E:\reps\denis-belov\xgk\src\orbit\orbit.cpp
; Line 41
$LN4:
	push	rbx
	sub	rsp, 32					; 00000020H
; Line 43
	mov	rax, QWORD PTR [rcx+128]
	mov	rbx, rcx
	movups	xmm0, XMMWORD PTR [rcx+160]
	movups	XMMWORD PTR [rax+64], xmm0
; Line 45
	movss	xmm1, DWORD PTR [rcx+144]
	mov	rcx, QWORD PTR [rcx+128]
	call	?postRotX@OBJECT@XGK@@YAXPEAUObject@2@M@Z ; XGK::OBJECT::postRotX
; Line 46
	movss	xmm1, DWORD PTR [rbx+148]
	mov	rcx, QWORD PTR [rbx+128]
; Line 47
	add	rsp, 32					; 00000020H
	pop	rbx
; Line 46
	jmp	?preRotY@OBJECT@XGK@@YAXPEAUObject@2@M@Z ; XGK::OBJECT::preRotY
?rotate@ORBIT@XGK@@YAXPEAUOrbit@2@@Z ENDP		; XGK::ORBIT::rotate
_TEXT	ENDS
; Function compile flags: /Ogtpy
;	COMDAT ?update@ORBIT@XGK@@YAXPEAUOrbit@2@@Z
_TEXT	SEGMENT
orbit_addr$ = 48
?update@ORBIT@XGK@@YAXPEAUOrbit@2@@Z PROC		; XGK::ORBIT::update, COMDAT
; File E:\reps\denis-belov\xgk\src\orbit\orbit.cpp
; Line 31
$LN4:
	push	rbx
	sub	rsp, 32					; 00000020H
	mov	rbx, rcx
; Line 33
	mov	rcx, QWORD PTR [rcx+128]
	call	?update2@OBJECT@XGK@@YAXPEAUObject@2@@Z	; XGK::OBJECT::update2
; Line 35
	mov	rcx, QWORD PTR [rbx+128]
	call	QWORD PTR ?invns@MAT4@DATA@XGK@@3P6AXPEAX@ZEA ; XGK::DATA::MAT4::invns
; Line 36
	mov	rdx, QWORD PTR [rbx+128]
	mov	rcx, rbx
; Line 37
	add	rsp, 32					; 00000020H
	pop	rbx
; Line 36
	jmp	?copy@MAT4@DATA@XGK@@YAXPEAX0@Z		; XGK::DATA::MAT4::copy
?update@ORBIT@XGK@@YAXPEAUOrbit@2@@Z ENDP		; XGK::ORBIT::update
_TEXT	ENDS
; Function compile flags: /Ogtpy
;	COMDAT ?init@ORBIT@XGK@@YAXPEAUOrbit@2@PEAUObject@2@PEAUTransition@2@@Z
_TEXT	SEGMENT
orbit_addr$ = 48
object_addr$ = 56
transition_addr$ = 64
?init@ORBIT@XGK@@YAXPEAUOrbit@2@PEAUObject@2@PEAUTransition@2@@Z PROC ; XGK::ORBIT::init, COMDAT
; File E:\reps\denis-belov\xgk\src\orbit\orbit.cpp
; Line 16
$LN4:
	push	rbx
	sub	rsp, 32					; 00000020H
; Line 18
	mov	QWORD PTR [rcx+128], rdx
; Line 21
	xor	eax, eax
	mov	QWORD PTR [rcx+136], r8
	mov	rbx, rcx
	mov	QWORD PTR [r8+24], rcx
	mov	QWORD PTR [rcx+144], rax
; Line 24
	call	?ident@MAT4@DATA@XGK@@YAXPEAX@Z		; XGK::DATA::MAT4::ident
; Line 26
	mov	rcx, QWORD PTR [rbx+128]
; Line 27
	add	rsp, 32					; 00000020H
	pop	rbx
; Line 26
	jmp	?init@OBJECT@XGK@@YAXPEAUObject@2@@Z	; XGK::OBJECT::init
?init@ORBIT@XGK@@YAXPEAUOrbit@2@PEAUObject@2@PEAUTransition@2@@Z ENDP ; XGK::ORBIT::init
_TEXT	ENDS
END
