; Listing generated by Microsoft (R) Optimizing Compiler Version 19.23.28106.4 

include listing.inc

INCLUDELIB MSVCRT
INCLUDELIB OLDNAMES

PUBLIC	?floor@@YAMM@Z					; floor
PUBLIC	?max@?$numeric_limits@_J@std@@SA_JXZ		; std::numeric_limits<__int64>::max
PUBLIC	??0exception@std@@QEAA@QEBDH@Z			; std::exception::exception
PUBLIC	??0exception@std@@QEAA@AEBV01@@Z		; std::exception::exception
PUBLIC	??1exception@std@@UEAA@XZ			; std::exception::~exception
PUBLIC	?what@exception@std@@UEBAPEBDXZ			; std::exception::what
PUBLIC	??_Gexception@std@@UEAAPEAXI@Z			; std::exception::`scalar deleting destructor'
PUBLIC	??0bad_alloc@std@@AEAA@QEBD@Z			; std::bad_alloc::bad_alloc
PUBLIC	??1bad_alloc@std@@UEAA@XZ			; std::bad_alloc::~bad_alloc
PUBLIC	??0bad_alloc@std@@QEAA@AEBV01@@Z		; std::bad_alloc::bad_alloc
PUBLIC	??_Gbad_alloc@std@@UEAAPEAXI@Z			; std::bad_alloc::`scalar deleting destructor'
PUBLIC	??0bad_array_new_length@std@@QEAA@XZ		; std::bad_array_new_length::bad_array_new_length
PUBLIC	??1bad_array_new_length@std@@UEAA@XZ		; std::bad_array_new_length::~bad_array_new_length
PUBLIC	??0bad_array_new_length@std@@QEAA@AEBV01@@Z	; std::bad_array_new_length::bad_array_new_length
PUBLIC	??_Gbad_array_new_length@std@@UEAAPEAXI@Z	; std::bad_array_new_length::`scalar deleting destructor'
PUBLIC	?_Throw_bad_array_new_length@std@@YAXXZ		; std::_Throw_bad_array_new_length
PUBLIC	?_Allocate@_Default_allocate_traits@std@@SAPEAX_K@Z ; std::_Default_allocate_traits::_Allocate
PUBLIC	?_Adjust_manually_vector_aligned@std@@YAXAEAPEAXAEA_K@Z ; std::_Adjust_manually_vector_aligned
PUBLIC	?_Orphan_all@_Container_base0@std@@QEAAXXZ	; std::_Container_base0::_Orphan_all
PUBLIC	?deallocate@?$allocator@PEAUTransition@XGK@@@std@@QEAAXQEAPEAUTransition@XGK@@_K@Z ; std::allocator<XGK::Transition *>::deallocate
PUBLIC	?allocate@?$allocator@PEAUTransition@XGK@@@std@@QEAAPEAPEAUTransition@XGK@@_K@Z ; std::allocator<XGK::Transition *>::allocate
PUBLIC	?max_size@?$_Default_allocator_traits@V?$allocator@PEAUTransition@XGK@@@std@@@std@@SA_KAEBV?$allocator@PEAUTransition@XGK@@@2@@Z ; std::_Default_allocator_traits<std::allocator<XGK::Transition *> >::max_size
PUBLIC	?resize@?$vector@PEAUTransition@XGK@@V?$allocator@PEAUTransition@XGK@@@std@@@std@@QEAAX_K@Z ; std::vector<XGK::Transition *,std::allocator<XGK::Transition *> >::resize
PUBLIC	?data@?$vector@PEAUTransition@XGK@@V?$allocator@PEAUTransition@XGK@@@std@@@std@@QEAAPEAPEAUTransition@XGK@@XZ ; std::vector<XGK::Transition *,std::allocator<XGK::Transition *> >::data
PUBLIC	?max_size@?$vector@PEAUTransition@XGK@@V?$allocator@PEAUTransition@XGK@@@std@@@std@@QEBA_KXZ ; std::vector<XGK::Transition *,std::allocator<XGK::Transition *> >::max_size
PUBLIC	?capacity@?$vector@PEAUTransition@XGK@@V?$allocator@PEAUTransition@XGK@@@std@@@std@@QEBA_KXZ ; std::vector<XGK::Transition *,std::allocator<XGK::Transition *> >::capacity
PUBLIC	?_Ufill@?$vector@PEAUTransition@XGK@@V?$allocator@PEAUTransition@XGK@@@std@@@std@@AEAAPEAPEAUTransition@XGK@@PEAPEAU34@_KU_Value_init_tag@2@@Z ; std::vector<XGK::Transition *,std::allocator<XGK::Transition *> >::_Ufill
PUBLIC	?_Umove_if_noexcept1@?$vector@PEAUTransition@XGK@@V?$allocator@PEAUTransition@XGK@@@std@@@std@@AEAAXPEAPEAUTransition@XGK@@00U?$integral_constant@_N$00@2@@Z ; std::vector<XGK::Transition *,std::allocator<XGK::Transition *> >::_Umove_if_noexcept1
PUBLIC	?_Umove_if_noexcept@?$vector@PEAUTransition@XGK@@V?$allocator@PEAUTransition@XGK@@@std@@@std@@AEAAXPEAPEAUTransition@XGK@@00@Z ; std::vector<XGK::Transition *,std::allocator<XGK::Transition *> >::_Umove_if_noexcept
PUBLIC	?_Destroy@?$vector@PEAUTransition@XGK@@V?$allocator@PEAUTransition@XGK@@@std@@@std@@AEAAXPEAPEAUTransition@XGK@@0@Z ; std::vector<XGK::Transition *,std::allocator<XGK::Transition *> >::_Destroy
PUBLIC	?_Calculate_growth@?$vector@PEAUTransition@XGK@@V?$allocator@PEAUTransition@XGK@@@std@@@std@@AEBA_K_K@Z ; std::vector<XGK::Transition *,std::allocator<XGK::Transition *> >::_Calculate_growth
PUBLIC	?_Change_array@?$vector@PEAUTransition@XGK@@V?$allocator@PEAUTransition@XGK@@@std@@@std@@AEAAXQEAPEAUTransition@XGK@@_K1@Z ; std::vector<XGK::Transition *,std::allocator<XGK::Transition *> >::_Change_array
PUBLIC	?_Xlength@?$vector@PEAUTransition@XGK@@V?$allocator@PEAUTransition@XGK@@@std@@@std@@CAXXZ ; std::vector<XGK::Transition *,std::allocator<XGK::Transition *> >::_Xlength
PUBLIC	?_Orphan_range@?$vector@PEAUTransition@XGK@@V?$allocator@PEAUTransition@XGK@@@std@@@std@@AEBAXPEAPEAUTransition@XGK@@0@Z ; std::vector<XGK::Transition *,std::allocator<XGK::Transition *> >::_Orphan_range
PUBLIC	?_Getal@?$vector@PEAUTransition@XGK@@V?$allocator@PEAUTransition@XGK@@@std@@@std@@AEAAAEAV?$allocator@PEAUTransition@XGK@@@2@XZ ; std::vector<XGK::Transition *,std::allocator<XGK::Transition *> >::_Getal
PUBLIC	?_Getal@?$vector@PEAUTransition@XGK@@V?$allocator@PEAUTransition@XGK@@@std@@@std@@AEBAAEBV?$allocator@PEAUTransition@XGK@@@2@XZ ; std::vector<XGK::Transition *,std::allocator<XGK::Transition *> >::_Getal
PUBLIC	?_Get_first@?$_Compressed_pair@V?$allocator@PEAUTransition@XGK@@@std@@V?$_Vector_val@U?$_Simple_types@PEAUTransition@XGK@@@std@@@2@$00@std@@QEAAAEAV?$allocator@PEAUTransition@XGK@@@2@XZ ; std::_Compressed_pair<std::allocator<XGK::Transition *>,std::_Vector_val<std::_Simple_types<XGK::Transition *> >,1>::_Get_first
PUBLIC	?_Get_first@?$_Compressed_pair@V?$allocator@PEAUTransition@XGK@@@std@@V?$_Vector_val@U?$_Simple_types@PEAUTransition@XGK@@@std@@@2@$00@std@@QEBAAEBV?$allocator@PEAUTransition@XGK@@@2@XZ ; std::_Compressed_pair<std::allocator<XGK::Transition *>,std::_Vector_val<std::_Simple_types<XGK::Transition *> >,1>::_Get_first
PUBLIC	?getWallTime@@YAMXZ				; getWallTime
PUBLIC	?idle_function@XGK@@YAXMPEAX@Z			; XGK::idle_function
PUBLIC	?init@TIME@XGK@@YAXPEAUTime@2@_K@Z		; XGK::TIME::init
PUBLIC	?cancelTransition@TIME@XGK@@YAXPEAUTime@2@PEAUTransition@2@@Z ; XGK::TIME::cancelTransition
PUBLIC	?cancelTransition2@TIME@XGK@@YAXPEAUTime@2@PEAUTransition@2@@Z ; XGK::TIME::cancelTransition2
PUBLIC	?setTransition@TIME@XGK@@YAXPEAUTime@2@PEAUTransition@2@MP6AXMPEAX@Z3@Z ; XGK::TIME::setTransition
PUBLIC	?setTransition2@TIME@XGK@@YAXPEAUTime@2@PEAUTransition@2@MP6AXMPEAX@Z@Z ; XGK::TIME::setTransition2
PUBLIC	?updateTransition@TIME@XGK@@YAXPEAUTime@2@PEAUTransition@2@@Z ; XGK::TIME::updateTransition
PUBLIC	?updateTransitions@TIME@XGK@@YAXPEAUTime@2@@Z	; XGK::TIME::updateTransitions
PUBLIC	?getFrameTime@TIME@XGK@@YAXPEAUTime@2@@Z	; XGK::TIME::getFrameTime
PUBLIC	??$_Unfancy_maybe_null@PEAUTransition@XGK@@@std@@YAPEAPEAUTransition@XGK@@PEAPEAU12@@Z ; std::_Unfancy_maybe_null<XGK::Transition *>
PUBLIC	??$_Resize@U_Value_init_tag@std@@@?$vector@PEAUTransition@XGK@@V?$allocator@PEAUTransition@XGK@@@std@@@std@@AEAAX_KAEBU_Value_init_tag@1@@Z ; std::vector<XGK::Transition *,std::allocator<XGK::Transition *> >::_Resize<std::_Value_init_tag>
PUBLIC	??$_Resize_reallocate@U_Value_init_tag@std@@@?$vector@PEAUTransition@XGK@@V?$allocator@PEAUTransition@XGK@@@std@@@std@@AEAAX_KAEBU_Value_init_tag@1@@Z ; std::vector<XGK::Transition *,std::allocator<XGK::Transition *> >::_Resize_reallocate<std::_Value_init_tag>
PUBLIC	??$_Destroy_range@V?$allocator@PEAUTransition@XGK@@@std@@@std@@YAXPEAPEAUTransition@XGK@@QEAPEAU12@AEAV?$allocator@PEAUTransition@XGK@@@0@@Z ; std::_Destroy_range<std::allocator<XGK::Transition *> >
PUBLIC	??$_Uninitialized_value_construct_n@V?$allocator@PEAUTransition@XGK@@@std@@@std@@YAPEAPEAUTransition@XGK@@PEAPEAU12@_KAEAV?$allocator@PEAUTransition@XGK@@@0@@Z ; std::_Uninitialized_value_construct_n<std::allocator<XGK::Transition *> >
PUBLIC	??$_Unfancy@PEAUTransition@XGK@@@std@@YAPEAPEAUTransition@XGK@@PEAPEAU12@@Z ; std::_Unfancy<XGK::Transition *>
PUBLIC	??$_Zero_range@PEAPEAUTransition@XGK@@@std@@YAPEAPEAUTransition@XGK@@QEAPEAU12@0@Z ; std::_Zero_range<XGK::Transition * *>
PUBLIC	??$_Min_value@_K@std@@YAAEB_KAEB_K0@Z		; std::_Min_value<unsigned __int64>
PUBLIC	??$_Get_size_of_n@$07@std@@YA_K_K@Z		; std::_Get_size_of_n<8>
PUBLIC	??$_Allocate@$0BA@U_Default_allocate_traits@std@@$0A@@std@@YAPEAX_K@Z ; std::_Allocate<16,std::_Default_allocate_traits,0>
PUBLIC	??$_Deallocate@$0BA@$0A@@std@@YAXPEAX_K@Z	; std::_Deallocate<16,0>
PUBLIC	??$_Uninitialized_move@PEAPEAUTransition@XGK@@V?$allocator@PEAUTransition@XGK@@@std@@@std@@YAPEAPEAUTransition@XGK@@QEAPEAU12@0PEAPEAU12@AEAV?$allocator@PEAUTransition@XGK@@@0@@Z ; std::_Uninitialized_move<XGK::Transition * *,std::allocator<XGK::Transition *> >
PUBLIC	??$_Allocate_manually_vector_aligned@U_Default_allocate_traits@std@@@std@@YAPEAX_K@Z ; std::_Allocate_manually_vector_aligned<std::_Default_allocate_traits>
PUBLIC	??$_Get_unwrapped@PEAUTransition@XGK@@@std@@YAPEAPEAUTransition@XGK@@QEAPEAU12@@Z ; std::_Get_unwrapped<XGK::Transition *>
PUBLIC	??$_Copy_memmove@PEAPEAUTransition@XGK@@PEAPEAU12@@std@@YAPEAPEAUTransition@XGK@@PEAPEAU12@00@Z ; std::_Copy_memmove<XGK::Transition * *,XGK::Transition * *>
PUBLIC	??_7exception@std@@6B@				; std::exception::`vftable'
PUBLIC	??_C@_0BC@EOODALEL@Unknown?5exception@		; `string'
PUBLIC	??_7bad_alloc@std@@6B@				; std::bad_alloc::`vftable'
PUBLIC	??_7bad_array_new_length@std@@6B@		; std::bad_array_new_length::`vftable'
PUBLIC	??_C@_0BF@KINCDENJ@bad?5array?5new?5length@	; `string'
PUBLIC	_TI3?AVbad_array_new_length@std@@
PUBLIC	_CTA3?AVbad_array_new_length@std@@
PUBLIC	??_R0?AVbad_array_new_length@std@@@8		; std::bad_array_new_length `RTTI Type Descriptor'
PUBLIC	_CT??_R0?AVbad_array_new_length@std@@@8??0bad_array_new_length@std@@QEAA@AEBV01@@Z24
PUBLIC	??_R0?AVbad_alloc@std@@@8			; std::bad_alloc `RTTI Type Descriptor'
PUBLIC	_CT??_R0?AVbad_alloc@std@@@8??0bad_alloc@std@@QEAA@AEBV01@@Z24
PUBLIC	??_R0?AVexception@std@@@8			; std::exception `RTTI Type Descriptor'
PUBLIC	_CT??_R0?AVexception@std@@@8??0exception@std@@QEAA@AEBV01@@Z24
PUBLIC	??_C@_0BD@OLBABOEK@vector?$DMT?$DO?5too?5long@	; `string'
PUBLIC	??_R4exception@std@@6B@				; std::exception::`RTTI Complete Object Locator'
PUBLIC	??_R3exception@std@@8				; std::exception::`RTTI Class Hierarchy Descriptor'
PUBLIC	??_R2exception@std@@8				; std::exception::`RTTI Base Class Array'
PUBLIC	??_R1A@?0A@EA@exception@std@@8			; std::exception::`RTTI Base Class Descriptor at (0,-1,0,64)'
PUBLIC	??_R4bad_alloc@std@@6B@				; std::bad_alloc::`RTTI Complete Object Locator'
PUBLIC	??_R3bad_alloc@std@@8				; std::bad_alloc::`RTTI Class Hierarchy Descriptor'
PUBLIC	??_R2bad_alloc@std@@8				; std::bad_alloc::`RTTI Base Class Array'
PUBLIC	??_R1A@?0A@EA@bad_alloc@std@@8			; std::bad_alloc::`RTTI Base Class Descriptor at (0,-1,0,64)'
PUBLIC	??_R4bad_array_new_length@std@@6B@		; std::bad_array_new_length::`RTTI Complete Object Locator'
PUBLIC	??_R3bad_array_new_length@std@@8		; std::bad_array_new_length::`RTTI Class Hierarchy Descriptor'
PUBLIC	??_R2bad_array_new_length@std@@8		; std::bad_array_new_length::`RTTI Base Class Array'
PUBLIC	??_R1A@?0A@EA@bad_array_new_length@std@@8	; std::bad_array_new_length::`RTTI Base Class Descriptor at (0,-1,0,64)'
PUBLIC	__real@447a0000
EXTRN	??2@YAPEAX_K@Z:PROC				; operator new
EXTRN	??3@YAXPEAX_K@Z:PROC				; operator delete
EXTRN	__imp__invalid_parameter_noinfo_noreturn:PROC
EXTRN	__imp_QueryPerformanceCounter:PROC
EXTRN	__imp_QueryPerformanceFrequency:PROC
EXTRN	__std_exception_copy:PROC
EXTRN	__std_exception_destroy:PROC
EXTRN	??_Eexception@std@@UEAAPEAXI@Z:PROC		; std::exception::`vector deleting destructor'
EXTRN	??_Ebad_alloc@std@@UEAAPEAXI@Z:PROC		; std::bad_alloc::`vector deleting destructor'
EXTRN	??_Ebad_array_new_length@std@@UEAAPEAXI@Z:PROC	; std::bad_array_new_length::`vector deleting destructor'
EXTRN	?_Xlength_error@std@@YAXPEBD@Z:PROC		; std::_Xlength_error
EXTRN	_CxxThrowException:PROC
EXTRN	__CxxFrameHandler4:PROC
EXTRN	floorf:PROC
EXTRN	memmove:PROC
EXTRN	memset:PROC
EXTRN	??_7type_info@@6B@:BYTE				; type_info::`vftable'
EXTRN	_fltused:DWORD
;	COMDAT pdata
pdata	SEGMENT
$pdata$??0exception@std@@QEAA@AEBV01@@Z DD imagerel $LN5
	DD	imagerel $LN5+50
	DD	imagerel $unwind$??0exception@std@@QEAA@AEBV01@@Z
pdata	ENDS
;	COMDAT pdata
pdata	SEGMENT
$pdata$??_Gexception@std@@UEAAPEAXI@Z DD imagerel $LN9
	DD	imagerel $LN9+66
	DD	imagerel $unwind$??_Gexception@std@@UEAAPEAXI@Z
pdata	ENDS
;	COMDAT pdata
pdata	SEGMENT
$pdata$??0bad_alloc@std@@QEAA@AEBV01@@Z DD imagerel $LN7
	DD	imagerel $LN7+60
	DD	imagerel $unwind$??0bad_alloc@std@@QEAA@AEBV01@@Z
pdata	ENDS
;	COMDAT pdata
pdata	SEGMENT
$pdata$??_Gbad_alloc@std@@UEAAPEAXI@Z DD imagerel $LN12
	DD	imagerel $LN12+66
	DD	imagerel $unwind$??_Gbad_alloc@std@@UEAAPEAXI@Z
pdata	ENDS
;	COMDAT pdata
pdata	SEGMENT
$pdata$??0bad_array_new_length@std@@QEAA@AEBV01@@Z DD imagerel $LN10
	DD	imagerel $LN10+60
	DD	imagerel $unwind$??0bad_array_new_length@std@@QEAA@AEBV01@@Z
pdata	ENDS
;	COMDAT pdata
pdata	SEGMENT
$pdata$??_Gbad_array_new_length@std@@UEAAPEAXI@Z DD imagerel $LN15
	DD	imagerel $LN15+66
	DD	imagerel $unwind$??_Gbad_array_new_length@std@@UEAAPEAXI@Z
pdata	ENDS
;	COMDAT pdata
pdata	SEGMENT
$pdata$?_Throw_bad_array_new_length@std@@YAXXZ DD imagerel $LN4
	DD	imagerel $LN4+32
	DD	imagerel $unwind$?_Throw_bad_array_new_length@std@@YAXXZ
pdata	ENDS
;	COMDAT pdata
pdata	SEGMENT
$pdata$?_Adjust_manually_vector_aligned@std@@YAXAEAPEAXAEA_K@Z DD imagerel $LN13
	DD	imagerel $LN13+43
	DD	imagerel $unwind$?_Adjust_manually_vector_aligned@std@@YAXAEAPEAXAEA_K@Z
pdata	ENDS
;	COMDAT pdata
pdata	SEGMENT
$pdata$?deallocate@?$allocator@PEAUTransition@XGK@@@std@@QEAAXQEAPEAUTransition@XGK@@_K@Z DD imagerel $LN21
	DD	imagerel $LN21+67
	DD	imagerel $unwind$?deallocate@?$allocator@PEAUTransition@XGK@@@std@@QEAAXQEAPEAUTransition@XGK@@_K@Z
pdata	ENDS
;	COMDAT pdata
pdata	SEGMENT
$pdata$?allocate@?$allocator@PEAUTransition@XGK@@@std@@QEAAPEAPEAUTransition@XGK@@_K@Z DD imagerel $LN30
	DD	imagerel $LN30+112
	DD	imagerel $unwind$?allocate@?$allocator@PEAUTransition@XGK@@@std@@QEAAPEAPEAUTransition@XGK@@_K@Z
pdata	ENDS
;	COMDAT pdata
pdata	SEGMENT
$pdata$?resize@?$vector@PEAUTransition@XGK@@V?$allocator@PEAUTransition@XGK@@@std@@@std@@QEAAX_K@Z DD imagerel $LN16
	DD	imagerel $LN16+104
	DD	imagerel $unwind$?resize@?$vector@PEAUTransition@XGK@@V?$allocator@PEAUTransition@XGK@@@std@@@std@@QEAAX_K@Z
pdata	ENDS
;	COMDAT pdata
pdata	SEGMENT
$pdata$0$?resize@?$vector@PEAUTransition@XGK@@V?$allocator@PEAUTransition@XGK@@@std@@@std@@QEAAX_K@Z DD imagerel $LN16+104
	DD	imagerel $LN16+143
	DD	imagerel $chain$0$?resize@?$vector@PEAUTransition@XGK@@V?$allocator@PEAUTransition@XGK@@@std@@@std@@QEAAX_K@Z
pdata	ENDS
;	COMDAT pdata
pdata	SEGMENT
$pdata$1$?resize@?$vector@PEAUTransition@XGK@@V?$allocator@PEAUTransition@XGK@@@std@@@std@@QEAAX_K@Z DD imagerel $LN16+143
	DD	imagerel $LN16+154
	DD	imagerel $chain$1$?resize@?$vector@PEAUTransition@XGK@@V?$allocator@PEAUTransition@XGK@@@std@@@std@@QEAAX_K@Z
pdata	ENDS
;	COMDAT pdata
pdata	SEGMENT
$pdata$?_Ufill@?$vector@PEAUTransition@XGK@@V?$allocator@PEAUTransition@XGK@@@std@@@std@@AEAAPEAPEAUTransition@XGK@@PEAPEAU34@_KU_Value_init_tag@2@@Z DD imagerel $LN8
	DD	imagerel $LN8+49
	DD	imagerel $unwind$?_Ufill@?$vector@PEAUTransition@XGK@@V?$allocator@PEAUTransition@XGK@@@std@@@std@@AEAAPEAPEAUTransition@XGK@@PEAPEAU34@_KU_Value_init_tag@2@@Z
pdata	ENDS
;	COMDAT pdata
pdata	SEGMENT
$pdata$?_Change_array@?$vector@PEAUTransition@XGK@@V?$allocator@PEAUTransition@XGK@@@std@@@std@@AEAAXQEAPEAUTransition@XGK@@_K1@Z DD imagerel $LN25
	DD	imagerel $LN25+136
	DD	imagerel $unwind$?_Change_array@?$vector@PEAUTransition@XGK@@V?$allocator@PEAUTransition@XGK@@@std@@@std@@AEAAXQEAPEAUTransition@XGK@@_K1@Z
pdata	ENDS
;	COMDAT pdata
pdata	SEGMENT
$pdata$?_Xlength@?$vector@PEAUTransition@XGK@@V?$allocator@PEAUTransition@XGK@@@std@@@std@@CAXXZ DD imagerel $LN4
	DD	imagerel $LN4+17
	DD	imagerel $unwind$?_Xlength@?$vector@PEAUTransition@XGK@@V?$allocator@PEAUTransition@XGK@@@std@@@std@@CAXXZ
pdata	ENDS
;	COMDAT pdata
pdata	SEGMENT
$pdata$?getWallTime@@YAMXZ DD imagerel $LN7
	DD	imagerel $LN7+71
	DD	imagerel $unwind$?getWallTime@@YAMXZ
pdata	ENDS
;	COMDAT pdata
pdata	SEGMENT
$pdata$?init@TIME@XGK@@YAXPEAUTime@2@_K@Z DD imagerel $LN25
	DD	imagerel $LN25+272
	DD	imagerel $unwind$?init@TIME@XGK@@YAXPEAUTime@2@_K@Z
pdata	ENDS
;	COMDAT pdata
pdata	SEGMENT
$pdata$?updateTransition@TIME@XGK@@YAXPEAUTime@2@PEAUTransition@2@@Z DD imagerel $LN12
	DD	imagerel $LN12+164
	DD	imagerel $unwind$?updateTransition@TIME@XGK@@YAXPEAUTime@2@PEAUTransition@2@@Z
pdata	ENDS
;	COMDAT pdata
pdata	SEGMENT
$pdata$?updateTransitions@TIME@XGK@@YAXPEAUTime@2@@Z DD imagerel $LN21
	DD	imagerel $LN21+32
	DD	imagerel $unwind$?updateTransitions@TIME@XGK@@YAXPEAUTime@2@@Z
pdata	ENDS
;	COMDAT pdata
pdata	SEGMENT
$pdata$3$?updateTransitions@TIME@XGK@@YAXPEAUTime@2@@Z DD imagerel $LN21+32
	DD	imagerel $LN21+225
	DD	imagerel $chain$3$?updateTransitions@TIME@XGK@@YAXPEAUTime@2@@Z
pdata	ENDS
;	COMDAT pdata
pdata	SEGMENT
$pdata$4$?updateTransitions@TIME@XGK@@YAXPEAUTime@2@@Z DD imagerel $LN21+225
	DD	imagerel $LN21+236
	DD	imagerel $chain$4$?updateTransitions@TIME@XGK@@YAXPEAUTime@2@@Z
pdata	ENDS
;	COMDAT pdata
pdata	SEGMENT
$pdata$?getFrameTime@TIME@XGK@@YAXPEAUTime@2@@Z DD imagerel $LN8
	DD	imagerel $LN8+100
	DD	imagerel $unwind$?getFrameTime@TIME@XGK@@YAXPEAUTime@2@@Z
pdata	ENDS
;	COMDAT pdata
pdata	SEGMENT
$pdata$??$_Resize@U_Value_init_tag@std@@@?$vector@PEAUTransition@XGK@@V?$allocator@PEAUTransition@XGK@@@std@@@std@@AEAAX_KAEBU_Value_init_tag@1@@Z DD imagerel $LN14
	DD	imagerel $LN14+93
	DD	imagerel $unwind$??$_Resize@U_Value_init_tag@std@@@?$vector@PEAUTransition@XGK@@V?$allocator@PEAUTransition@XGK@@@std@@@std@@AEAAX_KAEBU_Value_init_tag@1@@Z
pdata	ENDS
;	COMDAT pdata
pdata	SEGMENT
$pdata$0$??$_Resize@U_Value_init_tag@std@@@?$vector@PEAUTransition@XGK@@V?$allocator@PEAUTransition@XGK@@@std@@@std@@AEAAX_KAEBU_Value_init_tag@1@@Z DD imagerel $LN14+93
	DD	imagerel $LN14+132
	DD	imagerel $chain$0$??$_Resize@U_Value_init_tag@std@@@?$vector@PEAUTransition@XGK@@V?$allocator@PEAUTransition@XGK@@@std@@@std@@AEAAX_KAEBU_Value_init_tag@1@@Z
pdata	ENDS
;	COMDAT pdata
pdata	SEGMENT
$pdata$1$??$_Resize@U_Value_init_tag@std@@@?$vector@PEAUTransition@XGK@@V?$allocator@PEAUTransition@XGK@@@std@@@std@@AEAAX_KAEBU_Value_init_tag@1@@Z DD imagerel $LN14+132
	DD	imagerel $LN14+143
	DD	imagerel $chain$1$??$_Resize@U_Value_init_tag@std@@@?$vector@PEAUTransition@XGK@@V?$allocator@PEAUTransition@XGK@@@std@@@std@@AEAAX_KAEBU_Value_init_tag@1@@Z
pdata	ENDS
;	COMDAT pdata
pdata	SEGMENT
$pdata$??$_Resize_reallocate@U_Value_init_tag@std@@@?$vector@PEAUTransition@XGK@@V?$allocator@PEAUTransition@XGK@@@std@@@std@@AEAAX_KAEBU_Value_init_tag@1@@Z DD imagerel $LN83
	DD	imagerel $LN83+344
	DD	imagerel $unwind$??$_Resize_reallocate@U_Value_init_tag@std@@@?$vector@PEAUTransition@XGK@@V?$allocator@PEAUTransition@XGK@@@std@@@std@@AEAAX_KAEBU_Value_init_tag@1@@Z
pdata	ENDS
;	COMDAT pdata
pdata	SEGMENT
$pdata$?catch$0@?0???$_Resize_reallocate@U_Value_init_tag@std@@@?$vector@PEAUTransition@XGK@@V?$allocator@PEAUTransition@XGK@@@std@@@std@@AEAAX_KAEBU_Value_init_tag@1@@Z@4HA DD imagerel ?catch$0@?0???$_Resize_reallocate@U_Value_init_tag@std@@@?$vector@PEAUTransition@XGK@@V?$allocator@PEAUTransition@XGK@@@std@@@std@@AEAAX_KAEBU_Value_init_tag@1@@Z@4HA
	DD	imagerel ?catch$0@?0???$_Resize_reallocate@U_Value_init_tag@std@@@?$vector@PEAUTransition@XGK@@V?$allocator@PEAUTransition@XGK@@@std@@@std@@AEAAX_KAEBU_Value_init_tag@1@@Z@4HA+48
	DD	imagerel $unwind$?catch$0@?0???$_Resize_reallocate@U_Value_init_tag@std@@@?$vector@PEAUTransition@XGK@@V?$allocator@PEAUTransition@XGK@@@std@@@std@@AEAAX_KAEBU_Value_init_tag@1@@Z@4HA
pdata	ENDS
;	COMDAT pdata
pdata	SEGMENT
$pdata$??$_Uninitialized_value_construct_n@V?$allocator@PEAUTransition@XGK@@@std@@@std@@YAPEAPEAUTransition@XGK@@PEAPEAU12@_KAEAV?$allocator@PEAUTransition@XGK@@@0@@Z DD imagerel $LN6
	DD	imagerel $LN6+46
	DD	imagerel $unwind$??$_Uninitialized_value_construct_n@V?$allocator@PEAUTransition@XGK@@@std@@@std@@YAPEAPEAUTransition@XGK@@PEAPEAU12@_KAEAV?$allocator@PEAUTransition@XGK@@@0@@Z
pdata	ENDS
;	COMDAT pdata
pdata	SEGMENT
$pdata$??$_Zero_range@PEAPEAUTransition@XGK@@@std@@YAPEAPEAUTransition@XGK@@QEAPEAU12@0@Z DD imagerel $LN4
	DD	imagerel $LN4+31
	DD	imagerel $unwind$??$_Zero_range@PEAPEAUTransition@XGK@@@std@@YAPEAPEAUTransition@XGK@@QEAPEAU12@0@Z
pdata	ENDS
;	COMDAT pdata
pdata	SEGMENT
$pdata$??$_Get_size_of_n@$07@std@@YA_K_K@Z DD imagerel $LN7
	DD	imagerel $LN7+38
	DD	imagerel $unwind$??$_Get_size_of_n@$07@std@@YA_K_K@Z
pdata	ENDS
;	COMDAT pdata
pdata	SEGMENT
$pdata$??$_Allocate@$0BA@U_Default_allocate_traits@std@@$0A@@std@@YAPEAX_K@Z DD imagerel $LN24
	DD	imagerel $LN24+89
	DD	imagerel $unwind$??$_Allocate@$0BA@U_Default_allocate_traits@std@@$0A@@std@@YAPEAX_K@Z
pdata	ENDS
;	COMDAT pdata
pdata	SEGMENT
$pdata$??$_Deallocate@$0BA@$0A@@std@@YAXPEAX_K@Z DD imagerel $LN18
	DD	imagerel $LN18+53
	DD	imagerel $unwind$??$_Deallocate@$0BA@$0A@@std@@YAXPEAX_K@Z
pdata	ENDS
;	COMDAT pdata
pdata	SEGMENT
$pdata$??$_Uninitialized_move@PEAPEAUTransition@XGK@@V?$allocator@PEAUTransition@XGK@@@std@@@std@@YAPEAPEAUTransition@XGK@@QEAPEAU12@0PEAPEAU12@AEAV?$allocator@PEAUTransition@XGK@@@0@@Z DD imagerel $LN6
	DD	imagerel $LN6+52
	DD	imagerel $unwind$??$_Uninitialized_move@PEAPEAUTransition@XGK@@V?$allocator@PEAUTransition@XGK@@@std@@@std@@YAPEAPEAUTransition@XGK@@QEAPEAU12@0PEAPEAU12@AEAV?$allocator@PEAUTransition@XGK@@@0@@Z
pdata	ENDS
;	COMDAT pdata
pdata	SEGMENT
$pdata$??$_Allocate_manually_vector_aligned@U_Default_allocate_traits@std@@@std@@YAPEAX_K@Z DD imagerel $LN17
	DD	imagerel $LN17+59
	DD	imagerel $unwind$??$_Allocate_manually_vector_aligned@U_Default_allocate_traits@std@@@std@@YAPEAX_K@Z
pdata	ENDS
;	COMDAT pdata
pdata	SEGMENT
$pdata$??$_Copy_memmove@PEAPEAUTransition@XGK@@PEAPEAU12@@std@@YAPEAPEAUTransition@XGK@@PEAPEAU12@00@Z DD imagerel $LN4
	DD	imagerel $LN4+48
	DD	imagerel $unwind$??$_Copy_memmove@PEAPEAUTransition@XGK@@PEAPEAU12@@std@@YAPEAPEAUTransition@XGK@@PEAPEAU12@00@Z
pdata	ENDS
;	COMDAT __real@447a0000
CONST	SEGMENT
__real@447a0000 DD 0447a0000r			; 1000
CONST	ENDS
;	COMDAT ??_R1A@?0A@EA@bad_array_new_length@std@@8
rdata$r	SEGMENT
??_R1A@?0A@EA@bad_array_new_length@std@@8 DD imagerel ??_R0?AVbad_array_new_length@std@@@8 ; std::bad_array_new_length::`RTTI Base Class Descriptor at (0,-1,0,64)'
	DD	02H
	DD	00H
	DD	0ffffffffH
	DD	00H
	DD	040H
	DD	imagerel ??_R3bad_array_new_length@std@@8
rdata$r	ENDS
;	COMDAT ??_R2bad_array_new_length@std@@8
rdata$r	SEGMENT
??_R2bad_array_new_length@std@@8 DD imagerel ??_R1A@?0A@EA@bad_array_new_length@std@@8 ; std::bad_array_new_length::`RTTI Base Class Array'
	DD	imagerel ??_R1A@?0A@EA@bad_alloc@std@@8
	DD	imagerel ??_R1A@?0A@EA@exception@std@@8
	ORG $+3
rdata$r	ENDS
;	COMDAT ??_R3bad_array_new_length@std@@8
rdata$r	SEGMENT
??_R3bad_array_new_length@std@@8 DD 00H			; std::bad_array_new_length::`RTTI Class Hierarchy Descriptor'
	DD	00H
	DD	03H
	DD	imagerel ??_R2bad_array_new_length@std@@8
rdata$r	ENDS
;	COMDAT ??_R4bad_array_new_length@std@@6B@
rdata$r	SEGMENT
??_R4bad_array_new_length@std@@6B@ DD 01H		; std::bad_array_new_length::`RTTI Complete Object Locator'
	DD	00H
	DD	00H
	DD	imagerel ??_R0?AVbad_array_new_length@std@@@8
	DD	imagerel ??_R3bad_array_new_length@std@@8
	DD	imagerel ??_R4bad_array_new_length@std@@6B@
rdata$r	ENDS
;	COMDAT ??_R1A@?0A@EA@bad_alloc@std@@8
rdata$r	SEGMENT
??_R1A@?0A@EA@bad_alloc@std@@8 DD imagerel ??_R0?AVbad_alloc@std@@@8 ; std::bad_alloc::`RTTI Base Class Descriptor at (0,-1,0,64)'
	DD	01H
	DD	00H
	DD	0ffffffffH
	DD	00H
	DD	040H
	DD	imagerel ??_R3bad_alloc@std@@8
rdata$r	ENDS
;	COMDAT ??_R2bad_alloc@std@@8
rdata$r	SEGMENT
??_R2bad_alloc@std@@8 DD imagerel ??_R1A@?0A@EA@bad_alloc@std@@8 ; std::bad_alloc::`RTTI Base Class Array'
	DD	imagerel ??_R1A@?0A@EA@exception@std@@8
	ORG $+3
rdata$r	ENDS
;	COMDAT ??_R3bad_alloc@std@@8
rdata$r	SEGMENT
??_R3bad_alloc@std@@8 DD 00H				; std::bad_alloc::`RTTI Class Hierarchy Descriptor'
	DD	00H
	DD	02H
	DD	imagerel ??_R2bad_alloc@std@@8
rdata$r	ENDS
;	COMDAT ??_R4bad_alloc@std@@6B@
rdata$r	SEGMENT
??_R4bad_alloc@std@@6B@ DD 01H				; std::bad_alloc::`RTTI Complete Object Locator'
	DD	00H
	DD	00H
	DD	imagerel ??_R0?AVbad_alloc@std@@@8
	DD	imagerel ??_R3bad_alloc@std@@8
	DD	imagerel ??_R4bad_alloc@std@@6B@
rdata$r	ENDS
;	COMDAT ??_R1A@?0A@EA@exception@std@@8
rdata$r	SEGMENT
??_R1A@?0A@EA@exception@std@@8 DD imagerel ??_R0?AVexception@std@@@8 ; std::exception::`RTTI Base Class Descriptor at (0,-1,0,64)'
	DD	00H
	DD	00H
	DD	0ffffffffH
	DD	00H
	DD	040H
	DD	imagerel ??_R3exception@std@@8
rdata$r	ENDS
;	COMDAT ??_R2exception@std@@8
rdata$r	SEGMENT
??_R2exception@std@@8 DD imagerel ??_R1A@?0A@EA@exception@std@@8 ; std::exception::`RTTI Base Class Array'
	ORG $+3
rdata$r	ENDS
;	COMDAT ??_R3exception@std@@8
rdata$r	SEGMENT
??_R3exception@std@@8 DD 00H				; std::exception::`RTTI Class Hierarchy Descriptor'
	DD	00H
	DD	01H
	DD	imagerel ??_R2exception@std@@8
rdata$r	ENDS
;	COMDAT ??_R4exception@std@@6B@
rdata$r	SEGMENT
??_R4exception@std@@6B@ DD 01H				; std::exception::`RTTI Complete Object Locator'
	DD	00H
	DD	00H
	DD	imagerel ??_R0?AVexception@std@@@8
	DD	imagerel ??_R3exception@std@@8
	DD	imagerel ??_R4exception@std@@6B@
rdata$r	ENDS
;	COMDAT ??_C@_0BD@OLBABOEK@vector?$DMT?$DO?5too?5long@
CONST	SEGMENT
??_C@_0BD@OLBABOEK@vector?$DMT?$DO?5too?5long@ DB 'vector<T> too long', 00H ; `string'
CONST	ENDS
;	COMDAT _CT??_R0?AVexception@std@@@8??0exception@std@@QEAA@AEBV01@@Z24
xdata$x	SEGMENT
_CT??_R0?AVexception@std@@@8??0exception@std@@QEAA@AEBV01@@Z24 DD 00H
	DD	imagerel ??_R0?AVexception@std@@@8
	DD	00H
	DD	0ffffffffH
	ORG $+4
	DD	018H
	DD	imagerel ??0exception@std@@QEAA@AEBV01@@Z
xdata$x	ENDS
;	COMDAT ??_R0?AVexception@std@@@8
data$r	SEGMENT
??_R0?AVexception@std@@@8 DQ FLAT:??_7type_info@@6B@	; std::exception `RTTI Type Descriptor'
	DQ	0000000000000000H
	DB	'.?AVexception@std@@', 00H
data$r	ENDS
;	COMDAT _CT??_R0?AVbad_alloc@std@@@8??0bad_alloc@std@@QEAA@AEBV01@@Z24
xdata$x	SEGMENT
_CT??_R0?AVbad_alloc@std@@@8??0bad_alloc@std@@QEAA@AEBV01@@Z24 DD 010H
	DD	imagerel ??_R0?AVbad_alloc@std@@@8
	DD	00H
	DD	0ffffffffH
	ORG $+4
	DD	018H
	DD	imagerel ??0bad_alloc@std@@QEAA@AEBV01@@Z
xdata$x	ENDS
;	COMDAT ??_R0?AVbad_alloc@std@@@8
data$r	SEGMENT
??_R0?AVbad_alloc@std@@@8 DQ FLAT:??_7type_info@@6B@	; std::bad_alloc `RTTI Type Descriptor'
	DQ	0000000000000000H
	DB	'.?AVbad_alloc@std@@', 00H
data$r	ENDS
;	COMDAT _CT??_R0?AVbad_array_new_length@std@@@8??0bad_array_new_length@std@@QEAA@AEBV01@@Z24
xdata$x	SEGMENT
_CT??_R0?AVbad_array_new_length@std@@@8??0bad_array_new_length@std@@QEAA@AEBV01@@Z24 DD 00H
	DD	imagerel ??_R0?AVbad_array_new_length@std@@@8
	DD	00H
	DD	0ffffffffH
	ORG $+4
	DD	018H
	DD	imagerel ??0bad_array_new_length@std@@QEAA@AEBV01@@Z
xdata$x	ENDS
;	COMDAT ??_R0?AVbad_array_new_length@std@@@8
data$r	SEGMENT
??_R0?AVbad_array_new_length@std@@@8 DQ FLAT:??_7type_info@@6B@ ; std::bad_array_new_length `RTTI Type Descriptor'
	DQ	0000000000000000H
	DB	'.?AVbad_array_new_length@std@@', 00H
data$r	ENDS
;	COMDAT _CTA3?AVbad_array_new_length@std@@
xdata$x	SEGMENT
_CTA3?AVbad_array_new_length@std@@ DD 03H
	DD	imagerel _CT??_R0?AVbad_array_new_length@std@@@8??0bad_array_new_length@std@@QEAA@AEBV01@@Z24
	DD	imagerel _CT??_R0?AVbad_alloc@std@@@8??0bad_alloc@std@@QEAA@AEBV01@@Z24
	DD	imagerel _CT??_R0?AVexception@std@@@8??0exception@std@@QEAA@AEBV01@@Z24
xdata$x	ENDS
;	COMDAT _TI3?AVbad_array_new_length@std@@
xdata$x	SEGMENT
_TI3?AVbad_array_new_length@std@@ DD 00H
	DD	imagerel ??1bad_array_new_length@std@@UEAA@XZ
	DD	00H
	DD	imagerel _CTA3?AVbad_array_new_length@std@@
xdata$x	ENDS
;	COMDAT ??_C@_0BF@KINCDENJ@bad?5array?5new?5length@
CONST	SEGMENT
??_C@_0BF@KINCDENJ@bad?5array?5new?5length@ DB 'bad array new length', 00H ; `string'
CONST	ENDS
;	COMDAT ??_7bad_array_new_length@std@@6B@
CONST	SEGMENT
??_7bad_array_new_length@std@@6B@ DQ FLAT:??_R4bad_array_new_length@std@@6B@ ; std::bad_array_new_length::`vftable'
	DQ	FLAT:??_Ebad_array_new_length@std@@UEAAPEAXI@Z
	DQ	FLAT:?what@exception@std@@UEBAPEBDXZ
CONST	ENDS
;	COMDAT ??_7bad_alloc@std@@6B@
CONST	SEGMENT
??_7bad_alloc@std@@6B@ DQ FLAT:??_R4bad_alloc@std@@6B@	; std::bad_alloc::`vftable'
	DQ	FLAT:??_Ebad_alloc@std@@UEAAPEAXI@Z
	DQ	FLAT:?what@exception@std@@UEBAPEBDXZ
CONST	ENDS
;	COMDAT ??_C@_0BC@EOODALEL@Unknown?5exception@
CONST	SEGMENT
??_C@_0BC@EOODALEL@Unknown?5exception@ DB 'Unknown exception', 00H ; `string'
CONST	ENDS
;	COMDAT ??_7exception@std@@6B@
CONST	SEGMENT
??_7exception@std@@6B@ DQ FLAT:??_R4exception@std@@6B@	; std::exception::`vftable'
	DQ	FLAT:??_Eexception@std@@UEAAPEAXI@Z
	DQ	FLAT:?what@exception@std@@UEBAPEBDXZ
CONST	ENDS
;	COMDAT xdata
xdata	SEGMENT
$unwind$??$_Copy_memmove@PEAPEAUTransition@XGK@@PEAPEAU12@@std@@YAPEAPEAUTransition@XGK@@PEAPEAU12@00@Z DD 040a01H
	DD	06340aH
	DD	07006320aH
xdata	ENDS
;	COMDAT xdata
xdata	SEGMENT
$unwind$??$_Allocate_manually_vector_aligned@U_Default_allocate_traits@std@@@std@@YAPEAX_K@Z DD 010401H
	DD	04204H
xdata	ENDS
;	COMDAT xdata
xdata	SEGMENT
$unwind$??$_Uninitialized_move@PEAPEAUTransition@XGK@@V?$allocator@PEAUTransition@XGK@@@std@@@std@@YAPEAPEAUTransition@XGK@@QEAPEAU12@0PEAPEAU12@AEAV?$allocator@PEAUTransition@XGK@@@0@@Z DD 040a01H
	DD	06340aH
	DD	07006320aH
xdata	ENDS
;	COMDAT xdata
xdata	SEGMENT
$unwind$??$_Deallocate@$0BA@$0A@@std@@YAXPEAX_K@Z DD 010401H
	DD	04204H
xdata	ENDS
;	COMDAT xdata
xdata	SEGMENT
$unwind$??$_Allocate@$0BA@U_Default_allocate_traits@std@@$0A@@std@@YAPEAX_K@Z DD 010401H
	DD	04204H
xdata	ENDS
;	COMDAT xdata
xdata	SEGMENT
$unwind$??$_Get_size_of_n@$07@std@@YA_K_K@Z DD 010401H
	DD	04204H
xdata	ENDS
;	COMDAT xdata
xdata	SEGMENT
$unwind$??$_Zero_range@PEAPEAUTransition@XGK@@@std@@YAPEAPEAUTransition@XGK@@QEAPEAU12@0@Z DD 020601H
	DD	030023206H
xdata	ENDS
;	COMDAT xdata
xdata	SEGMENT
$unwind$??$_Uninitialized_value_construct_n@V?$allocator@PEAUTransition@XGK@@@std@@@std@@YAPEAPEAUTransition@XGK@@PEAPEAU12@_KAEAV?$allocator@PEAUTransition@XGK@@@0@@Z DD 040a01H
	DD	06340aH
	DD	07006320aH
xdata	ENDS
;	COMDAT xdata
xdata	SEGMENT
$unwind$?catch$0@?0???$_Resize_reallocate@U_Value_init_tag@std@@@?$vector@PEAUTransition@XGK@@V?$allocator@PEAUTransition@XGK@@@std@@@std@@AEAAX_KAEBU_Value_init_tag@1@@Z@4HA DD 020a01H
	DD	05006320aH
xdata	ENDS
;	COMDAT xdata
xdata	SEGMENT
$ip2state$??$_Resize_reallocate@U_Value_init_tag@std@@@?$vector@PEAUTransition@XGK@@V?$allocator@PEAUTransition@XGK@@@std@@@std@@AEAAX_KAEBU_Value_init_tag@1@@Z DB 06H
	DB	'1', 02H
	DB	00H
	DB	'r'
	DB	02H
	DB	01dH, 02H
	DB	00H
xdata	ENDS
;	COMDAT xdata
xdata	SEGMENT
$handlerMap$??$_Resize_reallocate@U_Value_init_tag@std@@@?$vector@PEAUTransition@XGK@@V?$allocator@PEAUTransition@XGK@@@std@@@std@@AEAAX_KAEBU_Value_init_tag@1@@Z DB 02H
	DB	01H
	DB	080H
	DD	imagerel ?catch$0@?0???$_Resize_reallocate@U_Value_init_tag@std@@@?$vector@PEAUTransition@XGK@@V?$allocator@PEAUTransition@XGK@@@std@@@std@@AEAAX_KAEBU_Value_init_tag@1@@Z@4HA
xdata	ENDS
;	COMDAT xdata
xdata	SEGMENT
$tryMap$??$_Resize_reallocate@U_Value_init_tag@std@@@?$vector@PEAUTransition@XGK@@V?$allocator@PEAUTransition@XGK@@@std@@@std@@AEAAX_KAEBU_Value_init_tag@1@@Z DB 02H
	DB	00H
	DB	00H
	DB	02H
	DD	imagerel $handlerMap$??$_Resize_reallocate@U_Value_init_tag@std@@@?$vector@PEAUTransition@XGK@@V?$allocator@PEAUTransition@XGK@@@std@@@std@@AEAAX_KAEBU_Value_init_tag@1@@Z
xdata	ENDS
;	COMDAT xdata
xdata	SEGMENT
$stateUnwindMap$??$_Resize_reallocate@U_Value_init_tag@std@@@?$vector@PEAUTransition@XGK@@V?$allocator@PEAUTransition@XGK@@@std@@@std@@AEAAX_KAEBU_Value_init_tag@1@@Z DB 04H
	DB	08H
	DB	010H
xdata	ENDS
;	COMDAT xdata
xdata	SEGMENT
$cppxdata$??$_Resize_reallocate@U_Value_init_tag@std@@@?$vector@PEAUTransition@XGK@@V?$allocator@PEAUTransition@XGK@@@std@@@std@@AEAAX_KAEBU_Value_init_tag@1@@Z DB 038H
	DD	imagerel $stateUnwindMap$??$_Resize_reallocate@U_Value_init_tag@std@@@?$vector@PEAUTransition@XGK@@V?$allocator@PEAUTransition@XGK@@@std@@@std@@AEAAX_KAEBU_Value_init_tag@1@@Z
	DD	imagerel $tryMap$??$_Resize_reallocate@U_Value_init_tag@std@@@?$vector@PEAUTransition@XGK@@V?$allocator@PEAUTransition@XGK@@@std@@@std@@AEAAX_KAEBU_Value_init_tag@1@@Z
	DD	imagerel $ip2state$??$_Resize_reallocate@U_Value_init_tag@std@@@?$vector@PEAUTransition@XGK@@V?$allocator@PEAUTransition@XGK@@@std@@@std@@AEAAX_KAEBU_Value_init_tag@1@@Z
xdata	ENDS
;	COMDAT xdata
xdata	SEGMENT
$unwind$??$_Resize_reallocate@U_Value_init_tag@std@@@?$vector@PEAUTransition@XGK@@V?$allocator@PEAUTransition@XGK@@@std@@@std@@AEAAX_KAEBU_Value_init_tag@1@@Z DD 061019H
	DD	0f00c3210H
	DD	07008e00aH
	DD	030066007H
	DD	imagerel __CxxFrameHandler4
	DD	imagerel $cppxdata$??$_Resize_reallocate@U_Value_init_tag@std@@@?$vector@PEAUTransition@XGK@@V?$allocator@PEAUTransition@XGK@@@std@@@std@@AEAAX_KAEBU_Value_init_tag@1@@Z
xdata	ENDS
;	COMDAT xdata
xdata	SEGMENT
$chain$1$??$_Resize@U_Value_init_tag@std@@@?$vector@PEAUTransition@XGK@@V?$allocator@PEAUTransition@XGK@@@std@@@std@@AEAAX_KAEBU_Value_init_tag@1@@Z DD 021H
	DD	imagerel $LN14
	DD	imagerel $LN14+93
	DD	imagerel $unwind$??$_Resize@U_Value_init_tag@std@@@?$vector@PEAUTransition@XGK@@V?$allocator@PEAUTransition@XGK@@@std@@@std@@AEAAX_KAEBU_Value_init_tag@1@@Z
xdata	ENDS
;	COMDAT xdata
xdata	SEGMENT
$chain$0$??$_Resize@U_Value_init_tag@std@@@?$vector@PEAUTransition@XGK@@V?$allocator@PEAUTransition@XGK@@@std@@@std@@AEAAX_KAEBU_Value_init_tag@1@@Z DD 020521H
	DD	063405H
	DD	imagerel $LN14
	DD	imagerel $LN14+93
	DD	imagerel $unwind$??$_Resize@U_Value_init_tag@std@@@?$vector@PEAUTransition@XGK@@V?$allocator@PEAUTransition@XGK@@@std@@@std@@AEAAX_KAEBU_Value_init_tag@1@@Z
xdata	ENDS
;	COMDAT xdata
xdata	SEGMENT
$unwind$??$_Resize@U_Value_init_tag@std@@@?$vector@PEAUTransition@XGK@@V?$allocator@PEAUTransition@XGK@@@std@@@std@@AEAAX_KAEBU_Value_init_tag@1@@Z DD 040a01H
	DD	07640aH
	DD	07006320aH
xdata	ENDS
;	COMDAT xdata
xdata	SEGMENT
$unwind$?getFrameTime@TIME@XGK@@YAXPEAUTime@2@@Z DD 020601H
	DD	030023206H
xdata	ENDS
;	COMDAT xdata
xdata	SEGMENT
$chain$4$?updateTransitions@TIME@XGK@@YAXPEAUTime@2@@Z DD 021H
	DD	imagerel $LN21
	DD	imagerel $LN21+32
	DD	imagerel $unwind$?updateTransitions@TIME@XGK@@YAXPEAUTime@2@@Z
xdata	ENDS
;	COMDAT xdata
xdata	SEGMENT
$chain$3$?updateTransitions@TIME@XGK@@YAXPEAUTime@2@@Z DD 081721H
	DD	028817H
	DD	037811H
	DD	04680cH
	DD	0c7405H
	DD	imagerel $LN21
	DD	imagerel $LN21+32
	DD	imagerel $unwind$?updateTransitions@TIME@XGK@@YAXPEAUTime@2@@Z
xdata	ENDS
;	COMDAT xdata
xdata	SEGMENT
$unwind$?updateTransitions@TIME@XGK@@YAXPEAUTime@2@@Z DD 040a01H
	DD	0d340aH
	DD	06006920aH
xdata	ENDS
;	COMDAT xdata
xdata	SEGMENT
$unwind$?updateTransition@TIME@XGK@@YAXPEAUTime@2@PEAUTransition@2@@Z DD 081f01H
	DD	02781fH
	DD	03680fH
	DD	0a340aH
	DD	07006720aH
xdata	ENDS
;	COMDAT xdata
xdata	SEGMENT
$unwind$?init@TIME@XGK@@YAXPEAUTime@2@_K@Z DD 060f01H
	DD	09640fH
	DD	08340fH
	DD	0700b320fH
xdata	ENDS
;	COMDAT xdata
xdata	SEGMENT
$unwind$?getWallTime@@YAMXZ DD 010401H
	DD	04204H
xdata	ENDS
;	COMDAT xdata
xdata	SEGMENT
$unwind$?_Xlength@?$vector@PEAUTransition@XGK@@V?$allocator@PEAUTransition@XGK@@@std@@@std@@CAXXZ DD 010401H
	DD	04204H
xdata	ENDS
;	COMDAT xdata
xdata	SEGMENT
$unwind$?_Change_array@?$vector@PEAUTransition@XGK@@V?$allocator@PEAUTransition@XGK@@@std@@@std@@AEAAXQEAPEAUTransition@XGK@@_K1@Z DD 081401H
	DD	086414H
	DD	075414H
	DD	063414H
	DD	070103214H
xdata	ENDS
;	COMDAT xdata
xdata	SEGMENT
$unwind$?_Ufill@?$vector@PEAUTransition@XGK@@V?$allocator@PEAUTransition@XGK@@@std@@@std@@AEAAPEAPEAUTransition@XGK@@PEAPEAU34@_KU_Value_init_tag@2@@Z DD 040a01H
	DD	06340aH
	DD	07006320aH
xdata	ENDS
;	COMDAT xdata
xdata	SEGMENT
$chain$1$?resize@?$vector@PEAUTransition@XGK@@V?$allocator@PEAUTransition@XGK@@@std@@@std@@QEAAX_K@Z DD 021H
	DD	imagerel $LN16
	DD	imagerel $LN16+104
	DD	imagerel $unwind$?resize@?$vector@PEAUTransition@XGK@@V?$allocator@PEAUTransition@XGK@@@std@@@std@@QEAAX_K@Z
xdata	ENDS
;	COMDAT xdata
xdata	SEGMENT
$chain$0$?resize@?$vector@PEAUTransition@XGK@@V?$allocator@PEAUTransition@XGK@@@std@@@std@@QEAAX_K@Z DD 020521H
	DD	073405H
	DD	imagerel $LN16
	DD	imagerel $LN16+104
	DD	imagerel $unwind$?resize@?$vector@PEAUTransition@XGK@@V?$allocator@PEAUTransition@XGK@@@std@@@std@@QEAAX_K@Z
xdata	ENDS
;	COMDAT xdata
xdata	SEGMENT
$unwind$?resize@?$vector@PEAUTransition@XGK@@V?$allocator@PEAUTransition@XGK@@@std@@@std@@QEAAX_K@Z DD 040a01H
	DD	08640aH
	DD	07006320aH
xdata	ENDS
;	COMDAT xdata
xdata	SEGMENT
$unwind$?allocate@?$allocator@PEAUTransition@XGK@@@std@@QEAAPEAPEAUTransition@XGK@@_K@Z DD 010401H
	DD	04204H
xdata	ENDS
;	COMDAT xdata
xdata	SEGMENT
$unwind$?deallocate@?$allocator@PEAUTransition@XGK@@@std@@QEAAXQEAPEAUTransition@XGK@@_K@Z DD 010401H
	DD	04204H
xdata	ENDS
;	COMDAT xdata
xdata	SEGMENT
$unwind$?_Adjust_manually_vector_aligned@std@@YAXAEAPEAXAEA_K@Z DD 010401H
	DD	04204H
xdata	ENDS
;	COMDAT xdata
xdata	SEGMENT
$unwind$?_Throw_bad_array_new_length@std@@YAXXZ DD 010401H
	DD	08204H
xdata	ENDS
;	COMDAT xdata
xdata	SEGMENT
$unwind$??_Gbad_array_new_length@std@@UEAAPEAXI@Z DD 040a01H
	DD	06340aH
	DD	07006320aH
xdata	ENDS
;	COMDAT xdata
xdata	SEGMENT
$unwind$??0bad_array_new_length@std@@QEAA@AEBV01@@Z DD 020601H
	DD	030023206H
xdata	ENDS
;	COMDAT xdata
xdata	SEGMENT
$unwind$??_Gbad_alloc@std@@UEAAPEAXI@Z DD 040a01H
	DD	06340aH
	DD	07006320aH
xdata	ENDS
;	COMDAT xdata
xdata	SEGMENT
$unwind$??0bad_alloc@std@@QEAA@AEBV01@@Z DD 020601H
	DD	030023206H
xdata	ENDS
;	COMDAT xdata
xdata	SEGMENT
$unwind$??_Gexception@std@@UEAAPEAXI@Z DD 040a01H
	DD	06340aH
	DD	07006320aH
xdata	ENDS
;	COMDAT xdata
xdata	SEGMENT
$unwind$??0exception@std@@QEAA@AEBV01@@Z DD 020601H
	DD	030023206H
xdata	ENDS
; Function compile flags: /Ogtpy
;	COMDAT ??$_Copy_memmove@PEAPEAUTransition@XGK@@PEAPEAU12@@std@@YAPEAPEAUTransition@XGK@@PEAPEAU12@00@Z
_TEXT	SEGMENT
_First$ = 48
_Last$ = 56
_Dest$ = 64
??$_Copy_memmove@PEAPEAUTransition@XGK@@PEAPEAU12@@std@@YAPEAPEAUTransition@XGK@@PEAPEAU12@00@Z PROC ; std::_Copy_memmove<XGK::Transition * *,XGK::Transition * *>, COMDAT
; File C:\Program Files (x86)\Microsoft Visual Studio\2019\Community\VC\Tools\MSVC\14.23.28105\include\xutility
; Line 1739
$LN4:
	mov	QWORD PTR [rsp+8], rbx
	push	rdi
	sub	rsp, 32					; 00000020H
	mov	rbx, rdx
	mov	rdi, r8
; Line 1743
	sub	rbx, rcx
; Line 1744
	mov	rdx, rcx
	mov	r8, rbx
	mov	rcx, rdi
	call	memmove
; Line 1745
	lea	rax, QWORD PTR [rbx+rdi]
; Line 1746
	mov	rbx, QWORD PTR [rsp+48]
	add	rsp, 32					; 00000020H
	pop	rdi
	ret	0
??$_Copy_memmove@PEAPEAUTransition@XGK@@PEAPEAU12@@std@@YAPEAPEAUTransition@XGK@@PEAPEAU12@00@Z ENDP ; std::_Copy_memmove<XGK::Transition * *,XGK::Transition * *>
_TEXT	ENDS
; Function compile flags: /Ogtpy
;	COMDAT ??$_Get_unwrapped@PEAUTransition@XGK@@@std@@YAPEAPEAUTransition@XGK@@QEAPEAU12@@Z
_TEXT	SEGMENT
_Ptr$ = 8
??$_Get_unwrapped@PEAUTransition@XGK@@@std@@YAPEAPEAUTransition@XGK@@QEAPEAU12@@Z PROC ; std::_Get_unwrapped<XGK::Transition *>, COMDAT
; File C:\Program Files (x86)\Microsoft Visual Studio\2019\Community\VC\Tools\MSVC\14.23.28105\include\xutility
; Line 276
	mov	rax, rcx
; Line 277
	ret	0
??$_Get_unwrapped@PEAUTransition@XGK@@@std@@YAPEAPEAUTransition@XGK@@QEAPEAU12@@Z ENDP ; std::_Get_unwrapped<XGK::Transition *>
_TEXT	ENDS
; Function compile flags: /Ogtpy
;	COMDAT ??$_Allocate_manually_vector_aligned@U_Default_allocate_traits@std@@@std@@YAPEAX_K@Z
_TEXT	SEGMENT
_Bytes$ = 48
??$_Allocate_manually_vector_aligned@U_Default_allocate_traits@std@@@std@@YAPEAX_K@Z PROC ; std::_Allocate_manually_vector_aligned<std::_Default_allocate_traits>, COMDAT
; File C:\Program Files (x86)\Microsoft Visual Studio\2019\Community\VC\Tools\MSVC\14.23.28105\include\xmemory
; Line 83
$LN17:
	sub	rsp, 40					; 00000028H
; Line 85
	lea	rax, QWORD PTR [rcx+39]
; Line 86
	cmp	rax, rcx
	jbe	SHORT $LN16@Allocate_m
; Line 47
	mov	rcx, rax
	call	??2@YAPEAX_K@Z				; operator new
	mov	rcx, rax
; Line 91
	test	rax, rax
	je	SHORT $LN7@Allocate_m
; Line 92
	add	rax, 39					; 00000027H
	and	rax, -32				; ffffffffffffffe0H
; Line 93
	mov	QWORD PTR [rax-8], rcx
; Line 99
	add	rsp, 40					; 00000028H
	ret	0
$LN7@Allocate_m:
; Line 91
	call	QWORD PTR __imp__invalid_parameter_noinfo_noreturn
	int	3
$LN16@Allocate_m:
; Line 87
	call	?_Throw_bad_array_new_length@std@@YAXXZ	; std::_Throw_bad_array_new_length
	int	3
$LN14@Allocate_m:
??$_Allocate_manually_vector_aligned@U_Default_allocate_traits@std@@@std@@YAPEAX_K@Z ENDP ; std::_Allocate_manually_vector_aligned<std::_Default_allocate_traits>
_TEXT	ENDS
; Function compile flags: /Ogtpy
;	COMDAT ??$_Uninitialized_move@PEAPEAUTransition@XGK@@V?$allocator@PEAUTransition@XGK@@@std@@@std@@YAPEAPEAUTransition@XGK@@QEAPEAU12@0PEAPEAU12@AEAV?$allocator@PEAUTransition@XGK@@@0@@Z
_TEXT	SEGMENT
_First$ = 48
_Last$ = 56
_Dest$ = 64
_Al$ = 72
??$_Uninitialized_move@PEAPEAUTransition@XGK@@V?$allocator@PEAUTransition@XGK@@@std@@@std@@YAPEAPEAUTransition@XGK@@QEAPEAU12@0PEAPEAU12@AEAV?$allocator@PEAUTransition@XGK@@@0@@Z PROC ; std::_Uninitialized_move<XGK::Transition * *,std::allocator<XGK::Transition *> >, COMDAT
; File C:\Program Files (x86)\Microsoft Visual Studio\2019\Community\VC\Tools\MSVC\14.23.28105\include\xmemory
; Line 1729
$LN6:
	mov	QWORD PTR [rsp+8], rbx
	push	rdi
	sub	rsp, 32					; 00000020H
	mov	rbx, rdx
	mov	rdi, r8
; File C:\Program Files (x86)\Microsoft Visual Studio\2019\Community\VC\Tools\MSVC\14.23.28105\include\xutility
; Line 1743
	sub	rbx, rcx
; Line 1744
	mov	rdx, rcx
	mov	r8, rbx
	mov	rcx, rdi
	call	memmove
; File C:\Program Files (x86)\Microsoft Visual Studio\2019\Community\VC\Tools\MSVC\14.23.28105\include\xmemory
; Line 1738
	sar	rbx, 3
	lea	rax, QWORD PTR [rdi+rbx*8]
; Line 1748
	mov	rbx, QWORD PTR [rsp+48]
	add	rsp, 32					; 00000020H
	pop	rdi
	ret	0
??$_Uninitialized_move@PEAPEAUTransition@XGK@@V?$allocator@PEAUTransition@XGK@@@std@@@std@@YAPEAPEAUTransition@XGK@@QEAPEAU12@0PEAPEAU12@AEAV?$allocator@PEAUTransition@XGK@@@0@@Z ENDP ; std::_Uninitialized_move<XGK::Transition * *,std::allocator<XGK::Transition *> >
_TEXT	ENDS
; Function compile flags: /Ogtpy
;	COMDAT ??$_Deallocate@$0BA@$0A@@std@@YAXPEAX_K@Z
_TEXT	SEGMENT
_Ptr$ = 48
_Bytes$ = 56
??$_Deallocate@$0BA@$0A@@std@@YAXPEAX_K@Z PROC		; std::_Deallocate<16,0>, COMDAT
; File C:\Program Files (x86)\Microsoft Visual Studio\2019\Community\VC\Tools\MSVC\14.23.28105\include\xmemory
; Line 183
$LN18:
	sub	rsp, 40					; 00000028H
; Line 186
	cmp	rdx, 4096				; 00001000H
	jb	SHORT $LN13@Deallocate
; Line 107
	mov	r8, QWORD PTR [rcx-8]
	add	rdx, 39					; 00000027H
; Line 120
	sub	rcx, r8
; Line 121
	lea	rax, QWORD PTR [rcx-8]
	cmp	rax, 31
	ja	SHORT $LN10@Deallocate
; Line 122
	mov	rcx, r8
$LN13@Deallocate:
; Line 192
	add	rsp, 40					; 00000028H
; Line 191
	jmp	??3@YAXPEAX_K@Z				; operator delete
$LN10@Deallocate:
; Line 121
	call	QWORD PTR __imp__invalid_parameter_noinfo_noreturn
	int	3
$LN15@Deallocate:
??$_Deallocate@$0BA@$0A@@std@@YAXPEAX_K@Z ENDP		; std::_Deallocate<16,0>
_TEXT	ENDS
; Function compile flags: /Ogtpy
;	COMDAT ??$_Allocate@$0BA@U_Default_allocate_traits@std@@$0A@@std@@YAPEAX_K@Z
_TEXT	SEGMENT
_Bytes$ = 48
??$_Allocate@$0BA@U_Default_allocate_traits@std@@$0A@@std@@YAPEAX_K@Z PROC ; std::_Allocate<16,std::_Default_allocate_traits,0>, COMDAT
; File C:\Program Files (x86)\Microsoft Visual Studio\2019\Community\VC\Tools\MSVC\14.23.28105\include\xmemory
; Line 167
$LN24:
	sub	rsp, 40					; 00000028H
; Line 170
	cmp	rcx, 4096				; 00001000H
	jb	SHORT $LN2@Allocate
; Line 85
	lea	rax, QWORD PTR [rcx+39]
; Line 86
	cmp	rax, rcx
	jbe	SHORT $LN23@Allocate
; Line 47
	mov	rcx, rax
	call	??2@YAPEAX_K@Z				; operator new
	mov	rcx, rax
; Line 91
	test	rax, rax
	je	SHORT $LN11@Allocate
; Line 92
	add	rax, 39					; 00000027H
	and	rax, -32				; ffffffffffffffe0H
; Line 93
	mov	QWORD PTR [rax-8], rcx
; Line 180
	add	rsp, 40					; 00000028H
	ret	0
$LN11@Allocate:
; Line 91
	call	QWORD PTR __imp__invalid_parameter_noinfo_noreturn
	int	3
$LN2@Allocate:
; Line 175
	test	rcx, rcx
	je	SHORT $LN3@Allocate
; Line 180
	add	rsp, 40					; 00000028H
; Line 47
	jmp	??2@YAPEAX_K@Z				; operator new
$LN3@Allocate:
; Line 179
	xor	eax, eax
; Line 180
	add	rsp, 40					; 00000028H
	ret	0
$LN23@Allocate:
; Line 87
	call	?_Throw_bad_array_new_length@std@@YAXXZ	; std::_Throw_bad_array_new_length
	int	3
$LN21@Allocate:
??$_Allocate@$0BA@U_Default_allocate_traits@std@@$0A@@std@@YAPEAX_K@Z ENDP ; std::_Allocate<16,std::_Default_allocate_traits,0>
_TEXT	ENDS
; Function compile flags: /Ogtpy
;	COMDAT ??$_Get_size_of_n@$07@std@@YA_K_K@Z
_TEXT	SEGMENT
_Count$ = 48
??$_Get_size_of_n@$07@std@@YA_K_K@Z PROC		; std::_Get_size_of_n<8>, COMDAT
; File C:\Program Files (x86)\Microsoft Visual Studio\2019\Community\VC\Tools\MSVC\14.23.28105\include\xmemory
; Line 24
$LN7:
	sub	rsp, 40					; 00000028H
; Line 30
	mov	rax, 2305843009213693951		; 1fffffffffffffffH
	cmp	rcx, rax
	ja	SHORT $LN6@Get_size_o
; Line 35
	lea	rax, QWORD PTR [rcx*8]
; Line 36
	add	rsp, 40					; 00000028H
	ret	0
$LN6@Get_size_o:
; Line 31
	call	?_Throw_bad_array_new_length@std@@YAXXZ	; std::_Throw_bad_array_new_length
	int	3
$LN4@Get_size_o:
??$_Get_size_of_n@$07@std@@YA_K_K@Z ENDP		; std::_Get_size_of_n<8>
_TEXT	ENDS
; Function compile flags: /Ogtpy
;	COMDAT ??$_Min_value@_K@std@@YAAEB_KAEB_K0@Z
_TEXT	SEGMENT
_Left$ = 8
_Right$ = 16
??$_Min_value@_K@std@@YAAEB_KAEB_K0@Z PROC		; std::_Min_value<unsigned __int64>, COMDAT
; File C:\Program Files (x86)\Microsoft Visual Studio\2019\Community\VC\Tools\MSVC\14.23.28105\include\utility
; Line 26
	mov	rax, QWORD PTR [rcx]
	cmp	QWORD PTR [rdx], rax
	cmovb	rcx, rdx
	mov	rax, rcx
; Line 27
	ret	0
??$_Min_value@_K@std@@YAAEB_KAEB_K0@Z ENDP		; std::_Min_value<unsigned __int64>
_TEXT	ENDS
; Function compile flags: /Ogtpy
;	COMDAT ??$_Zero_range@PEAPEAUTransition@XGK@@@std@@YAPEAPEAUTransition@XGK@@QEAPEAU12@0@Z
_TEXT	SEGMENT
_First$ = 48
_Last$ = 56
??$_Zero_range@PEAPEAUTransition@XGK@@@std@@YAPEAPEAUTransition@XGK@@QEAPEAU12@0@Z PROC ; std::_Zero_range<XGK::Transition * *>, COMDAT
; File C:\Program Files (x86)\Microsoft Visual Studio\2019\Community\VC\Tools\MSVC\14.23.28105\include\xmemory
; Line 1898
$LN4:
	push	rbx
	sub	rsp, 32					; 00000020H
; Line 1901
	mov	r8, rdx
	mov	rbx, rdx
	sub	r8, rcx
	xor	edx, edx
	call	memset
; Line 1902
	mov	rax, rbx
; Line 1903
	add	rsp, 32					; 00000020H
	pop	rbx
	ret	0
??$_Zero_range@PEAPEAUTransition@XGK@@@std@@YAPEAPEAUTransition@XGK@@QEAPEAU12@0@Z ENDP ; std::_Zero_range<XGK::Transition * *>
_TEXT	ENDS
; Function compile flags: /Ogtpy
;	COMDAT ??$_Unfancy@PEAUTransition@XGK@@@std@@YAPEAPEAUTransition@XGK@@PEAPEAU12@@Z
_TEXT	SEGMENT
_Ptr$ = 8
??$_Unfancy@PEAUTransition@XGK@@@std@@YAPEAPEAUTransition@XGK@@PEAPEAU12@@Z PROC ; std::_Unfancy<XGK::Transition *>, COMDAT
; File C:\Program Files (x86)\Microsoft Visual Studio\2019\Community\VC\Tools\MSVC\14.23.28105\include\xstddef
; Line 294
	mov	rax, rcx
; Line 295
	ret	0
??$_Unfancy@PEAUTransition@XGK@@@std@@YAPEAPEAUTransition@XGK@@PEAPEAU12@@Z ENDP ; std::_Unfancy<XGK::Transition *>
_TEXT	ENDS
; Function compile flags: /Ogtpy
;	COMDAT ??$_Uninitialized_value_construct_n@V?$allocator@PEAUTransition@XGK@@@std@@@std@@YAPEAPEAUTransition@XGK@@PEAPEAU12@_KAEAV?$allocator@PEAUTransition@XGK@@@0@@Z
_TEXT	SEGMENT
_First$ = 48
_Count$ = 56
_Al$ = 64
??$_Uninitialized_value_construct_n@V?$allocator@PEAUTransition@XGK@@@std@@@std@@YAPEAPEAUTransition@XGK@@PEAPEAU12@_KAEAV?$allocator@PEAUTransition@XGK@@@0@@Z PROC ; std::_Uninitialized_value_construct_n<std::allocator<XGK::Transition *> >, COMDAT
; File C:\Program Files (x86)\Microsoft Visual Studio\2019\Community\VC\Tools\MSVC\14.23.28105\include\xmemory
; Line 1908
$LN6:
	mov	QWORD PTR [rsp+8], rbx
	push	rdi
	sub	rsp, 32					; 00000020H
; Line 1914
	lea	rbx, QWORD PTR [rdx*8]
	mov	rdi, rcx
; Line 1901
	mov	r8, rbx
	xor	edx, edx
	call	memset
; Line 1915
	lea	rax, QWORD PTR [rbx+rdi]
; Line 1924
	mov	rbx, QWORD PTR [rsp+48]
	add	rsp, 32					; 00000020H
	pop	rdi
	ret	0
??$_Uninitialized_value_construct_n@V?$allocator@PEAUTransition@XGK@@@std@@@std@@YAPEAPEAUTransition@XGK@@PEAPEAU12@_KAEAV?$allocator@PEAUTransition@XGK@@@0@@Z ENDP ; std::_Uninitialized_value_construct_n<std::allocator<XGK::Transition *> >
_TEXT	ENDS
; Function compile flags: /Ogtpy
;	COMDAT ??$_Destroy_range@V?$allocator@PEAUTransition@XGK@@@std@@@std@@YAXPEAPEAUTransition@XGK@@QEAPEAU12@AEAV?$allocator@PEAUTransition@XGK@@@0@@Z
_TEXT	SEGMENT
_First$ = 8
_Last$ = 16
_Al$ = 24
??$_Destroy_range@V?$allocator@PEAUTransition@XGK@@@std@@@std@@YAXPEAPEAUTransition@XGK@@QEAPEAU12@AEAV?$allocator@PEAUTransition@XGK@@@0@@Z PROC ; std::_Destroy_range<std::allocator<XGK::Transition *> >, COMDAT
; File C:\Program Files (x86)\Microsoft Visual Studio\2019\Community\VC\Tools\MSVC\14.23.28105\include\xmemory
; Line 1041
	ret	0
??$_Destroy_range@V?$allocator@PEAUTransition@XGK@@@std@@@std@@YAXPEAPEAUTransition@XGK@@QEAPEAU12@AEAV?$allocator@PEAUTransition@XGK@@@0@@Z ENDP ; std::_Destroy_range<std::allocator<XGK::Transition *> >
_TEXT	ENDS
; Function compile flags: /Ogtpy
;	COMDAT ??$_Resize_reallocate@U_Value_init_tag@std@@@?$vector@PEAUTransition@XGK@@V?$allocator@PEAUTransition@XGK@@@std@@@std@@AEAAX_KAEBU_Value_init_tag@1@@Z
_TEXT	SEGMENT
this$ = 80
$T1 = 88
_Newsize$ = 88
_Val$ = 96
_Newcapacity$ = 104
??$_Resize_reallocate@U_Value_init_tag@std@@@?$vector@PEAUTransition@XGK@@V?$allocator@PEAUTransition@XGK@@@std@@@std@@AEAAX_KAEBU_Value_init_tag@1@@Z PROC ; std::vector<XGK::Transition *,std::allocator<XGK::Transition *> >::_Resize_reallocate<std::_Value_init_tag>, COMDAT
; File C:\Program Files (x86)\Microsoft Visual Studio\2019\Community\VC\Tools\MSVC\14.23.28105\include\vector
; Line 1133
$LN83:
	mov	QWORD PTR [rsp+8], rcx
	push	rbx
	push	rsi
	push	rdi
	push	r14
	push	r15
	sub	rsp, 32					; 00000020H
	mov	r14, rdx
	mov	rdi, rcx
; Line 1134
	mov	r8, 2305843009213693951			; 1fffffffffffffffH
	cmp	rdx, r8
	ja	$LN82@Resize_rea
; Line 1142
	mov	r15, QWORD PTR [rcx+8]
	sub	r15, QWORD PTR [rcx]
	sar	r15, 3
; Line 1448
	mov	rcx, QWORD PTR [rcx+16]
	sub	rcx, QWORD PTR [rdi]
	sar	rcx, 3
; Line 1575
	mov	rdx, rcx
	shr	rdx, 1
	mov	rax, r8
	sub	rax, rdx
	cmp	rcx, rax
	jbe	SHORT $LN10@Resize_rea
; Line 1576
	mov	rax, r14
	jmp	SHORT $LN79@Resize_rea
$LN10@Resize_rea:
; Line 1579
	lea	rax, QWORD PTR [rdx+rcx]
; Line 1581
	cmp	rax, r14
	cmovb	rax, r14
$LN79@Resize_rea:
; File C:\Program Files (x86)\Microsoft Visual Studio\2019\Community\VC\Tools\MSVC\14.23.28105\include\xmemory
; Line 30
	mov	QWORD PTR _Newcapacity$[rsp], rax
	cmp	rax, r8
	ja	$LN77@Resize_rea
; Line 35
	lea	rsi, QWORD PTR [rax*8]
; Line 170
	cmp	rsi, 4096				; 00001000H
	jb	SHORT $LN22@Resize_rea
; Line 85
	lea	rcx, QWORD PTR [rsi+39]
; Line 86
	cmp	rcx, rsi
	jbe	$LN77@Resize_rea
; Line 47
	call	??2@YAPEAX_K@Z				; operator new
; Line 91
	test	rax, rax
	je	$LN70@Resize_rea
; Line 92
	lea	rbx, QWORD PTR [rax+39]
	and	rbx, -32				; ffffffffffffffe0H
; Line 93
	mov	QWORD PTR [rbx-8], rax
; Line 171
	jmp	SHORT $LN80@Resize_rea
$LN22@Resize_rea:
; Line 175
	test	rsi, rsi
	je	SHORT $LN23@Resize_rea
; Line 47
	mov	rcx, rsi
	call	??2@YAPEAX_K@Z				; operator new
	mov	rbx, rax
; Line 176
	jmp	SHORT $LN80@Resize_rea
$LN23@Resize_rea:
; Line 179
	xor	ebx, ebx
$LN80@Resize_rea:
; File C:\Program Files (x86)\Microsoft Visual Studio\2019\Community\VC\Tools\MSVC\14.23.28105\include\vector
; Line 1146
	mov	QWORD PTR $T1[rsp], rbx
	lea	rcx, QWORD PTR [rbx+r15*8]
; Line 1150
	mov	r8, r14
	sub	r8, r15
; File C:\Program Files (x86)\Microsoft Visual Studio\2019\Community\VC\Tools\MSVC\14.23.28105\include\xmemory
; Line 1914
	lea	r8, QWORD PTR [r8*8]
; Line 1901
	xor	edx, edx
	call	memset
; File C:\Program Files (x86)\Microsoft Visual Studio\2019\Community\VC\Tools\MSVC\14.23.28105\include\vector
; Line 1151
	mov	r8, QWORD PTR [rdi+8]
; File C:\Program Files (x86)\Microsoft Visual Studio\2019\Community\VC\Tools\MSVC\14.23.28105\include\xutility
; Line 1740
	mov	rdx, QWORD PTR [rdi]
; Line 1743
	sub	r8, rdx
; Line 1744
	mov	rcx, rbx
	call	memmove
	npad	1
; File C:\Program Files (x86)\Microsoft Visual Studio\2019\Community\VC\Tools\MSVC\14.23.28105\include\vector
; Line 1632
	mov	rcx, QWORD PTR [rdi]
	test	rcx, rcx
	je	SHORT $LN63@Resize_rea
; Line 1634
	mov	rdx, QWORD PTR [rdi+16]
	sub	rdx, rcx
; File C:\Program Files (x86)\Microsoft Visual Studio\2019\Community\VC\Tools\MSVC\14.23.28105\include\xmemory
; Line 867
	and	rdx, -8
; Line 186
	cmp	rdx, 4096				; 00001000H
	jb	SHORT $LN73@Resize_rea
; Line 104
	add	rdx, 39					; 00000027H
; Line 107
	mov	r8, QWORD PTR [rcx-8]
; Line 120
	sub	rcx, r8
; Line 121
	lea	rax, QWORD PTR [rcx-8]
	cmp	rax, 31
	ja	SHORT $LN70@Resize_rea
; Line 122
	mov	rcx, r8
$LN73@Resize_rea:
; Line 191
	call	??3@YAXPEAX_K@Z				; operator delete
$LN63@Resize_rea:
; File C:\Program Files (x86)\Microsoft Visual Studio\2019\Community\VC\Tools\MSVC\14.23.28105\include\vector
; Line 1637
	mov	QWORD PTR [rdi], rbx
; Line 1638
	lea	rax, QWORD PTR [rbx+r14*8]
	mov	QWORD PTR [rdi+8], rax
; Line 1639
	lea	rax, QWORD PTR [rsi+rbx]
	mov	QWORD PTR [rdi+16], rax
; Line 1159
	add	rsp, 32					; 00000020H
	pop	r15
	pop	r14
	pop	rdi
	pop	rsi
	pop	rbx
	ret	0
$LN70@Resize_rea:
; File C:\Program Files (x86)\Microsoft Visual Studio\2019\Community\VC\Tools\MSVC\14.23.28105\include\xmemory
; Line 121
	call	QWORD PTR __imp__invalid_parameter_noinfo_noreturn
	int	3
$LN77@Resize_rea:
; Line 87
	call	?_Throw_bad_array_new_length@std@@YAXXZ	; std::_Throw_bad_array_new_length
	int	3
$LN82@Resize_rea:
; File C:\Program Files (x86)\Microsoft Visual Studio\2019\Community\VC\Tools\MSVC\14.23.28105\include\vector
; Line 1135
	call	?_Xlength@?$vector@PEAUTransition@XGK@@V?$allocator@PEAUTransition@XGK@@@std@@@std@@CAXXZ ; std::vector<XGK::Transition *,std::allocator<XGK::Transition *> >::_Xlength
	int	3
$LN78@Resize_rea:
??$_Resize_reallocate@U_Value_init_tag@std@@@?$vector@PEAUTransition@XGK@@V?$allocator@PEAUTransition@XGK@@@std@@@std@@AEAAX_KAEBU_Value_init_tag@1@@Z ENDP ; std::vector<XGK::Transition *,std::allocator<XGK::Transition *> >::_Resize_reallocate<std::_Value_init_tag>
_TEXT	ENDS
;	COMDAT text$x
text$x	SEGMENT
this$ = 80
$T1 = 88
_Newsize$ = 88
_Val$ = 96
_Newcapacity$ = 104
?catch$0@?0???$_Resize_reallocate@U_Value_init_tag@std@@@?$vector@PEAUTransition@XGK@@V?$allocator@PEAUTransition@XGK@@@std@@@std@@AEAAX_KAEBU_Value_init_tag@1@@Z@4HA PROC ; `std::vector<XGK::Transition *,std::allocator<XGK::Transition *> >::_Resize_reallocate<std::_Value_init_tag>'::`1'::catch$0
; Line 1152
	mov	QWORD PTR [rsp+16], rdx
	push	rbp
	sub	rsp, 32					; 00000020H
	mov	rbp, rdx
__catch$??$_Resize_reallocate@U_Value_init_tag@std@@@?$vector@PEAUTransition@XGK@@V?$allocator@PEAUTransition@XGK@@@std@@@std@@AEAAX_KAEBU_Value_init_tag@1@@Z$0:
; Line 1154
	mov	rcx, QWORD PTR this$[rbp]
	call	?_Getal@?$vector@PEAUTransition@XGK@@V?$allocator@PEAUTransition@XGK@@@std@@@std@@AEAAAEAV?$allocator@PEAUTransition@XGK@@@2@XZ ; std::vector<XGK::Transition *,std::allocator<XGK::Transition *> >::_Getal
	mov	rcx, rax
	mov	r8, QWORD PTR _Newcapacity$[rbp]
	mov	rdx, QWORD PTR $T1[rbp]
	call	?deallocate@?$allocator@PEAUTransition@XGK@@@std@@QEAAXQEAPEAUTransition@XGK@@_K@Z ; std::allocator<XGK::Transition *>::deallocate
; Line 1155
	xor	edx, edx
	xor	ecx, ecx
	call	_CxxThrowException
	npad	1
?catch$0@?0???$_Resize_reallocate@U_Value_init_tag@std@@@?$vector@PEAUTransition@XGK@@V?$allocator@PEAUTransition@XGK@@@std@@@std@@AEAAX_KAEBU_Value_init_tag@1@@Z@4HA ENDP ; `std::vector<XGK::Transition *,std::allocator<XGK::Transition *> >::_Resize_reallocate<std::_Value_init_tag>'::`1'::catch$0
text$x	ENDS
; Function compile flags: /Ogtpy
;	COMDAT text$x
text$x	SEGMENT
this$ = 80
$T1 = 88
_Newsize$ = 88
_Val$ = 96
_Newcapacity$ = 104
?catch$0@?0???$_Resize_reallocate@U_Value_init_tag@std@@@?$vector@PEAUTransition@XGK@@V?$allocator@PEAUTransition@XGK@@@std@@@std@@AEAAX_KAEBU_Value_init_tag@1@@Z@4HA PROC ; `std::vector<XGK::Transition *,std::allocator<XGK::Transition *> >::_Resize_reallocate<std::_Value_init_tag>'::`1'::catch$0
; Line 1152
	mov	QWORD PTR [rsp+16], rdx
	push	rbp
	sub	rsp, 32					; 00000020H
	mov	rbp, rdx
__catch$??$_Resize_reallocate@U_Value_init_tag@std@@@?$vector@PEAUTransition@XGK@@V?$allocator@PEAUTransition@XGK@@@std@@@std@@AEAAX_KAEBU_Value_init_tag@1@@Z$0:
; Line 1154
	mov	rcx, QWORD PTR this$[rbp]
	call	?_Getal@?$vector@PEAUTransition@XGK@@V?$allocator@PEAUTransition@XGK@@@std@@@std@@AEAAAEAV?$allocator@PEAUTransition@XGK@@@2@XZ ; std::vector<XGK::Transition *,std::allocator<XGK::Transition *> >::_Getal
	mov	rcx, rax
	mov	r8, QWORD PTR _Newcapacity$[rbp]
	mov	rdx, QWORD PTR $T1[rbp]
	call	?deallocate@?$allocator@PEAUTransition@XGK@@@std@@QEAAXQEAPEAUTransition@XGK@@_K@Z ; std::allocator<XGK::Transition *>::deallocate
; Line 1155
	xor	edx, edx
	xor	ecx, ecx
	call	_CxxThrowException
	npad	1
?catch$0@?0???$_Resize_reallocate@U_Value_init_tag@std@@@?$vector@PEAUTransition@XGK@@V?$allocator@PEAUTransition@XGK@@@std@@@std@@AEAAX_KAEBU_Value_init_tag@1@@Z@4HA ENDP ; `std::vector<XGK::Transition *,std::allocator<XGK::Transition *> >::_Resize_reallocate<std::_Value_init_tag>'::`1'::catch$0
text$x	ENDS
; Function compile flags: /Ogtpy
;	COMDAT ??$_Resize@U_Value_init_tag@std@@@?$vector@PEAUTransition@XGK@@V?$allocator@PEAUTransition@XGK@@@std@@@std@@AEAAX_KAEBU_Value_init_tag@1@@Z
_TEXT	SEGMENT
this$ = 48
_Newsize$ = 56
_Val$ = 64
??$_Resize@U_Value_init_tag@std@@@?$vector@PEAUTransition@XGK@@V?$allocator@PEAUTransition@XGK@@@std@@@std@@AEAAX_KAEBU_Value_init_tag@1@@Z PROC ; std::vector<XGK::Transition *,std::allocator<XGK::Transition *> >::_Resize<std::_Value_init_tag>, COMDAT
; File C:\Program Files (x86)\Microsoft Visual Studio\2019\Community\VC\Tools\MSVC\14.23.28105\include\vector
; Line 1162
$LN14:
	mov	QWORD PTR [rsp+16], rsi
	push	rdi
	sub	rsp, 32					; 00000020H
; Line 1166
	mov	rsi, QWORD PTR [rcx+8]
	mov	rdi, rcx
	mov	r9, QWORD PTR [rcx]
	mov	rcx, rsi
	sub	rcx, r9
	sar	rcx, 3
; Line 1167
	cmp	rdx, rcx
	jae	SHORT $LN2@Resize
; Line 1168
	lea	rax, QWORD PTR [r9+rdx*8]
; Line 1188
	mov	QWORD PTR [rdi+8], rax
	mov	rsi, QWORD PTR [rsp+56]
	add	rsp, 32					; 00000020H
	pop	rdi
	ret	0
$LN2@Resize:
; Line 1175
	jbe	SHORT $LN3@Resize
; Line 1176
	mov	rax, QWORD PTR [rdi+16]
	sub	rax, r9
	sar	rax, 3
; Line 1177
	cmp	rdx, rax
	jbe	SHORT $LN4@Resize
; Line 1178
	mov	rcx, rdi
; Line 1188
	mov	rsi, QWORD PTR [rsp+56]
	add	rsp, 32					; 00000020H
	pop	rdi
; Line 1178
	jmp	??$_Resize_reallocate@U_Value_init_tag@std@@@?$vector@PEAUTransition@XGK@@V?$allocator@PEAUTransition@XGK@@@std@@@std@@AEAAX_KAEBU_Value_init_tag@1@@Z ; std::vector<XGK::Transition *,std::allocator<XGK::Transition *> >::_Resize_reallocate<std::_Value_init_tag>
$LN4@Resize:
; Line 1183
	sub	rdx, rcx
	mov	QWORD PTR [rsp+48], rbx
; File C:\Program Files (x86)\Microsoft Visual Studio\2019\Community\VC\Tools\MSVC\14.23.28105\include\xmemory
; Line 1901
	mov	rcx, rsi
; Line 1914
	lea	rbx, QWORD PTR [rdx*8]
; Line 1901
	xor	edx, edx
	mov	r8, rbx
	call	memset
; Line 1915
	lea	rax, QWORD PTR [rbx+rsi]
; File C:\Program Files (x86)\Microsoft Visual Studio\2019\Community\VC\Tools\MSVC\14.23.28105\include\vector
; Line 1183
	mov	rbx, QWORD PTR [rsp+48]
; Line 1188
	mov	QWORD PTR [rdi+8], rax
$LN3@Resize:
	mov	rsi, QWORD PTR [rsp+56]
	add	rsp, 32					; 00000020H
	pop	rdi
	ret	0
??$_Resize@U_Value_init_tag@std@@@?$vector@PEAUTransition@XGK@@V?$allocator@PEAUTransition@XGK@@@std@@@std@@AEAAX_KAEBU_Value_init_tag@1@@Z ENDP ; std::vector<XGK::Transition *,std::allocator<XGK::Transition *> >::_Resize<std::_Value_init_tag>
_TEXT	ENDS
; Function compile flags: /Ogtpy
;	COMDAT ??$_Unfancy_maybe_null@PEAUTransition@XGK@@@std@@YAPEAPEAUTransition@XGK@@PEAPEAU12@@Z
_TEXT	SEGMENT
_Ptr$ = 8
??$_Unfancy_maybe_null@PEAUTransition@XGK@@@std@@YAPEAPEAUTransition@XGK@@PEAPEAU12@@Z PROC ; std::_Unfancy_maybe_null<XGK::Transition *>, COMDAT
; File C:\Program Files (x86)\Microsoft Visual Studio\2019\Community\VC\Tools\MSVC\14.23.28105\include\vector
; Line 348
	mov	rax, rcx
; Line 349
	ret	0
??$_Unfancy_maybe_null@PEAUTransition@XGK@@@std@@YAPEAPEAUTransition@XGK@@PEAPEAU12@@Z ENDP ; std::_Unfancy_maybe_null<XGK::Transition *>
_TEXT	ENDS
; Function compile flags: /Ogtpy
;	COMDAT ?getFrameTime@TIME@XGK@@YAXPEAUTime@2@@Z
_TEXT	SEGMENT
time$1 = 48
time$ = 48
freq$2 = 56
?getFrameTime@TIME@XGK@@YAXPEAUTime@2@@Z PROC		; XGK::TIME::getFrameTime, COMDAT
; File E:\reps\denis-belov\xgk\src\time\time.cpp
; Line 165
$LN8:
	push	rbx
	sub	rsp, 32					; 00000020H
	mov	rbx, rcx
; Line 19
	lea	rcx, QWORD PTR freq$2[rsp]
	call	QWORD PTR __imp_QueryPerformanceFrequency
	test	eax, eax
	jne	SHORT $LN4@getFrameTi
	xorps	xmm1, xmm1
; Line 21
	jmp	SHORT $LN3@getFrameTi
$LN4@getFrameTi:
; Line 24
	lea	rcx, QWORD PTR time$1[rsp]
	call	QWORD PTR __imp_QueryPerformanceCounter
	xorps	xmm1, xmm1
	test	eax, eax
	je	SHORT $LN3@getFrameTi
; Line 29
	cvtsi2ss xmm1, QWORD PTR time$1[rsp]
	xorps	xmm0, xmm0
	cvtsi2ss xmm0, QWORD PTR freq$2[rsp]
	divss	xmm1, xmm0
$LN3@getFrameTi:
; Line 167
	mulss	xmm1, DWORD PTR __real@447a0000
; Line 169
	movaps	xmm0, xmm1
	subss	xmm0, DWORD PTR [rbx+32]
; Line 170
	movss	DWORD PTR [rbx+32], xmm1
	movss	DWORD PTR [rbx+36], xmm0
; Line 171
	add	rsp, 32					; 00000020H
	pop	rbx
	ret	0
?getFrameTime@TIME@XGK@@YAXPEAUTime@2@@Z ENDP		; XGK::TIME::getFrameTime
_TEXT	ENDS
; Function compile flags: /Ogtpy
;	COMDAT ?updateTransitions@TIME@XGK@@YAXPEAUTime@2@@Z
_TEXT	SEGMENT
time$ = 96
?updateTransitions@TIME@XGK@@YAXPEAUTime@2@@Z PROC	; XGK::TIME::updateTransitions, COMDAT
; File E:\reps\denis-belov\xgk\src\time\time.cpp
; Line 155
$LN21:
	mov	QWORD PTR [rsp+16], rbx
	push	rsi
	sub	rsp, 80					; 00000050H
; Line 157
	xor	esi, esi
	mov	rbx, rcx
	mov	QWORD PTR [rcx+48], rsi
	mov	rcx, QWORD PTR [rcx+24]
	cmp	QWORD PTR [rcx], rsi
	je	$LN3@updateTran
	mov	QWORD PTR [rsp+96], rdi
	mov	eax, esi
	movaps	XMMWORD PTR [rsp+64], xmm6
	movaps	XMMWORD PTR [rsp+48], xmm7
	movaps	XMMWORD PTR [rsp+32], xmm8
	xorps	xmm8, xmm8
	npad	5
$LL4@updateTran:
; Line 159
	mov	rdi, QWORD PTR [rcx+rax*8]
; Line 135
	movss	xmm6, DWORD PTR [rdi+4]
	movaps	xmm7, xmm6
	divss	xmm7, DWORD PTR [rdi+12]
; File C:\Program Files (x86)\Microsoft Visual Studio\2019\Community\VC\Tools\MSVC\14.23.28105\include\cmath
; Line 102
	movaps	xmm0, xmm7
; File E:\reps\denis-belov\xgk\src\time\time.cpp
; Line 135
	movss	DWORD PTR [rdi+8], xmm7
; File C:\Program Files (x86)\Microsoft Visual Studio\2019\Community\VC\Tools\MSVC\14.23.28105\include\cmath
; Line 102
	call	floorf
; File E:\reps\denis-belov\xgk\src\time\time.cpp
; Line 139
	ucomiss	xmm0, xmm8
	jp	SHORT $LN18@updateTran
	jne	SHORT $LN18@updateTran
; Line 147
	addss	xmm6, DWORD PTR [rbx+36]
; Line 149
	mov	rdx, QWORD PTR [rdi+24]
	movaps	xmm0, xmm7
	movss	DWORD PTR [rdi+4], xmm6
	call	QWORD PTR [rdi+32]
	jmp	SHORT $LN2@updateTran
$LN18@updateTran:
; Line 60
	mov	BYTE PTR [rdi], sil
; Line 62
	dec	QWORD PTR [rbx+40]
	mov	rdx, QWORD PTR [rbx+24]
	mov	rcx, QWORD PTR [rbx+48]
	mov	rax, QWORD PTR [rbx+40]
	mov	rax, QWORD PTR [rdx+rax*8]
	mov	QWORD PTR [rdx+rcx*8], rax
	dec	QWORD PTR [rbx+48]
; Line 63
	mov	rcx, QWORD PTR [rbx+40]
	mov	rax, QWORD PTR [rbx+24]
	mov	QWORD PTR [rax+rcx*8], rsi
; Line 143
	mov	rdx, QWORD PTR [rdi+24]
	movss	xmm0, DWORD PTR [rdi+8]
	call	QWORD PTR [rdi+40]
$LN2@updateTran:
; Line 157
	mov	rax, QWORD PTR [rbx+48]
	inc	rax
	mov	QWORD PTR [rbx+48], rax
	mov	rcx, QWORD PTR [rbx+24]
	cmp	QWORD PTR [rcx+rax*8], rsi
	jne	$LL4@updateTran
	movaps	xmm8, XMMWORD PTR [rsp+32]
	movaps	xmm7, XMMWORD PTR [rsp+48]
	movaps	xmm6, XMMWORD PTR [rsp+64]
	mov	rdi, QWORD PTR [rsp+96]
$LN3@updateTran:
; Line 161
	mov	rbx, QWORD PTR [rsp+104]
	add	rsp, 80					; 00000050H
	pop	rsi
	ret	0
?updateTransitions@TIME@XGK@@YAXPEAUTime@2@@Z ENDP	; XGK::TIME::updateTransitions
_TEXT	ENDS
; Function compile flags: /Ogtpy
;	COMDAT ?updateTransition@TIME@XGK@@YAXPEAUTime@2@PEAUTransition@2@@Z
_TEXT	SEGMENT
time$ = 80
transition$ = 88
?updateTransition@TIME@XGK@@YAXPEAUTime@2@PEAUTransition@2@@Z PROC ; XGK::TIME::updateTransition, COMDAT
; File E:\reps\denis-belov\xgk\src\time\time.cpp
; Line 133
$LN12:
	mov	QWORD PTR [rsp+8], rbx
	push	rdi
	sub	rsp, 64					; 00000040H
	movaps	XMMWORD PTR [rsp+48], xmm6
	mov	rbx, rdx
; Line 135
	movss	xmm6, DWORD PTR [rdx+4]
	mov	rdi, rcx
	movaps	XMMWORD PTR [rsp+32], xmm7
	movaps	xmm7, xmm6
	divss	xmm7, DWORD PTR [rdx+12]
; File C:\Program Files (x86)\Microsoft Visual Studio\2019\Community\VC\Tools\MSVC\14.23.28105\include\cmath
; Line 102
	movaps	xmm0, xmm7
; File E:\reps\denis-belov\xgk\src\time\time.cpp
; Line 135
	movss	DWORD PTR [rdx+8], xmm7
; File C:\Program Files (x86)\Microsoft Visual Studio\2019\Community\VC\Tools\MSVC\14.23.28105\include\cmath
; Line 102
	call	floorf
	xorps	xmm1, xmm1
; File E:\reps\denis-belov\xgk\src\time\time.cpp
; Line 139
	ucomiss	xmm0, xmm1
	jp	SHORT $LN9@updateTran
	jne	SHORT $LN9@updateTran
; Line 147
	addss	xmm6, DWORD PTR [rdi+36]
; Line 149
	mov	rdx, QWORD PTR [rbx+24]
	movaps	xmm0, xmm7
	movss	DWORD PTR [rbx+4], xmm6
	call	QWORD PTR [rbx+32]
	jmp	SHORT $LN3@updateTran
$LN9@updateTran:
; Line 60
	mov	BYTE PTR [rbx], 0
; Line 62
	dec	QWORD PTR [rdi+40]
	mov	rdx, QWORD PTR [rdi+24]
	mov	rcx, QWORD PTR [rdi+48]
	mov	rax, QWORD PTR [rdi+40]
	mov	rax, QWORD PTR [rdx+rax*8]
	mov	QWORD PTR [rdx+rcx*8], rax
	dec	QWORD PTR [rdi+48]
; Line 63
	mov	rcx, QWORD PTR [rdi+40]
	mov	rax, QWORD PTR [rdi+24]
	mov	QWORD PTR [rax+rcx*8], 0
; Line 143
	mov	rdx, QWORD PTR [rbx+24]
	movss	xmm0, DWORD PTR [rbx+8]
	call	QWORD PTR [rbx+40]
$LN3@updateTran:
; Line 151
	mov	rbx, QWORD PTR [rsp+80]
	movaps	xmm6, XMMWORD PTR [rsp+48]
	movaps	xmm7, XMMWORD PTR [rsp+32]
	add	rsp, 64					; 00000040H
	pop	rdi
	ret	0
?updateTransition@TIME@XGK@@YAXPEAUTime@2@PEAUTransition@2@@Z ENDP ; XGK::TIME::updateTransition
_TEXT	ENDS
; Function compile flags: /Ogtpy
;	COMDAT ?setTransition2@TIME@XGK@@YAXPEAUTime@2@PEAUTransition@2@MP6AXMPEAX@Z@Z
_TEXT	SEGMENT
time$ = 8
transition$ = 16
duration$ = 24
process_callback$ = 32
?setTransition2@TIME@XGK@@YAXPEAUTime@2@PEAUTransition@2@MP6AXMPEAX@Z@Z PROC ; XGK::TIME::setTransition2, COMDAT
; File E:\reps\denis-belov\xgk\src\time\time.cpp
; Line 76
	cmp	BYTE PTR [rdx], 0
; Line 116
	mov	r11, rcx
; Line 76
	je	SHORT $LN4@setTransit
; Line 78
	mov	BYTE PTR [rdx], 0
; Line 80
	dec	QWORD PTR [rcx+40]
	mov	rax, QWORD PTR [rcx+40]
	mov	r10, QWORD PTR [rcx+24]
	mov	r8, QWORD PTR [rdx+16]
	mov	rax, QWORD PTR [r10+rax*8]
	mov	QWORD PTR [r10+r8*8], rax
; Line 81
	mov	rcx, QWORD PTR [rcx+40]
	mov	rax, QWORD PTR [r11+24]
	mov	QWORD PTR [rax+rcx*8], 0
$LN4@setTransit:
; Line 121
	movss	DWORD PTR [rdx+12], xmm2
; Line 123
	lea	rax, OFFSET FLAT:?idle_function@XGK@@YAXMPEAX@Z ; XGK::idle_function
	mov	QWORD PTR [rdx+40], rax
; Line 124
	mov	QWORD PTR [rdx+4], 0
	mov	QWORD PTR [rdx+32], r9
; Line 125
	mov	BYTE PTR [rdx], 1
; Line 126
	mov	rax, QWORD PTR [r11+40]
	mov	QWORD PTR [rdx+16], rax
; Line 128
	mov	rcx, QWORD PTR [r11+40]
	mov	rax, QWORD PTR [r11+24]
	mov	QWORD PTR [rax+rcx*8], rdx
	inc	QWORD PTR [r11+40]
; Line 129
	ret	0
?setTransition2@TIME@XGK@@YAXPEAUTime@2@PEAUTransition@2@MP6AXMPEAX@Z@Z ENDP ; XGK::TIME::setTransition2
_TEXT	ENDS
; Function compile flags: /Ogtpy
;	COMDAT ?setTransition@TIME@XGK@@YAXPEAUTime@2@PEAUTransition@2@MP6AXMPEAX@Z3@Z
_TEXT	SEGMENT
time$ = 8
transition$ = 16
duration$ = 24
process_callback$ = 32
end_callback$ = 40
?setTransition@TIME@XGK@@YAXPEAUTime@2@PEAUTransition@2@MP6AXMPEAX@Z3@Z PROC ; XGK::TIME::setTransition, COMDAT
; File E:\reps\denis-belov\xgk\src\time\time.cpp
; Line 76
	cmp	BYTE PTR [rdx], 0
; Line 93
	mov	r11, rcx
; Line 76
	je	SHORT $LN4@setTransit
; Line 78
	mov	BYTE PTR [rdx], 0
; Line 80
	dec	QWORD PTR [rcx+40]
	mov	rax, QWORD PTR [rcx+40]
	mov	r10, QWORD PTR [rcx+24]
	mov	r8, QWORD PTR [rdx+16]
	mov	rax, QWORD PTR [r10+rax*8]
	mov	QWORD PTR [r10+r8*8], rax
; Line 81
	mov	rcx, QWORD PTR [rcx+40]
	mov	rax, QWORD PTR [r11+24]
	mov	QWORD PTR [rax+rcx*8], 0
$LN4@setTransit:
; Line 100
	mov	rax, QWORD PTR end_callback$[rsp]
	mov	QWORD PTR [rdx+40], rax
	movss	DWORD PTR [rdx+12], xmm2
; Line 101
	mov	QWORD PTR [rdx+4], 0
	mov	QWORD PTR [rdx+32], r9
; Line 102
	mov	BYTE PTR [rdx], 1
; Line 103
	mov	rax, QWORD PTR [r11+40]
	mov	QWORD PTR [rdx+16], rax
; Line 105
	mov	rcx, QWORD PTR [r11+40]
	mov	rax, QWORD PTR [r11+24]
	mov	QWORD PTR [rax+rcx*8], rdx
	inc	QWORD PTR [r11+40]
; Line 106
	ret	0
?setTransition@TIME@XGK@@YAXPEAUTime@2@PEAUTransition@2@MP6AXMPEAX@Z3@Z ENDP ; XGK::TIME::setTransition
_TEXT	ENDS
; Function compile flags: /Ogtpy
;	COMDAT ?cancelTransition2@TIME@XGK@@YAXPEAUTime@2@PEAUTransition@2@@Z
_TEXT	SEGMENT
time$ = 8
transition$ = 16
?cancelTransition2@TIME@XGK@@YAXPEAUTime@2@PEAUTransition@2@@Z PROC ; XGK::TIME::cancelTransition2, COMDAT
; File E:\reps\denis-belov\xgk\src\time\time.cpp
; Line 76
	cmp	BYTE PTR [rdx], 0
	je	SHORT $LN2@cancelTran
; Line 78
	mov	BYTE PTR [rdx], 0
; Line 80
	dec	QWORD PTR [rcx+40]
	mov	rax, QWORD PTR [rcx+40]
	mov	r8, QWORD PTR [rcx+24]
	mov	rdx, QWORD PTR [rdx+16]
	mov	rax, QWORD PTR [r8+rax*8]
	mov	QWORD PTR [r8+rdx*8], rax
; Line 81
	mov	rdx, QWORD PTR [rcx+40]
	mov	rax, QWORD PTR [rcx+24]
	mov	QWORD PTR [rax+rdx*8], 0
$LN2@cancelTran:
; Line 83
	ret	0
?cancelTransition2@TIME@XGK@@YAXPEAUTime@2@PEAUTransition@2@@Z ENDP ; XGK::TIME::cancelTransition2
_TEXT	ENDS
; Function compile flags: /Ogtpy
;	COMDAT ?cancelTransition@TIME@XGK@@YAXPEAUTime@2@PEAUTransition@2@@Z
_TEXT	SEGMENT
time$ = 8
transition$ = 16
?cancelTransition@TIME@XGK@@YAXPEAUTime@2@PEAUTransition@2@@Z PROC ; XGK::TIME::cancelTransition, COMDAT
; File E:\reps\denis-belov\xgk\src\time\time.cpp
; Line 60
	mov	BYTE PTR [rdx], 0
; Line 62
	dec	QWORD PTR [rcx+40]
	mov	rdx, QWORD PTR [rcx+48]
	mov	rax, QWORD PTR [rcx+40]
	mov	r8, QWORD PTR [rcx+24]
	mov	rax, QWORD PTR [r8+rax*8]
	mov	QWORD PTR [r8+rdx*8], rax
; Line 63
	mov	rdx, QWORD PTR [rcx+40]
	mov	rax, QWORD PTR [rcx+24]
	dec	QWORD PTR [rcx+48]
	mov	QWORD PTR [rax+rdx*8], 0
; Line 69
	ret	0
?cancelTransition@TIME@XGK@@YAXPEAUTime@2@PEAUTransition@2@@Z ENDP ; XGK::TIME::cancelTransition
_TEXT	ENDS
; Function compile flags: /Ogtpy
;	COMDAT ?init@TIME@XGK@@YAXPEAUTime@2@_K@Z
_TEXT	SEGMENT
$T1 = 48
time$2 = 48
time$ = 48
freq$3 = 56
stack_max_size$ = 56
?init@TIME@XGK@@YAXPEAUTime@2@_K@Z PROC			; XGK::TIME::init, COMDAT
; File E:\reps\denis-belov\xgk\src\time\time.cpp
; Line 42
$LN25:
	mov	QWORD PTR [rsp+24], rbx
	mov	QWORD PTR [rsp+32], rsi
	push	rdi
	sub	rsp, 32					; 00000020H
	mov	rdi, rcx
	mov	rbx, rdx
; Line 19
	lea	rcx, QWORD PTR freq$3[rsp]
	call	QWORD PTR __imp_QueryPerformanceFrequency
	test	eax, eax
	jne	SHORT $LN4@init
	xorps	xmm1, xmm1
; Line 21
	jmp	SHORT $LN3@init
$LN4@init:
; Line 24
	lea	rcx, QWORD PTR time$2[rsp]
	call	QWORD PTR __imp_QueryPerformanceCounter
	xorps	xmm1, xmm1
	test	eax, eax
	je	SHORT $LN3@init
; Line 29
	cvtsi2ss xmm1, QWORD PTR time$2[rsp]
	xorps	xmm0, xmm0
	cvtsi2ss xmm0, QWORD PTR freq$3[rsp]
	divss	xmm1, xmm0
$LN3@init:
; Line 44
	mulss	xmm1, DWORD PTR __real@447a0000
; Line 45
	xor	eax, eax
	mov	DWORD PTR [rdi+36], eax
; Line 46
	mov	QWORD PTR [rdi+40], rax
; Line 47
	mov	QWORD PTR [rdi+48], rax
	movss	DWORD PTR [rdi+32], xmm1
; File C:\Program Files (x86)\Microsoft Visual Studio\2019\Community\VC\Tools\MSVC\14.23.28105\include\vector
; Line 1166
	mov	rsi, QWORD PTR [rdi+8]
	mov	rdx, QWORD PTR [rdi]
	mov	rcx, rsi
	sub	rcx, rdx
; Line 1193
	mov	BYTE PTR $T1[rsp], al
; Line 1166
	sar	rcx, 3
; Line 1167
	cmp	rbx, rcx
	jae	SHORT $LN10@init
; Line 1168
	lea	rax, QWORD PTR [rdx+rbx*8]
; Line 1171
	mov	QWORD PTR [rdi+8], rax
$LN22@init:
; File E:\reps\denis-belov\xgk\src\time\time.cpp
; Line 51
	mov	QWORD PTR [rdi+24], rdx
	mov	rbx, QWORD PTR [rsp+64]
	mov	rsi, QWORD PTR [rsp+72]
	add	rsp, 32					; 00000020H
	pop	rdi
	ret	0
$LN10@init:
; File C:\Program Files (x86)\Microsoft Visual Studio\2019\Community\VC\Tools\MSVC\14.23.28105\include\vector
; Line 1175
	jbe	SHORT $LN22@init
; Line 1176
	mov	rax, QWORD PTR [rdi+16]
	sub	rax, rdx
	sar	rax, 3
; Line 1177
	cmp	rbx, rax
	jbe	SHORT $LN12@init
; Line 1178
	lea	r8, QWORD PTR $T1[rsp]
	mov	rdx, rbx
	mov	rcx, rdi
	call	??$_Resize_reallocate@U_Value_init_tag@std@@@?$vector@PEAUTransition@XGK@@V?$allocator@PEAUTransition@XGK@@@std@@@std@@AEAAX_KAEBU_Value_init_tag@1@@Z ; std::vector<XGK::Transition *,std::allocator<XGK::Transition *> >::_Resize_reallocate<std::_Value_init_tag>
; File E:\reps\denis-belov\xgk\src\time\time.cpp
; Line 50
	mov	rax, QWORD PTR [rdi]
	mov	QWORD PTR [rdi+24], rax
; Line 51
	mov	rbx, QWORD PTR [rsp+64]
	mov	rsi, QWORD PTR [rsp+72]
	add	rsp, 32					; 00000020H
	pop	rdi
	ret	0
$LN12@init:
; File C:\Program Files (x86)\Microsoft Visual Studio\2019\Community\VC\Tools\MSVC\14.23.28105\include\vector
; Line 1183
	sub	rbx, rcx
; File C:\Program Files (x86)\Microsoft Visual Studio\2019\Community\VC\Tools\MSVC\14.23.28105\include\xmemory
; Line 1901
	xor	edx, edx
	mov	rcx, rsi
; Line 1914
	lea	rbx, QWORD PTR [rbx*8]
; Line 1901
	mov	r8, rbx
	call	memset
; Line 1915
	lea	rax, QWORD PTR [rbx+rsi]
; File E:\reps\denis-belov\xgk\src\time\time.cpp
; Line 51
	mov	rbx, QWORD PTR [rsp+64]
	mov	rsi, QWORD PTR [rsp+72]
; File C:\Program Files (x86)\Microsoft Visual Studio\2019\Community\VC\Tools\MSVC\14.23.28105\include\vector
; Line 1183
	mov	QWORD PTR [rdi+8], rax
; File E:\reps\denis-belov\xgk\src\time\time.cpp
; Line 50
	mov	rax, QWORD PTR [rdi]
	mov	QWORD PTR [rdi+24], rax
; Line 51
	add	rsp, 32					; 00000020H
	pop	rdi
	ret	0
?init@TIME@XGK@@YAXPEAUTime@2@_K@Z ENDP			; XGK::TIME::init
_TEXT	ENDS
; Function compile flags: /Ogtpy
;	COMDAT ?idle_function@XGK@@YAXMPEAX@Z
_TEXT	SEGMENT
__formal$ = 8
__formal$ = 16
?idle_function@XGK@@YAXMPEAX@Z PROC			; XGK::idle_function, COMDAT
; File E:\reps\denis-belov\xgk\src\time\time.cpp
; Line 36
	ret	0
?idle_function@XGK@@YAXMPEAX@Z ENDP			; XGK::idle_function
_TEXT	ENDS
; Function compile flags: /Ogtpy
;	COMDAT ?getWallTime@@YAMXZ
_TEXT	SEGMENT
time$ = 48
freq$ = 56
?getWallTime@@YAMXZ PROC				; getWallTime, COMDAT
; File E:\reps\denis-belov\xgk\src\time\time.cpp
; Line 14
$LN7:
	sub	rsp, 40					; 00000028H
; Line 19
	lea	rcx, QWORD PTR freq$[rsp]
	call	QWORD PTR __imp_QueryPerformanceFrequency
	test	eax, eax
	je	SHORT $LN5@getWallTim
; Line 24
	lea	rcx, QWORD PTR time$[rsp]
	call	QWORD PTR __imp_QueryPerformanceCounter
	test	eax, eax
	je	SHORT $LN5@getWallTim
; Line 29
	xorps	xmm0, xmm0
	xorps	xmm1, xmm1
	cvtsi2ss xmm0, QWORD PTR time$[rsp]
	cvtsi2ss xmm1, QWORD PTR freq$[rsp]
	divss	xmm0, xmm1
; Line 30
	add	rsp, 40					; 00000028H
	ret	0
$LN5@getWallTim:
	xorps	xmm0, xmm0
	add	rsp, 40					; 00000028H
	ret	0
?getWallTime@@YAMXZ ENDP				; getWallTime
_TEXT	ENDS
; Function compile flags: /Ogtpy
;	COMDAT ?_Get_first@?$_Compressed_pair@V?$allocator@PEAUTransition@XGK@@@std@@V?$_Vector_val@U?$_Simple_types@PEAUTransition@XGK@@@std@@@2@$00@std@@QEBAAEBV?$allocator@PEAUTransition@XGK@@@2@XZ
_TEXT	SEGMENT
this$ = 8
?_Get_first@?$_Compressed_pair@V?$allocator@PEAUTransition@XGK@@@std@@V?$_Vector_val@U?$_Simple_types@PEAUTransition@XGK@@@std@@@2@$00@std@@QEBAAEBV?$allocator@PEAUTransition@XGK@@@2@XZ PROC ; std::_Compressed_pair<std::allocator<XGK::Transition *>,std::_Vector_val<std::_Simple_types<XGK::Transition *> >,1>::_Get_first, COMDAT
; File C:\Program Files (x86)\Microsoft Visual Studio\2019\Community\VC\Tools\MSVC\14.23.28105\include\xmemory
; Line 1425
	mov	rax, rcx
; Line 1426
	ret	0
?_Get_first@?$_Compressed_pair@V?$allocator@PEAUTransition@XGK@@@std@@V?$_Vector_val@U?$_Simple_types@PEAUTransition@XGK@@@std@@@2@$00@std@@QEBAAEBV?$allocator@PEAUTransition@XGK@@@2@XZ ENDP ; std::_Compressed_pair<std::allocator<XGK::Transition *>,std::_Vector_val<std::_Simple_types<XGK::Transition *> >,1>::_Get_first
_TEXT	ENDS
; Function compile flags: /Ogtpy
;	COMDAT ?_Get_first@?$_Compressed_pair@V?$allocator@PEAUTransition@XGK@@@std@@V?$_Vector_val@U?$_Simple_types@PEAUTransition@XGK@@@std@@@2@$00@std@@QEAAAEAV?$allocator@PEAUTransition@XGK@@@2@XZ
_TEXT	SEGMENT
this$ = 8
?_Get_first@?$_Compressed_pair@V?$allocator@PEAUTransition@XGK@@@std@@V?$_Vector_val@U?$_Simple_types@PEAUTransition@XGK@@@std@@@2@$00@std@@QEAAAEAV?$allocator@PEAUTransition@XGK@@@2@XZ PROC ; std::_Compressed_pair<std::allocator<XGK::Transition *>,std::_Vector_val<std::_Simple_types<XGK::Transition *> >,1>::_Get_first, COMDAT
; File C:\Program Files (x86)\Microsoft Visual Studio\2019\Community\VC\Tools\MSVC\14.23.28105\include\xmemory
; Line 1421
	mov	rax, rcx
; Line 1422
	ret	0
?_Get_first@?$_Compressed_pair@V?$allocator@PEAUTransition@XGK@@@std@@V?$_Vector_val@U?$_Simple_types@PEAUTransition@XGK@@@std@@@2@$00@std@@QEAAAEAV?$allocator@PEAUTransition@XGK@@@2@XZ ENDP ; std::_Compressed_pair<std::allocator<XGK::Transition *>,std::_Vector_val<std::_Simple_types<XGK::Transition *> >,1>::_Get_first
_TEXT	ENDS
; Function compile flags: /Ogtpy
;	COMDAT ?_Getal@?$vector@PEAUTransition@XGK@@V?$allocator@PEAUTransition@XGK@@@std@@@std@@AEBAAEBV?$allocator@PEAUTransition@XGK@@@2@XZ
_TEXT	SEGMENT
this$ = 8
?_Getal@?$vector@PEAUTransition@XGK@@V?$allocator@PEAUTransition@XGK@@@std@@@std@@AEBAAEBV?$allocator@PEAUTransition@XGK@@@2@XZ PROC ; std::vector<XGK::Transition *,std::allocator<XGK::Transition *> >::_Getal, COMDAT
; File C:\Program Files (x86)\Microsoft Visual Studio\2019\Community\VC\Tools\MSVC\14.23.28105\include\vector
; Line 1693
	mov	rax, rcx
; Line 1694
	ret	0
?_Getal@?$vector@PEAUTransition@XGK@@V?$allocator@PEAUTransition@XGK@@@std@@@std@@AEBAAEBV?$allocator@PEAUTransition@XGK@@@2@XZ ENDP ; std::vector<XGK::Transition *,std::allocator<XGK::Transition *> >::_Getal
_TEXT	ENDS
; Function compile flags: /Ogtpy
;	COMDAT ?_Getal@?$vector@PEAUTransition@XGK@@V?$allocator@PEAUTransition@XGK@@@std@@@std@@AEAAAEAV?$allocator@PEAUTransition@XGK@@@2@XZ
_TEXT	SEGMENT
this$ = 8
?_Getal@?$vector@PEAUTransition@XGK@@V?$allocator@PEAUTransition@XGK@@@std@@@std@@AEAAAEAV?$allocator@PEAUTransition@XGK@@@2@XZ PROC ; std::vector<XGK::Transition *,std::allocator<XGK::Transition *> >::_Getal, COMDAT
; File C:\Program Files (x86)\Microsoft Visual Studio\2019\Community\VC\Tools\MSVC\14.23.28105\include\vector
; Line 1689
	mov	rax, rcx
; Line 1690
	ret	0
?_Getal@?$vector@PEAUTransition@XGK@@V?$allocator@PEAUTransition@XGK@@@std@@@std@@AEAAAEAV?$allocator@PEAUTransition@XGK@@@2@XZ ENDP ; std::vector<XGK::Transition *,std::allocator<XGK::Transition *> >::_Getal
_TEXT	ENDS
; Function compile flags: /Ogtpy
;	COMDAT ?_Orphan_range@?$vector@PEAUTransition@XGK@@V?$allocator@PEAUTransition@XGK@@@std@@@std@@AEBAXPEAPEAUTransition@XGK@@0@Z
_TEXT	SEGMENT
this$ = 8
_First$ = 16
_Last$ = 24
?_Orphan_range@?$vector@PEAUTransition@XGK@@V?$allocator@PEAUTransition@XGK@@@std@@@std@@AEBAXPEAPEAUTransition@XGK@@0@Z PROC ; std::vector<XGK::Transition *,std::allocator<XGK::Transition *> >::_Orphan_range, COMDAT
; File C:\Program Files (x86)\Microsoft Visual Studio\2019\Community\VC\Tools\MSVC\14.23.28105\include\vector
; Line 1686
	ret	0
?_Orphan_range@?$vector@PEAUTransition@XGK@@V?$allocator@PEAUTransition@XGK@@@std@@@std@@AEBAXPEAPEAUTransition@XGK@@0@Z ENDP ; std::vector<XGK::Transition *,std::allocator<XGK::Transition *> >::_Orphan_range
_TEXT	ENDS
; Function compile flags: /Ogtpy
;	COMDAT ?_Xlength@?$vector@PEAUTransition@XGK@@V?$allocator@PEAUTransition@XGK@@@std@@@std@@CAXXZ
_TEXT	SEGMENT
?_Xlength@?$vector@PEAUTransition@XGK@@V?$allocator@PEAUTransition@XGK@@@std@@@std@@CAXXZ PROC ; std::vector<XGK::Transition *,std::allocator<XGK::Transition *> >::_Xlength, COMDAT
; File C:\Program Files (x86)\Microsoft Visual Studio\2019\Community\VC\Tools\MSVC\14.23.28105\include\vector
; Line 1660
$LN4:
	sub	rsp, 40					; 00000028H
; Line 1661
	lea	rcx, OFFSET FLAT:??_C@_0BD@OLBABOEK@vector?$DMT?$DO?5too?5long@
	call	?_Xlength_error@std@@YAXPEBD@Z		; std::_Xlength_error
	int	3
$LN3@Xlength:
?_Xlength@?$vector@PEAUTransition@XGK@@V?$allocator@PEAUTransition@XGK@@@std@@@std@@CAXXZ ENDP ; std::vector<XGK::Transition *,std::allocator<XGK::Transition *> >::_Xlength
_TEXT	ENDS
; Function compile flags: /Ogtpy
;	COMDAT ?_Change_array@?$vector@PEAUTransition@XGK@@V?$allocator@PEAUTransition@XGK@@@std@@@std@@AEAAXQEAPEAUTransition@XGK@@_K1@Z
_TEXT	SEGMENT
this$ = 48
_Newvec$ = 56
_Newsize$ = 64
_Newcapacity$ = 72
?_Change_array@?$vector@PEAUTransition@XGK@@V?$allocator@PEAUTransition@XGK@@@std@@@std@@AEAAXQEAPEAUTransition@XGK@@_K1@Z PROC ; std::vector<XGK::Transition *,std::allocator<XGK::Transition *> >::_Change_array, COMDAT
; File C:\Program Files (x86)\Microsoft Visual Studio\2019\Community\VC\Tools\MSVC\14.23.28105\include\vector
; Line 1623
$LN25:
	mov	QWORD PTR [rsp+8], rbx
	mov	QWORD PTR [rsp+16], rbp
	mov	QWORD PTR [rsp+24], rsi
	push	rdi
	sub	rsp, 32					; 00000020H
	mov	rbx, rcx
	mov	rsi, r9
; Line 1632
	mov	rcx, QWORD PTR [rcx]
	mov	rbp, r8
	mov	rdi, rdx
	test	rcx, rcx
	je	SHORT $LN8@Change_arr
; Line 1634
	mov	rdx, QWORD PTR [rbx+16]
	sub	rdx, rcx
; File C:\Program Files (x86)\Microsoft Visual Studio\2019\Community\VC\Tools\MSVC\14.23.28105\include\xmemory
; Line 867
	and	rdx, -8
; Line 186
	cmp	rdx, 4096				; 00001000H
	jb	SHORT $LN18@Change_arr
; Line 107
	mov	r8, QWORD PTR [rcx-8]
	add	rdx, 39					; 00000027H
; Line 120
	sub	rcx, r8
; Line 121
	lea	rax, QWORD PTR [rcx-8]
	cmp	rax, 31
	ja	SHORT $LN15@Change_arr
; Line 122
	mov	rcx, r8
$LN18@Change_arr:
; Line 191
	call	??3@YAXPEAX_K@Z				; operator delete
$LN8@Change_arr:
; File C:\Program Files (x86)\Microsoft Visual Studio\2019\Community\VC\Tools\MSVC\14.23.28105\include\vector
; Line 1638
	lea	rax, QWORD PTR [rdi+rbp*8]
	mov	QWORD PTR [rbx], rdi
; Line 1640
	mov	rbp, QWORD PTR [rsp+56]
	mov	QWORD PTR [rbx+8], rax
	lea	rax, QWORD PTR [rdi+rsi*8]
	mov	rsi, QWORD PTR [rsp+64]
	mov	QWORD PTR [rbx+16], rax
	mov	rbx, QWORD PTR [rsp+48]
	add	rsp, 32					; 00000020H
	pop	rdi
	ret	0
$LN15@Change_arr:
; File C:\Program Files (x86)\Microsoft Visual Studio\2019\Community\VC\Tools\MSVC\14.23.28105\include\xmemory
; Line 121
	call	QWORD PTR __imp__invalid_parameter_noinfo_noreturn
	int	3
$LN22@Change_arr:
?_Change_array@?$vector@PEAUTransition@XGK@@V?$allocator@PEAUTransition@XGK@@@std@@@std@@AEAAXQEAPEAUTransition@XGK@@_K1@Z ENDP ; std::vector<XGK::Transition *,std::allocator<XGK::Transition *> >::_Change_array
_TEXT	ENDS
; Function compile flags: /Ogtpy
;	COMDAT ?_Calculate_growth@?$vector@PEAUTransition@XGK@@V?$allocator@PEAUTransition@XGK@@@std@@@std@@AEBA_K_K@Z
_TEXT	SEGMENT
this$ = 8
_Newsize$ = 16
?_Calculate_growth@?$vector@PEAUTransition@XGK@@V?$allocator@PEAUTransition@XGK@@@std@@@std@@AEBA_K_K@Z PROC ; std::vector<XGK::Transition *,std::allocator<XGK::Transition *> >::_Calculate_growth, COMDAT
; File C:\Program Files (x86)\Microsoft Visual Studio\2019\Community\VC\Tools\MSVC\14.23.28105\include\vector
; Line 1448
	mov	r8, QWORD PTR [rcx+16]
; Line 1575
	mov	rax, 2305843009213693951		; 1fffffffffffffffH
; Line 1448
	sub	r8, QWORD PTR [rcx]
	sar	r8, 3
; Line 1575
	mov	rcx, r8
	shr	rcx, 1
	sub	rax, rcx
	cmp	r8, rax
	ja	SHORT $LN7@Calculate_
; Line 1579
	lea	rax, QWORD PTR [rcx+r8]
; Line 1581
	cmp	rax, rdx
	jae	SHORT $LN1@Calculate_
$LN7@Calculate_:
; Line 1582
	mov	rax, rdx
$LN1@Calculate_:
; Line 1586
	ret	0
?_Calculate_growth@?$vector@PEAUTransition@XGK@@V?$allocator@PEAUTransition@XGK@@@std@@@std@@AEBA_K_K@Z ENDP ; std::vector<XGK::Transition *,std::allocator<XGK::Transition *> >::_Calculate_growth
_TEXT	ENDS
; Function compile flags: /Ogtpy
;	COMDAT ?_Destroy@?$vector@PEAUTransition@XGK@@V?$allocator@PEAUTransition@XGK@@@std@@@std@@AEAAXPEAPEAUTransition@XGK@@0@Z
_TEXT	SEGMENT
this$ = 8
_First$ = 16
_Last$ = 24
?_Destroy@?$vector@PEAUTransition@XGK@@V?$allocator@PEAUTransition@XGK@@@std@@@std@@AEAAXPEAPEAUTransition@XGK@@0@Z PROC ; std::vector<XGK::Transition *,std::allocator<XGK::Transition *> >::_Destroy, COMDAT
; File C:\Program Files (x86)\Microsoft Visual Studio\2019\Community\VC\Tools\MSVC\14.23.28105\include\vector
; Line 1569
	ret	0
?_Destroy@?$vector@PEAUTransition@XGK@@V?$allocator@PEAUTransition@XGK@@@std@@@std@@AEAAXPEAPEAUTransition@XGK@@0@Z ENDP ; std::vector<XGK::Transition *,std::allocator<XGK::Transition *> >::_Destroy
_TEXT	ENDS
; Function compile flags: /Ogtpy
;	COMDAT ?_Umove_if_noexcept@?$vector@PEAUTransition@XGK@@V?$allocator@PEAUTransition@XGK@@@std@@@std@@AEAAXPEAPEAUTransition@XGK@@00@Z
_TEXT	SEGMENT
this$ = 8
_First$ = 16
_Last$ = 24
_Dest$ = 32
?_Umove_if_noexcept@?$vector@PEAUTransition@XGK@@V?$allocator@PEAUTransition@XGK@@@std@@@std@@AEAAXPEAPEAUTransition@XGK@@00@Z PROC ; std::vector<XGK::Transition *,std::allocator<XGK::Transition *> >::_Umove_if_noexcept, COMDAT
; File C:\Program Files (x86)\Microsoft Visual Studio\2019\Community\VC\Tools\MSVC\14.23.28105\include\vector
; File C:\Program Files (x86)\Microsoft Visual Studio\2019\Community\VC\Tools\MSVC\14.23.28105\include\xutility
; Line 1743
	sub	r8, rdx
; Line 1744
	mov	rcx, r9
	jmp	memmove
?_Umove_if_noexcept@?$vector@PEAUTransition@XGK@@V?$allocator@PEAUTransition@XGK@@@std@@@std@@AEAAXPEAPEAUTransition@XGK@@00@Z ENDP ; std::vector<XGK::Transition *,std::allocator<XGK::Transition *> >::_Umove_if_noexcept
_TEXT	ENDS
; Function compile flags: /Ogtpy
;	COMDAT ?_Umove_if_noexcept1@?$vector@PEAUTransition@XGK@@V?$allocator@PEAUTransition@XGK@@@std@@@std@@AEAAXPEAPEAUTransition@XGK@@00U?$integral_constant@_N$00@2@@Z
_TEXT	SEGMENT
this$ = 8
_First$ = 16
_Last$ = 24
_Dest$ = 32
__formal$ = 40
?_Umove_if_noexcept1@?$vector@PEAUTransition@XGK@@V?$allocator@PEAUTransition@XGK@@@std@@@std@@AEAAXPEAPEAUTransition@XGK@@00U?$integral_constant@_N$00@2@@Z PROC ; std::vector<XGK::Transition *,std::allocator<XGK::Transition *> >::_Umove_if_noexcept1, COMDAT
; File C:\Program Files (x86)\Microsoft Visual Studio\2019\Community\VC\Tools\MSVC\14.23.28105\include\vector
; File C:\Program Files (x86)\Microsoft Visual Studio\2019\Community\VC\Tools\MSVC\14.23.28105\include\xutility
; Line 1743
	sub	r8, rdx
; Line 1744
	mov	rcx, r9
	jmp	memmove
?_Umove_if_noexcept1@?$vector@PEAUTransition@XGK@@V?$allocator@PEAUTransition@XGK@@@std@@@std@@AEAAXPEAPEAUTransition@XGK@@00U?$integral_constant@_N$00@2@@Z ENDP ; std::vector<XGK::Transition *,std::allocator<XGK::Transition *> >::_Umove_if_noexcept1
_TEXT	ENDS
; Function compile flags: /Ogtpy
;	COMDAT ?_Ufill@?$vector@PEAUTransition@XGK@@V?$allocator@PEAUTransition@XGK@@@std@@@std@@AEAAPEAPEAUTransition@XGK@@PEAPEAU34@_KU_Value_init_tag@2@@Z
_TEXT	SEGMENT
this$ = 48
_Dest$ = 56
_Count$ = 64
__formal$ = 72
?_Ufill@?$vector@PEAUTransition@XGK@@V?$allocator@PEAUTransition@XGK@@@std@@@std@@AEAAPEAPEAUTransition@XGK@@PEAPEAU34@_KU_Value_init_tag@2@@Z PROC ; std::vector<XGK::Transition *,std::allocator<XGK::Transition *> >::_Ufill, COMDAT
; File C:\Program Files (x86)\Microsoft Visual Studio\2019\Community\VC\Tools\MSVC\14.23.28105\include\vector
; Line 1537
$LN8:
	mov	QWORD PTR [rsp+8], rbx
	push	rdi
	sub	rsp, 32					; 00000020H
	mov	rdi, rdx
; File C:\Program Files (x86)\Microsoft Visual Studio\2019\Community\VC\Tools\MSVC\14.23.28105\include\xmemory
; Line 1914
	lea	rbx, QWORD PTR [r8*8]
; Line 1901
	mov	r8, rbx
	mov	rcx, rdi
	xor	edx, edx
	call	memset
; Line 1915
	lea	rax, QWORD PTR [rbx+rdi]
; File C:\Program Files (x86)\Microsoft Visual Studio\2019\Community\VC\Tools\MSVC\14.23.28105\include\vector
; Line 1540
	mov	rbx, QWORD PTR [rsp+48]
	add	rsp, 32					; 00000020H
	pop	rdi
	ret	0
?_Ufill@?$vector@PEAUTransition@XGK@@V?$allocator@PEAUTransition@XGK@@@std@@@std@@AEAAPEAPEAUTransition@XGK@@PEAPEAU34@_KU_Value_init_tag@2@@Z ENDP ; std::vector<XGK::Transition *,std::allocator<XGK::Transition *> >::_Ufill
_TEXT	ENDS
; Function compile flags: /Ogtpy
;	COMDAT ?capacity@?$vector@PEAUTransition@XGK@@V?$allocator@PEAUTransition@XGK@@@std@@@std@@QEBA_KXZ
_TEXT	SEGMENT
this$ = 8
?capacity@?$vector@PEAUTransition@XGK@@V?$allocator@PEAUTransition@XGK@@@std@@@std@@QEBA_KXZ PROC ; std::vector<XGK::Transition *,std::allocator<XGK::Transition *> >::capacity, COMDAT
; File C:\Program Files (x86)\Microsoft Visual Studio\2019\Community\VC\Tools\MSVC\14.23.28105\include\vector
; Line 1448
	mov	rax, QWORD PTR [rcx+16]
	sub	rax, QWORD PTR [rcx]
	sar	rax, 3
; Line 1449
	ret	0
?capacity@?$vector@PEAUTransition@XGK@@V?$allocator@PEAUTransition@XGK@@@std@@@std@@QEBA_KXZ ENDP ; std::vector<XGK::Transition *,std::allocator<XGK::Transition *> >::capacity
_TEXT	ENDS
; Function compile flags: /Ogtpy
;	COMDAT ?max_size@?$vector@PEAUTransition@XGK@@V?$allocator@PEAUTransition@XGK@@@std@@@std@@QEBA_KXZ
_TEXT	SEGMENT
this$ = 8
?max_size@?$vector@PEAUTransition@XGK@@V?$allocator@PEAUTransition@XGK@@@std@@@std@@QEBA_KXZ PROC ; std::vector<XGK::Transition *,std::allocator<XGK::Transition *> >::max_size, COMDAT
; File C:\Program Files (x86)\Microsoft Visual Studio\2019\Community\VC\Tools\MSVC\14.23.28105\include\vector
; Line 1442
	mov	rax, 2305843009213693951		; 1fffffffffffffffH
; Line 1444
	ret	0
?max_size@?$vector@PEAUTransition@XGK@@V?$allocator@PEAUTransition@XGK@@@std@@@std@@QEBA_KXZ ENDP ; std::vector<XGK::Transition *,std::allocator<XGK::Transition *> >::max_size
_TEXT	ENDS
; Function compile flags: /Ogtpy
;	COMDAT ?data@?$vector@PEAUTransition@XGK@@V?$allocator@PEAUTransition@XGK@@@std@@@std@@QEAAPEAPEAUTransition@XGK@@XZ
_TEXT	SEGMENT
this$ = 8
?data@?$vector@PEAUTransition@XGK@@V?$allocator@PEAUTransition@XGK@@@std@@@std@@QEAAPEAPEAUTransition@XGK@@XZ PROC ; std::vector<XGK::Transition *,std::allocator<XGK::Transition *> >::data, COMDAT
; File C:\Program Files (x86)\Microsoft Visual Studio\2019\Community\VC\Tools\MSVC\14.23.28105\include\vector
; Line 1353
	mov	rax, QWORD PTR [rcx]
; Line 1354
	ret	0
?data@?$vector@PEAUTransition@XGK@@V?$allocator@PEAUTransition@XGK@@@std@@@std@@QEAAPEAPEAUTransition@XGK@@XZ ENDP ; std::vector<XGK::Transition *,std::allocator<XGK::Transition *> >::data
_TEXT	ENDS
; Function compile flags: /Ogtpy
;	COMDAT ?resize@?$vector@PEAUTransition@XGK@@V?$allocator@PEAUTransition@XGK@@@std@@@std@@QEAAX_K@Z
_TEXT	SEGMENT
$T1 = 48
this$ = 48
_Newsize$ = 56
?resize@?$vector@PEAUTransition@XGK@@V?$allocator@PEAUTransition@XGK@@@std@@@std@@QEAAX_K@Z PROC ; std::vector<XGK::Transition *,std::allocator<XGK::Transition *> >::resize, COMDAT
; File C:\Program Files (x86)\Microsoft Visual Studio\2019\Community\VC\Tools\MSVC\14.23.28105\include\vector
; Line 1191
$LN16:
	mov	QWORD PTR [rsp+24], rsi
	push	rdi
	sub	rsp, 32					; 00000020H
; Line 1166
	mov	rsi, QWORD PTR [rcx+8]
; Line 1191
	mov	rdi, rcx
; Line 1166
	mov	r8, QWORD PTR [rcx]
	mov	rcx, rsi
	sub	rcx, r8
; Line 1193
	mov	BYTE PTR $T1[rsp], 0
; Line 1166
	sar	rcx, 3
; Line 1167
	cmp	rdx, rcx
	jae	SHORT $LN4@resize
; Line 1168
	lea	rax, QWORD PTR [r8+rdx*8]
; Line 1194
	mov	QWORD PTR [rdi+8], rax
	mov	rsi, QWORD PTR [rsp+64]
	add	rsp, 32					; 00000020H
	pop	rdi
	ret	0
$LN4@resize:
; Line 1175
	jbe	SHORT $LN5@resize
; Line 1176
	mov	rax, QWORD PTR [rdi+16]
	sub	rax, r8
	sar	rax, 3
; Line 1177
	cmp	rdx, rax
	jbe	SHORT $LN6@resize
; Line 1178
	lea	r8, QWORD PTR $T1[rsp]
	mov	rcx, rdi
	call	??$_Resize_reallocate@U_Value_init_tag@std@@@?$vector@PEAUTransition@XGK@@V?$allocator@PEAUTransition@XGK@@@std@@@std@@AEAAX_KAEBU_Value_init_tag@1@@Z ; std::vector<XGK::Transition *,std::allocator<XGK::Transition *> >::_Resize_reallocate<std::_Value_init_tag>
; Line 1194
	mov	rsi, QWORD PTR [rsp+64]
	add	rsp, 32					; 00000020H
	pop	rdi
	ret	0
$LN6@resize:
; Line 1183
	sub	rdx, rcx
	mov	QWORD PTR [rsp+56], rbx
; File C:\Program Files (x86)\Microsoft Visual Studio\2019\Community\VC\Tools\MSVC\14.23.28105\include\xmemory
; Line 1901
	mov	rcx, rsi
; Line 1914
	lea	rbx, QWORD PTR [rdx*8]
; Line 1901
	xor	edx, edx
	mov	r8, rbx
	call	memset
; Line 1915
	lea	rax, QWORD PTR [rbx+rsi]
; File C:\Program Files (x86)\Microsoft Visual Studio\2019\Community\VC\Tools\MSVC\14.23.28105\include\vector
; Line 1183
	mov	rbx, QWORD PTR [rsp+56]
; Line 1194
	mov	QWORD PTR [rdi+8], rax
$LN5@resize:
	mov	rsi, QWORD PTR [rsp+64]
	add	rsp, 32					; 00000020H
	pop	rdi
	ret	0
?resize@?$vector@PEAUTransition@XGK@@V?$allocator@PEAUTransition@XGK@@@std@@@std@@QEAAX_K@Z ENDP ; std::vector<XGK::Transition *,std::allocator<XGK::Transition *> >::resize
_TEXT	ENDS
; Function compile flags: /Ogtpy
;	COMDAT ?max_size@?$_Default_allocator_traits@V?$allocator@PEAUTransition@XGK@@@std@@@std@@SA_KAEBV?$allocator@PEAUTransition@XGK@@@2@@Z
_TEXT	SEGMENT
__formal$ = 8
?max_size@?$_Default_allocator_traits@V?$allocator@PEAUTransition@XGK@@@std@@@std@@SA_KAEBV?$allocator@PEAUTransition@XGK@@@2@@Z PROC ; std::_Default_allocator_traits<std::allocator<XGK::Transition *> >::max_size, COMDAT
; File C:\Program Files (x86)\Microsoft Visual Studio\2019\Community\VC\Tools\MSVC\14.23.28105\include\xmemory
; Line 767
	mov	rax, 2305843009213693951		; 1fffffffffffffffH
; Line 768
	ret	0
?max_size@?$_Default_allocator_traits@V?$allocator@PEAUTransition@XGK@@@std@@@std@@SA_KAEBV?$allocator@PEAUTransition@XGK@@@2@@Z ENDP ; std::_Default_allocator_traits<std::allocator<XGK::Transition *> >::max_size
_TEXT	ENDS
; Function compile flags: /Ogtpy
;	COMDAT ?allocate@?$allocator@PEAUTransition@XGK@@@std@@QEAAPEAPEAUTransition@XGK@@_K@Z
_TEXT	SEGMENT
this$ = 48
_Count$ = 56
?allocate@?$allocator@PEAUTransition@XGK@@@std@@QEAAPEAPEAUTransition@XGK@@_K@Z PROC ; std::allocator<XGK::Transition *>::allocate, COMDAT
; File C:\Program Files (x86)\Microsoft Visual Studio\2019\Community\VC\Tools\MSVC\14.23.28105\include\xmemory
; Line 870
$LN30:
	sub	rsp, 40					; 00000028H
; Line 30
	mov	rax, 2305843009213693951		; 1fffffffffffffffH
	cmp	rdx, rax
	ja	SHORT $LN27@allocate
; Line 35
	lea	rcx, QWORD PTR [rdx*8]
; Line 170
	cmp	rcx, 4096				; 00001000H
	jb	SHORT $LN8@allocate
; Line 85
	lea	rax, QWORD PTR [rcx+39]
; Line 86
	cmp	rax, rcx
	jbe	SHORT $LN27@allocate
; Line 47
	mov	rcx, rax
	call	??2@YAPEAX_K@Z				; operator new
	mov	rcx, rax
; Line 91
	test	rax, rax
	je	SHORT $LN17@allocate
; Line 92
	add	rax, 39					; 00000027H
	and	rax, -32				; ffffffffffffffe0H
; Line 93
	mov	QWORD PTR [rax-8], rcx
; Line 872
	add	rsp, 40					; 00000028H
	ret	0
$LN17@allocate:
; Line 91
	call	QWORD PTR __imp__invalid_parameter_noinfo_noreturn
	int	3
$LN8@allocate:
; Line 175
	test	rcx, rcx
	je	SHORT $LN9@allocate
; Line 872
	add	rsp, 40					; 00000028H
; Line 47
	jmp	??2@YAPEAX_K@Z				; operator new
$LN9@allocate:
; Line 179
	xor	eax, eax
; Line 872
	add	rsp, 40					; 00000028H
	ret	0
$LN27@allocate:
; Line 87
	call	?_Throw_bad_array_new_length@std@@YAXXZ	; std::_Throw_bad_array_new_length
	int	3
$LN28@allocate:
?allocate@?$allocator@PEAUTransition@XGK@@@std@@QEAAPEAPEAUTransition@XGK@@_K@Z ENDP ; std::allocator<XGK::Transition *>::allocate
_TEXT	ENDS
; Function compile flags: /Ogtpy
;	COMDAT ?deallocate@?$allocator@PEAUTransition@XGK@@@std@@QEAAXQEAPEAUTransition@XGK@@_K@Z
_TEXT	SEGMENT
this$ = 48
_Ptr$ = 56
_Count$ = 64
?deallocate@?$allocator@PEAUTransition@XGK@@@std@@QEAAXQEAPEAUTransition@XGK@@_K@Z PROC ; std::allocator<XGK::Transition *>::deallocate, COMDAT
; File C:\Program Files (x86)\Microsoft Visual Studio\2019\Community\VC\Tools\MSVC\14.23.28105\include\xmemory
; Line 865
$LN21:
	sub	rsp, 40					; 00000028H
	mov	rax, rdx
; Line 867
	lea	rdx, QWORD PTR [r8*8]
; Line 186
	cmp	rdx, 4096				; 00001000H
	jb	SHORT $LN15@deallocate
; Line 107
	mov	rcx, QWORD PTR [rax-8]
	add	rdx, 39					; 00000027H
; Line 120
	sub	rax, rcx
; Line 121
	add	rax, -8
	cmp	rax, 31
	ja	SHORT $LN12@deallocate
; Line 122
	mov	rax, rcx
$LN15@deallocate:
; Line 191
	mov	rcx, rax
; Line 868
	add	rsp, 40					; 00000028H
; Line 191
	jmp	??3@YAXPEAX_K@Z				; operator delete
$LN12@deallocate:
; Line 121
	call	QWORD PTR __imp__invalid_parameter_noinfo_noreturn
	int	3
$LN18@deallocate:
?deallocate@?$allocator@PEAUTransition@XGK@@@std@@QEAAXQEAPEAUTransition@XGK@@_K@Z ENDP ; std::allocator<XGK::Transition *>::deallocate
_TEXT	ENDS
; Function compile flags: /Ogtpy
;	COMDAT ?_Orphan_all@_Container_base0@std@@QEAAXXZ
_TEXT	SEGMENT
this$ = 8
?_Orphan_all@_Container_base0@std@@QEAAXXZ PROC		; std::_Container_base0::_Orphan_all, COMDAT
; File C:\Program Files (x86)\Microsoft Visual Studio\2019\Community\VC\Tools\MSVC\14.23.28105\include\xmemory
; Line 1148
	ret	0
?_Orphan_all@_Container_base0@std@@QEAAXXZ ENDP		; std::_Container_base0::_Orphan_all
_TEXT	ENDS
; Function compile flags: /Ogtpy
;	COMDAT ?_Adjust_manually_vector_aligned@std@@YAXAEAPEAXAEA_K@Z
_TEXT	SEGMENT
_Ptr$ = 48
_Bytes$ = 56
?_Adjust_manually_vector_aligned@std@@YAXAEAPEAXAEA_K@Z PROC ; std::_Adjust_manually_vector_aligned, COMDAT
; File C:\Program Files (x86)\Microsoft Visual Studio\2019\Community\VC\Tools\MSVC\14.23.28105\include\xmemory
; Line 102
$LN13:
	sub	rsp, 40					; 00000028H
; Line 104
	add	QWORD PTR [rdx], 39			; 00000027H
; Line 107
	mov	rax, QWORD PTR [rcx]
	mov	rdx, QWORD PTR [rax-8]
; Line 120
	sub	rax, rdx
; Line 121
	add	rax, -8
	cmp	rax, 31
	ja	SHORT $LN7@Adjust_man
; Line 122
	mov	QWORD PTR [rcx], rdx
; Line 123
	add	rsp, 40					; 00000028H
	ret	0
$LN7@Adjust_man:
; Line 121
	call	QWORD PTR __imp__invalid_parameter_noinfo_noreturn
	int	3
$LN11@Adjust_man:
?_Adjust_manually_vector_aligned@std@@YAXAEAPEAXAEA_K@Z ENDP ; std::_Adjust_manually_vector_aligned
_TEXT	ENDS
; Function compile flags: /Ogtpy
;	COMDAT ?_Allocate@_Default_allocate_traits@std@@SAPEAX_K@Z
_TEXT	SEGMENT
_Bytes$ = 8
?_Allocate@_Default_allocate_traits@std@@SAPEAX_K@Z PROC ; std::_Default_allocate_traits::_Allocate, COMDAT
; File C:\Program Files (x86)\Microsoft Visual Studio\2019\Community\VC\Tools\MSVC\14.23.28105\include\xmemory
; Line 47
	jmp	??2@YAPEAX_K@Z				; operator new
?_Allocate@_Default_allocate_traits@std@@SAPEAX_K@Z ENDP ; std::_Default_allocate_traits::_Allocate
_TEXT	ENDS
; Function compile flags: /Ogtpy
;	COMDAT ?_Throw_bad_array_new_length@std@@YAXXZ
_TEXT	SEGMENT
$T1 = 32
?_Throw_bad_array_new_length@std@@YAXXZ PROC		; std::_Throw_bad_array_new_length, COMDAT
; File C:\Program Files (x86)\Microsoft Visual Studio\2019\Community\VC\Tools\MSVC\14.23.28105\include\exception
; Line 323
$LN4:
	sub	rsp, 72					; 00000048H
; Line 324
	lea	rcx, QWORD PTR $T1[rsp]
	call	??0bad_array_new_length@std@@QEAA@XZ	; std::bad_array_new_length::bad_array_new_length
	lea	rdx, OFFSET FLAT:_TI3?AVbad_array_new_length@std@@
	lea	rcx, QWORD PTR $T1[rsp]
	call	_CxxThrowException
	int	3
$LN3@Throw_bad_:
?_Throw_bad_array_new_length@std@@YAXXZ ENDP		; std::_Throw_bad_array_new_length
_TEXT	ENDS
; Function compile flags: /Ogtpy
;	COMDAT ??_Gbad_array_new_length@std@@UEAAPEAXI@Z
_TEXT	SEGMENT
this$ = 48
__flags$ = 56
??_Gbad_array_new_length@std@@UEAAPEAXI@Z PROC		; std::bad_array_new_length::`scalar deleting destructor', COMDAT
$LN15:
	mov	QWORD PTR [rsp+8], rbx
	push	rdi
	sub	rsp, 32					; 00000020H
; File C:\Program Files (x86)\Microsoft Visual Studio\2019\Community\VC\Tools\MSVC\14.23.28105\include\vcruntime_exception.h
; Line 86
	lea	rax, OFFSET FLAT:??_7exception@std@@6B@
	mov	rdi, rcx
	mov	QWORD PTR [rcx], rax
	mov	ebx, edx
; Line 87
	add	rcx, 8
	call	__std_exception_destroy
	test	bl, 1
	je	SHORT $LN12@scalar
	mov	edx, 24
	mov	rcx, rdi
	call	??3@YAXPEAX_K@Z				; operator delete
$LN12@scalar:
	mov	rbx, QWORD PTR [rsp+48]
	mov	rax, rdi
	add	rsp, 32					; 00000020H
	pop	rdi
	ret	0
??_Gbad_array_new_length@std@@UEAAPEAXI@Z ENDP		; std::bad_array_new_length::`scalar deleting destructor'
_TEXT	ENDS
; Function compile flags: /Ogtpy
;	COMDAT ??0bad_array_new_length@std@@QEAA@AEBV01@@Z
_TEXT	SEGMENT
this$ = 48
__that$ = 56
??0bad_array_new_length@std@@QEAA@AEBV01@@Z PROC	; std::bad_array_new_length::bad_array_new_length, COMDAT
$LN10:
	push	rbx
	sub	rsp, 32					; 00000020H
	mov	rbx, rcx
	mov	rax, rdx
; File C:\Program Files (x86)\Microsoft Visual Studio\2019\Community\VC\Tools\MSVC\14.23.28105\include\vcruntime_exception.h
; Line 69
	lea	rcx, OFFSET FLAT:??_7exception@std@@6B@
	xorps	xmm0, xmm0
; Line 68
	lea	rdx, QWORD PTR [rbx+8]
; Line 69
	mov	QWORD PTR [rbx], rcx
; Line 70
	lea	rcx, QWORD PTR [rax+8]
	movups	XMMWORD PTR [rdx], xmm0
	call	__std_exception_copy
	lea	rax, OFFSET FLAT:??_7bad_array_new_length@std@@6B@
	mov	QWORD PTR [rbx], rax
	mov	rax, rbx
	add	rsp, 32					; 00000020H
	pop	rbx
	ret	0
??0bad_array_new_length@std@@QEAA@AEBV01@@Z ENDP	; std::bad_array_new_length::bad_array_new_length
_TEXT	ENDS
; Function compile flags: /Ogtpy
;	COMDAT ??1bad_array_new_length@std@@UEAA@XZ
_TEXT	SEGMENT
this$ = 8
??1bad_array_new_length@std@@UEAA@XZ PROC		; std::bad_array_new_length::~bad_array_new_length, COMDAT
; File C:\Program Files (x86)\Microsoft Visual Studio\2019\Community\VC\Tools\MSVC\14.23.28105\include\vcruntime_exception.h
; Line 86
	lea	rax, OFFSET FLAT:??_7exception@std@@6B@
	mov	QWORD PTR [rcx], rax
; Line 87
	add	rcx, 8
	jmp	__std_exception_destroy
??1bad_array_new_length@std@@UEAA@XZ ENDP		; std::bad_array_new_length::~bad_array_new_length
_TEXT	ENDS
; Function compile flags: /Ogtpy
;	COMDAT ??0bad_array_new_length@std@@QEAA@XZ
_TEXT	SEGMENT
this$ = 8
??0bad_array_new_length@std@@QEAA@XZ PROC		; std::bad_array_new_length::bad_array_new_length, COMDAT
; File C:\Program Files (x86)\Microsoft Visual Studio\2019\Community\VC\Tools\MSVC\14.23.28105\include\vcruntime_exception.h
; Line 64
	lea	rax, OFFSET FLAT:??_C@_0BF@KINCDENJ@bad?5array?5new?5length@
	mov	QWORD PTR [rcx+16], 0
	mov	QWORD PTR [rcx+8], rax
; Line 138
	lea	rax, OFFSET FLAT:??_7bad_array_new_length@std@@6B@
	mov	QWORD PTR [rcx], rax
; Line 139
	mov	rax, rcx
	ret	0
??0bad_array_new_length@std@@QEAA@XZ ENDP		; std::bad_array_new_length::bad_array_new_length
_TEXT	ENDS
; Function compile flags: /Ogtpy
;	COMDAT ??_Gbad_alloc@std@@UEAAPEAXI@Z
_TEXT	SEGMENT
this$ = 48
__flags$ = 56
??_Gbad_alloc@std@@UEAAPEAXI@Z PROC			; std::bad_alloc::`scalar deleting destructor', COMDAT
$LN12:
	mov	QWORD PTR [rsp+8], rbx
	push	rdi
	sub	rsp, 32					; 00000020H
; File C:\Program Files (x86)\Microsoft Visual Studio\2019\Community\VC\Tools\MSVC\14.23.28105\include\vcruntime_exception.h
; Line 86
	lea	rax, OFFSET FLAT:??_7exception@std@@6B@
	mov	rdi, rcx
	mov	QWORD PTR [rcx], rax
	mov	ebx, edx
; Line 87
	add	rcx, 8
	call	__std_exception_destroy
	test	bl, 1
	je	SHORT $LN9@scalar
	mov	edx, 24
	mov	rcx, rdi
	call	??3@YAXPEAX_K@Z				; operator delete
$LN9@scalar:
	mov	rbx, QWORD PTR [rsp+48]
	mov	rax, rdi
	add	rsp, 32					; 00000020H
	pop	rdi
	ret	0
??_Gbad_alloc@std@@UEAAPEAXI@Z ENDP			; std::bad_alloc::`scalar deleting destructor'
_TEXT	ENDS
; Function compile flags: /Ogtpy
;	COMDAT ??0bad_alloc@std@@QEAA@AEBV01@@Z
_TEXT	SEGMENT
this$ = 48
__that$ = 56
??0bad_alloc@std@@QEAA@AEBV01@@Z PROC			; std::bad_alloc::bad_alloc, COMDAT
$LN7:
	push	rbx
	sub	rsp, 32					; 00000020H
	mov	rbx, rcx
	mov	rax, rdx
; File C:\Program Files (x86)\Microsoft Visual Studio\2019\Community\VC\Tools\MSVC\14.23.28105\include\vcruntime_exception.h
; Line 69
	lea	rcx, OFFSET FLAT:??_7exception@std@@6B@
	xorps	xmm0, xmm0
; Line 68
	lea	rdx, QWORD PTR [rbx+8]
; Line 69
	mov	QWORD PTR [rbx], rcx
; Line 70
	lea	rcx, QWORD PTR [rax+8]
	movups	XMMWORD PTR [rdx], xmm0
	call	__std_exception_copy
	lea	rax, OFFSET FLAT:??_7bad_alloc@std@@6B@
	mov	QWORD PTR [rbx], rax
	mov	rax, rbx
	add	rsp, 32					; 00000020H
	pop	rbx
	ret	0
??0bad_alloc@std@@QEAA@AEBV01@@Z ENDP			; std::bad_alloc::bad_alloc
_TEXT	ENDS
; Function compile flags: /Ogtpy
;	COMDAT ??1bad_alloc@std@@UEAA@XZ
_TEXT	SEGMENT
this$ = 8
??1bad_alloc@std@@UEAA@XZ PROC				; std::bad_alloc::~bad_alloc, COMDAT
; File C:\Program Files (x86)\Microsoft Visual Studio\2019\Community\VC\Tools\MSVC\14.23.28105\include\vcruntime_exception.h
; Line 86
	lea	rax, OFFSET FLAT:??_7exception@std@@6B@
	mov	QWORD PTR [rcx], rax
; Line 87
	add	rcx, 8
	jmp	__std_exception_destroy
??1bad_alloc@std@@UEAA@XZ ENDP				; std::bad_alloc::~bad_alloc
_TEXT	ENDS
; Function compile flags: /Ogtpy
;	COMDAT ??0bad_alloc@std@@AEAA@QEBD@Z
_TEXT	SEGMENT
this$ = 8
_Message$ = 16
??0bad_alloc@std@@AEAA@QEBD@Z PROC			; std::bad_alloc::bad_alloc, COMDAT
; File C:\Program Files (x86)\Microsoft Visual Studio\2019\Community\VC\Tools\MSVC\14.23.28105\include\vcruntime_exception.h
; Line 127
	lea	rax, OFFSET FLAT:??_7bad_alloc@std@@6B@
; Line 62
	mov	QWORD PTR [rcx+16], 0
; Line 127
	mov	QWORD PTR [rcx], rax
; Line 128
	mov	rax, rcx
; Line 64
	mov	QWORD PTR [rcx+8], rdx
; Line 128
	ret	0
??0bad_alloc@std@@AEAA@QEBD@Z ENDP			; std::bad_alloc::bad_alloc
_TEXT	ENDS
; Function compile flags: /Ogtpy
;	COMDAT ??_Gexception@std@@UEAAPEAXI@Z
_TEXT	SEGMENT
this$ = 48
__flags$ = 56
??_Gexception@std@@UEAAPEAXI@Z PROC			; std::exception::`scalar deleting destructor', COMDAT
$LN9:
	mov	QWORD PTR [rsp+8], rbx
	push	rdi
	sub	rsp, 32					; 00000020H
; File C:\Program Files (x86)\Microsoft Visual Studio\2019\Community\VC\Tools\MSVC\14.23.28105\include\vcruntime_exception.h
; Line 86
	lea	rax, OFFSET FLAT:??_7exception@std@@6B@
	mov	rdi, rcx
	mov	QWORD PTR [rcx], rax
	mov	ebx, edx
; Line 87
	add	rcx, 8
	call	__std_exception_destroy
	test	bl, 1
	je	SHORT $LN6@scalar
	mov	edx, 24
	mov	rcx, rdi
	call	??3@YAXPEAX_K@Z				; operator delete
$LN6@scalar:
	mov	rbx, QWORD PTR [rsp+48]
	mov	rax, rdi
	add	rsp, 32					; 00000020H
	pop	rdi
	ret	0
??_Gexception@std@@UEAAPEAXI@Z ENDP			; std::exception::`scalar deleting destructor'
_TEXT	ENDS
; Function compile flags: /Ogtpy
;	COMDAT ?what@exception@std@@UEBAPEBDXZ
_TEXT	SEGMENT
this$ = 8
?what@exception@std@@UEBAPEBDXZ PROC			; std::exception::what, COMDAT
; File C:\Program Files (x86)\Microsoft Visual Studio\2019\Community\VC\Tools\MSVC\14.23.28105\include\vcruntime_exception.h
; Line 92
	mov	rdx, QWORD PTR [rcx+8]
	lea	rax, OFFSET FLAT:??_C@_0BC@EOODALEL@Unknown?5exception@
	test	rdx, rdx
	cmovne	rax, rdx
; Line 93
	ret	0
?what@exception@std@@UEBAPEBDXZ ENDP			; std::exception::what
_TEXT	ENDS
; Function compile flags: /Ogtpy
;	COMDAT ??1exception@std@@UEAA@XZ
_TEXT	SEGMENT
this$ = 8
??1exception@std@@UEAA@XZ PROC				; std::exception::~exception, COMDAT
; File C:\Program Files (x86)\Microsoft Visual Studio\2019\Community\VC\Tools\MSVC\14.23.28105\include\vcruntime_exception.h
; Line 86
	lea	rax, OFFSET FLAT:??_7exception@std@@6B@
	mov	QWORD PTR [rcx], rax
; Line 87
	add	rcx, 8
	jmp	__std_exception_destroy
??1exception@std@@UEAA@XZ ENDP				; std::exception::~exception
_TEXT	ENDS
; Function compile flags: /Ogtpy
;	COMDAT ??0exception@std@@QEAA@AEBV01@@Z
_TEXT	SEGMENT
this$ = 48
_Other$ = 56
??0exception@std@@QEAA@AEBV01@@Z PROC			; std::exception::exception, COMDAT
; File C:\Program Files (x86)\Microsoft Visual Studio\2019\Community\VC\Tools\MSVC\14.23.28105\include\vcruntime_exception.h
; Line 69
$LN5:
	push	rbx
	sub	rsp, 32					; 00000020H
	mov	rbx, rcx
	mov	rax, rdx
	lea	rcx, OFFSET FLAT:??_7exception@std@@6B@
	xorps	xmm0, xmm0
	lea	rdx, QWORD PTR [rbx+8]
	mov	QWORD PTR [rbx], rcx
; Line 70
	lea	rcx, QWORD PTR [rax+8]
	movups	XMMWORD PTR [rdx], xmm0
	call	__std_exception_copy
; Line 71
	mov	rax, rbx
	add	rsp, 32					; 00000020H
	pop	rbx
	ret	0
??0exception@std@@QEAA@AEBV01@@Z ENDP			; std::exception::exception
_TEXT	ENDS
; Function compile flags: /Ogtpy
;	COMDAT ??0exception@std@@QEAA@QEBDH@Z
_TEXT	SEGMENT
this$ = 8
_Message$ = 16
__formal$ = 24
??0exception@std@@QEAA@QEBDH@Z PROC			; std::exception::exception, COMDAT
; File C:\Program Files (x86)\Microsoft Visual Studio\2019\Community\VC\Tools\MSVC\14.23.28105\include\vcruntime_exception.h
; Line 63
	lea	rax, OFFSET FLAT:??_7exception@std@@6B@
	mov	QWORD PTR [rcx], rax
; Line 65
	mov	rax, rcx
	mov	QWORD PTR [rcx+16], 0
	mov	QWORD PTR [rcx+8], rdx
	ret	0
??0exception@std@@QEAA@QEBDH@Z ENDP			; std::exception::exception
_TEXT	ENDS
; Function compile flags: /Ogtpy
;	COMDAT ?max@?$numeric_limits@_J@std@@SA_JXZ
_TEXT	SEGMENT
?max@?$numeric_limits@_J@std@@SA_JXZ PROC		; std::numeric_limits<__int64>::max, COMDAT
; File C:\Program Files (x86)\Microsoft Visual Studio\2019\Community\VC\Tools\MSVC\14.23.28105\include\limits
; Line 645
	mov	rax, 9223372036854775807		; 7fffffffffffffffH
; Line 646
	ret	0
?max@?$numeric_limits@_J@std@@SA_JXZ ENDP		; std::numeric_limits<__int64>::max
_TEXT	ENDS
; Function compile flags: /Ogtpy
;	COMDAT ?floor@@YAMM@Z
_TEXT	SEGMENT
_Xx$ = 8
?floor@@YAMM@Z PROC					; floor, COMDAT
; File C:\Program Files (x86)\Microsoft Visual Studio\2019\Community\VC\Tools\MSVC\14.23.28105\include\cmath
; Line 102
	jmp	floorf
?floor@@YAMM@Z ENDP					; floor
_TEXT	ENDS
END
