; Listing generated by Microsoft (R) Optimizing Compiler Version 19.23.28106.4 

include listing.inc

INCLUDELIB MSVCRT
INCLUDELIB OLDNAMES

PUBLIC	?set32@VEC4@DATA@XGK@@YAXPEAXMMMM@Z		; XGK::DATA::VEC4::set32
PUBLIC	?add32@VEC4@DATA@XGK@@YAXPEAX0@Z		; XGK::DATA::VEC4::add32
PUBLIC	?adds32@VEC4@DATA@XGK@@YAXPEAXM@Z		; XGK::DATA::VEC4::adds32
PUBLIC	?sub32@VEC4@DATA@XGK@@YAXPEAX0@Z		; XGK::DATA::VEC4::sub32
PUBLIC	?subs32@VEC4@DATA@XGK@@YAXPEAXM@Z		; XGK::DATA::VEC4::subs32
PUBLIC	?mul32@VEC4@DATA@XGK@@YAXPEAX0@Z		; XGK::DATA::VEC4::mul32
PUBLIC	?muls32@VEC4@DATA@XGK@@YAXPEAXM@Z		; XGK::DATA::VEC4::muls32
PUBLIC	?div32@VEC4@DATA@XGK@@YAXPEAX0@Z		; XGK::DATA::VEC4::div32
PUBLIC	?divs32@VEC4@DATA@XGK@@YAXPEAXM@Z		; XGK::DATA::VEC4::divs32
EXTRN	_fltused:DWORD
; Function compile flags: /Ogtpy
;	COMDAT ?divs32@VEC4@DATA@XGK@@YAXPEAXM@Z
_TEXT	SEGMENT
data$ = 8
s$ = 16
?divs32@VEC4@DATA@XGK@@YAXPEAXM@Z PROC			; XGK::DATA::VEC4::divs32, COMDAT
; File E:\reps\denis-belov\xgk\src\data\vec4\vec4-32.cpp
; Line 109
	movaps	xmm0, xmm1
; Line 111
	movups	xmm1, XMMWORD PTR [rcx]
	shufps	xmm0, xmm0, 0
	divps	xmm1, xmm0
	movups	XMMWORD PTR [rcx], xmm1
; Line 115
	ret	0
?divs32@VEC4@DATA@XGK@@YAXPEAXM@Z ENDP			; XGK::DATA::VEC4::divs32
_TEXT	ENDS
; Function compile flags: /Ogtpy
;	COMDAT ?div32@VEC4@DATA@XGK@@YAXPEAX0@Z
_TEXT	SEGMENT
data0$ = 8
data1$ = 16
?div32@VEC4@DATA@XGK@@YAXPEAX0@Z PROC			; XGK::DATA::VEC4::div32, COMDAT
; File E:\reps\denis-belov\xgk\src\data\vec4\vec4-32.cpp
; Line 99
	movss	xmm0, DWORD PTR [rcx]
	divss	xmm0, DWORD PTR [rdx]
	movss	DWORD PTR [rcx], xmm0
	movss	xmm1, DWORD PTR [rcx+4]
	divss	xmm1, DWORD PTR [rdx+4]
	movss	DWORD PTR [rcx+4], xmm1
	movss	xmm0, DWORD PTR [rcx+8]
	divss	xmm0, DWORD PTR [rdx+8]
	movss	DWORD PTR [rcx+8], xmm0
	movss	xmm1, DWORD PTR [rcx+12]
	divss	xmm1, DWORD PTR [rdx+12]
	movss	DWORD PTR [rcx+12], xmm1
; Line 103
	ret	0
?div32@VEC4@DATA@XGK@@YAXPEAX0@Z ENDP			; XGK::DATA::VEC4::div32
_TEXT	ENDS
; Function compile flags: /Ogtpy
;	COMDAT ?muls32@VEC4@DATA@XGK@@YAXPEAXM@Z
_TEXT	SEGMENT
data$ = 8
s$ = 16
?muls32@VEC4@DATA@XGK@@YAXPEAXM@Z PROC			; XGK::DATA::VEC4::muls32, COMDAT
; File E:\reps\denis-belov\xgk\src\data\vec4\vec4-32.cpp
; Line 86
	movups	xmm0, XMMWORD PTR [rcx]
	movaps	xmm2, xmm1
	shufps	xmm2, xmm2, 0
	mulps	xmm2, xmm0
	movups	XMMWORD PTR [rcx], xmm2
; Line 90
	ret	0
?muls32@VEC4@DATA@XGK@@YAXPEAXM@Z ENDP			; XGK::DATA::VEC4::muls32
_TEXT	ENDS
; Function compile flags: /Ogtpy
;	COMDAT ?mul32@VEC4@DATA@XGK@@YAXPEAX0@Z
_TEXT	SEGMENT
data0$ = 8
data1$ = 16
?mul32@VEC4@DATA@XGK@@YAXPEAX0@Z PROC			; XGK::DATA::VEC4::mul32, COMDAT
; File E:\reps\denis-belov\xgk\src\data\vec4\vec4-32.cpp
; Line 74
	movss	xmm0, DWORD PTR [rcx]
	mulss	xmm0, DWORD PTR [rdx]
	movss	DWORD PTR [rcx], xmm0
	movss	xmm1, DWORD PTR [rdx+4]
	mulss	xmm1, DWORD PTR [rcx+4]
	movss	DWORD PTR [rcx+4], xmm1
	movss	xmm0, DWORD PTR [rdx+8]
	mulss	xmm0, DWORD PTR [rcx+8]
	movss	DWORD PTR [rcx+8], xmm0
	movss	xmm1, DWORD PTR [rdx+12]
	mulss	xmm1, DWORD PTR [rcx+12]
	movss	DWORD PTR [rcx+12], xmm1
; Line 78
	ret	0
?mul32@VEC4@DATA@XGK@@YAXPEAX0@Z ENDP			; XGK::DATA::VEC4::mul32
_TEXT	ENDS
; Function compile flags: /Ogtpy
;	COMDAT ?subs32@VEC4@DATA@XGK@@YAXPEAXM@Z
_TEXT	SEGMENT
data$ = 8
s$ = 16
?subs32@VEC4@DATA@XGK@@YAXPEAXM@Z PROC			; XGK::DATA::VEC4::subs32, COMDAT
; File E:\reps\denis-belov\xgk\src\data\vec4\vec4-32.cpp
; Line 59
	movaps	xmm0, xmm1
; Line 61
	movups	xmm1, XMMWORD PTR [rcx]
	shufps	xmm0, xmm0, 0
	subps	xmm1, xmm0
	movups	XMMWORD PTR [rcx], xmm1
; Line 65
	ret	0
?subs32@VEC4@DATA@XGK@@YAXPEAXM@Z ENDP			; XGK::DATA::VEC4::subs32
_TEXT	ENDS
; Function compile flags: /Ogtpy
;	COMDAT ?sub32@VEC4@DATA@XGK@@YAXPEAX0@Z
_TEXT	SEGMENT
data0$ = 8
data1$ = 16
?sub32@VEC4@DATA@XGK@@YAXPEAX0@Z PROC			; XGK::DATA::VEC4::sub32, COMDAT
; File E:\reps\denis-belov\xgk\src\data\vec4\vec4-32.cpp
; Line 49
	movss	xmm0, DWORD PTR [rcx]
	subss	xmm0, DWORD PTR [rdx]
	movss	DWORD PTR [rcx], xmm0
	movss	xmm1, DWORD PTR [rcx+4]
	subss	xmm1, DWORD PTR [rdx+4]
	movss	DWORD PTR [rcx+4], xmm1
	movss	xmm0, DWORD PTR [rcx+8]
	subss	xmm0, DWORD PTR [rdx+8]
	movss	DWORD PTR [rcx+8], xmm0
	movss	xmm1, DWORD PTR [rcx+12]
	subss	xmm1, DWORD PTR [rdx+12]
	movss	DWORD PTR [rcx+12], xmm1
; Line 53
	ret	0
?sub32@VEC4@DATA@XGK@@YAXPEAX0@Z ENDP			; XGK::DATA::VEC4::sub32
_TEXT	ENDS
; Function compile flags: /Ogtpy
;	COMDAT ?adds32@VEC4@DATA@XGK@@YAXPEAXM@Z
_TEXT	SEGMENT
data$ = 8
s$ = 16
?adds32@VEC4@DATA@XGK@@YAXPEAXM@Z PROC			; XGK::DATA::VEC4::adds32, COMDAT
; File E:\reps\denis-belov\xgk\src\data\vec4\vec4-32.cpp
; Line 36
	movups	xmm0, XMMWORD PTR [rcx]
	movaps	xmm2, xmm1
	shufps	xmm2, xmm2, 0
	addps	xmm2, xmm0
	movups	XMMWORD PTR [rcx], xmm2
; Line 40
	ret	0
?adds32@VEC4@DATA@XGK@@YAXPEAXM@Z ENDP			; XGK::DATA::VEC4::adds32
_TEXT	ENDS
; Function compile flags: /Ogtpy
;	COMDAT ?add32@VEC4@DATA@XGK@@YAXPEAX0@Z
_TEXT	SEGMENT
data0$ = 8
data1$ = 16
?add32@VEC4@DATA@XGK@@YAXPEAX0@Z PROC			; XGK::DATA::VEC4::add32, COMDAT
; File E:\reps\denis-belov\xgk\src\data\vec4\vec4-32.cpp
; Line 24
	movss	xmm0, DWORD PTR [rcx]
	addss	xmm0, DWORD PTR [rdx]
	movss	DWORD PTR [rcx], xmm0
	movss	xmm1, DWORD PTR [rdx+4]
	addss	xmm1, DWORD PTR [rcx+4]
	movss	DWORD PTR [rcx+4], xmm1
	movss	xmm0, DWORD PTR [rdx+8]
	addss	xmm0, DWORD PTR [rcx+8]
	movss	DWORD PTR [rcx+8], xmm0
	movss	xmm1, DWORD PTR [rdx+12]
	addss	xmm1, DWORD PTR [rcx+12]
	movss	DWORD PTR [rcx+12], xmm1
; Line 28
	ret	0
?add32@VEC4@DATA@XGK@@YAXPEAX0@Z ENDP			; XGK::DATA::VEC4::add32
_TEXT	ENDS
; Function compile flags: /Ogtpy
;	COMDAT ?set32@VEC4@DATA@XGK@@YAXPEAXMMMM@Z
_TEXT	SEGMENT
data$ = 8
x$ = 16
y$ = 24
z$ = 32
w$ = 40
?set32@VEC4@DATA@XGK@@YAXPEAXMMMM@Z PROC		; XGK::DATA::VEC4::set32, COMDAT
; File E:\reps\denis-belov\xgk\src\data\vec4\vec4-32.cpp
; Line 14
	movss	xmm0, DWORD PTR w$[rsp]
	movss	DWORD PTR [rcx+12], xmm0
	movss	DWORD PTR [rcx], xmm1
	movss	DWORD PTR [rcx+4], xmm2
	movss	DWORD PTR [rcx+8], xmm3
; Line 15
	ret	0
?set32@VEC4@DATA@XGK@@YAXPEAXMMMM@Z ENDP		; XGK::DATA::VEC4::set32
_TEXT	ENDS
END
