
/home/denis/reps/denis-belov/xgk-math/build/gnu-x64/o/mat4.o:     file format elf64-x86-64


Disassembly of section .text:

0000000000000000 <_ZN3XGK4DATA4MAT46simd32Ev>:
   0:	48 8d 05 00 00 00 00 	lea    rax,[rip+0x0]        # 7 <_ZN3XGK4DATA4MAT46simd32Ev+0x7>
   7:	48 8d 15 00 00 00 00 	lea    rdx,[rip+0x0]        # e <_ZN3XGK4DATA4MAT46simd32Ev+0xe>
   e:	48 8d 0d 00 00 00 00 	lea    rcx,[rip+0x0]        # 15 <_ZN3XGK4DATA4MAT46simd32Ev+0x15>
  15:	48 8d 35 00 00 00 00 	lea    rsi,[rip+0x0]        # 1c <_ZN3XGK4DATA4MAT46simd32Ev+0x1c>
  1c:	48 8d 3d 00 00 00 00 	lea    rdi,[rip+0x0]        # 23 <_ZN3XGK4DATA4MAT46simd32Ev+0x23>
  23:	4c 8d 05 00 00 00 00 	lea    r8,[rip+0x0]        # 2a <_ZN3XGK4DATA4MAT46simd32Ev+0x2a>
  2a:	48 89 05 00 00 00 00 	mov    QWORD PTR [rip+0x0],rax        # 31 <_ZN3XGK4DATA4MAT46simd32Ev+0x31>
  31:	48 89 15 00 00 00 00 	mov    QWORD PTR [rip+0x0],rdx        # 38 <_ZN3XGK4DATA4MAT46simd32Ev+0x38>
  38:	4c 8d 0d 00 00 00 00 	lea    r9,[rip+0x0]        # 3f <_ZN3XGK4DATA4MAT46simd32Ev+0x3f>
  3f:	48 89 0d 00 00 00 00 	mov    QWORD PTR [rip+0x0],rcx        # 46 <_ZN3XGK4DATA4MAT46simd32Ev+0x46>
  46:	48 89 35 00 00 00 00 	mov    QWORD PTR [rip+0x0],rsi        # 4d <_ZN3XGK4DATA4MAT46simd32Ev+0x4d>
  4d:	4c 8d 15 00 00 00 00 	lea    r10,[rip+0x0]        # 54 <_ZN3XGK4DATA4MAT46simd32Ev+0x54>
  54:	48 89 3d 00 00 00 00 	mov    QWORD PTR [rip+0x0],rdi        # 5b <_ZN3XGK4DATA4MAT46simd32Ev+0x5b>
  5b:	4c 89 05 00 00 00 00 	mov    QWORD PTR [rip+0x0],r8        # 62 <_ZN3XGK4DATA4MAT46simd32Ev+0x62>
  62:	4c 8d 1d 00 00 00 00 	lea    r11,[rip+0x0]        # 69 <_ZN3XGK4DATA4MAT46simd32Ev+0x69>
  69:	48 8d 05 00 00 00 00 	lea    rax,[rip+0x0]        # 70 <_ZN3XGK4DATA4MAT46simd32Ev+0x70>
  70:	48 8d 15 00 00 00 00 	lea    rdx,[rip+0x0]        # 77 <_ZN3XGK4DATA4MAT46simd32Ev+0x77>
  77:	48 8d 0d 00 00 00 00 	lea    rcx,[rip+0x0]        # 7e <_ZN3XGK4DATA4MAT46simd32Ev+0x7e>
  7e:	48 8d 35 00 00 00 00 	lea    rsi,[rip+0x0]        # 85 <_ZN3XGK4DATA4MAT46simd32Ev+0x85>
  85:	48 8d 3d 00 00 00 00 	lea    rdi,[rip+0x0]        # 8c <_ZN3XGK4DATA4MAT46simd32Ev+0x8c>
  8c:	4c 8d 05 00 00 00 00 	lea    r8,[rip+0x0]        # 93 <_ZN3XGK4DATA4MAT46simd32Ev+0x93>
  93:	4c 89 0d 00 00 00 00 	mov    QWORD PTR [rip+0x0],r9        # 9a <_ZN3XGK4DATA4MAT46simd32Ev+0x9a>
  9a:	4c 89 15 00 00 00 00 	mov    QWORD PTR [rip+0x0],r10        # a1 <_ZN3XGK4DATA4MAT46simd32Ev+0xa1>
  a1:	4c 89 1d 00 00 00 00 	mov    QWORD PTR [rip+0x0],r11        # a8 <_ZN3XGK4DATA4MAT46simd32Ev+0xa8>
  a8:	48 89 05 00 00 00 00 	mov    QWORD PTR [rip+0x0],rax        # af <_ZN3XGK4DATA4MAT46simd32Ev+0xaf>
  af:	48 89 15 00 00 00 00 	mov    QWORD PTR [rip+0x0],rdx        # b6 <_ZN3XGK4DATA4MAT46simd32Ev+0xb6>
  b6:	48 89 0d 00 00 00 00 	mov    QWORD PTR [rip+0x0],rcx        # bd <_ZN3XGK4DATA4MAT46simd32Ev+0xbd>
  bd:	48 89 35 00 00 00 00 	mov    QWORD PTR [rip+0x0],rsi        # c4 <_ZN3XGK4DATA4MAT46simd32Ev+0xc4>
  c4:	48 89 3d 00 00 00 00 	mov    QWORD PTR [rip+0x0],rdi        # cb <_ZN3XGK4DATA4MAT46simd32Ev+0xcb>
  cb:	4c 89 05 00 00 00 00 	mov    QWORD PTR [rip+0x0],r8        # d2 <_ZN3XGK4DATA4MAT46simd32Ev+0xd2>
  d2:	c3                   	ret    
  d3:	0f 1f 00             	nop    DWORD PTR [rax]
  d6:	66 2e 0f 1f 84 00 00 	nop    WORD PTR cs:[rax+rax*1+0x0]
  dd:	00 00 00 

00000000000000e0 <_ZN3XGK4DATA4MAT47simd128Ev>:
  e0:	48 8d 05 00 00 00 00 	lea    rax,[rip+0x0]        # e7 <_ZN3XGK4DATA4MAT47simd128Ev+0x7>
  e7:	48 8d 15 00 00 00 00 	lea    rdx,[rip+0x0]        # ee <_ZN3XGK4DATA4MAT47simd128Ev+0xe>
  ee:	48 8d 0d 00 00 00 00 	lea    rcx,[rip+0x0]        # f5 <_ZN3XGK4DATA4MAT47simd128Ev+0x15>
  f5:	48 8d 35 00 00 00 00 	lea    rsi,[rip+0x0]        # fc <_ZN3XGK4DATA4MAT47simd128Ev+0x1c>
  fc:	48 8d 3d 00 00 00 00 	lea    rdi,[rip+0x0]        # 103 <_ZN3XGK4DATA4MAT47simd128Ev+0x23>
 103:	4c 8d 05 00 00 00 00 	lea    r8,[rip+0x0]        # 10a <_ZN3XGK4DATA4MAT47simd128Ev+0x2a>
 10a:	48 89 05 00 00 00 00 	mov    QWORD PTR [rip+0x0],rax        # 111 <_ZN3XGK4DATA4MAT47simd128Ev+0x31>
 111:	48 89 15 00 00 00 00 	mov    QWORD PTR [rip+0x0],rdx        # 118 <_ZN3XGK4DATA4MAT47simd128Ev+0x38>
 118:	4c 8d 0d 00 00 00 00 	lea    r9,[rip+0x0]        # 11f <_ZN3XGK4DATA4MAT47simd128Ev+0x3f>
 11f:	48 89 0d 00 00 00 00 	mov    QWORD PTR [rip+0x0],rcx        # 126 <_ZN3XGK4DATA4MAT47simd128Ev+0x46>
 126:	48 89 35 00 00 00 00 	mov    QWORD PTR [rip+0x0],rsi        # 12d <_ZN3XGK4DATA4MAT47simd128Ev+0x4d>
 12d:	4c 8d 15 00 00 00 00 	lea    r10,[rip+0x0]        # 134 <_ZN3XGK4DATA4MAT47simd128Ev+0x54>
 134:	48 89 3d 00 00 00 00 	mov    QWORD PTR [rip+0x0],rdi        # 13b <_ZN3XGK4DATA4MAT47simd128Ev+0x5b>
 13b:	4c 89 05 00 00 00 00 	mov    QWORD PTR [rip+0x0],r8        # 142 <_ZN3XGK4DATA4MAT47simd128Ev+0x62>
 142:	4c 8d 1d 00 00 00 00 	lea    r11,[rip+0x0]        # 149 <_ZN3XGK4DATA4MAT47simd128Ev+0x69>
 149:	48 8d 05 00 00 00 00 	lea    rax,[rip+0x0]        # 150 <_ZN3XGK4DATA4MAT47simd128Ev+0x70>
 150:	48 8d 15 00 00 00 00 	lea    rdx,[rip+0x0]        # 157 <_ZN3XGK4DATA4MAT47simd128Ev+0x77>
 157:	48 8d 0d 00 00 00 00 	lea    rcx,[rip+0x0]        # 15e <_ZN3XGK4DATA4MAT47simd128Ev+0x7e>
 15e:	48 8d 35 00 00 00 00 	lea    rsi,[rip+0x0]        # 165 <_ZN3XGK4DATA4MAT47simd128Ev+0x85>
 165:	48 8d 3d 00 00 00 00 	lea    rdi,[rip+0x0]        # 16c <_ZN3XGK4DATA4MAT47simd128Ev+0x8c>
 16c:	4c 8d 05 00 00 00 00 	lea    r8,[rip+0x0]        # 173 <_ZN3XGK4DATA4MAT47simd128Ev+0x93>
 173:	4c 89 0d 00 00 00 00 	mov    QWORD PTR [rip+0x0],r9        # 17a <_ZN3XGK4DATA4MAT47simd128Ev+0x9a>
 17a:	4c 89 15 00 00 00 00 	mov    QWORD PTR [rip+0x0],r10        # 181 <_ZN3XGK4DATA4MAT47simd128Ev+0xa1>
 181:	4c 89 1d 00 00 00 00 	mov    QWORD PTR [rip+0x0],r11        # 188 <_ZN3XGK4DATA4MAT47simd128Ev+0xa8>
 188:	48 89 05 00 00 00 00 	mov    QWORD PTR [rip+0x0],rax        # 18f <_ZN3XGK4DATA4MAT47simd128Ev+0xaf>
 18f:	48 89 15 00 00 00 00 	mov    QWORD PTR [rip+0x0],rdx        # 196 <_ZN3XGK4DATA4MAT47simd128Ev+0xb6>
 196:	48 89 0d 00 00 00 00 	mov    QWORD PTR [rip+0x0],rcx        # 19d <_ZN3XGK4DATA4MAT47simd128Ev+0xbd>
 19d:	48 89 35 00 00 00 00 	mov    QWORD PTR [rip+0x0],rsi        # 1a4 <_ZN3XGK4DATA4MAT47simd128Ev+0xc4>
 1a4:	48 89 3d 00 00 00 00 	mov    QWORD PTR [rip+0x0],rdi        # 1ab <_ZN3XGK4DATA4MAT47simd128Ev+0xcb>
 1ab:	4c 89 05 00 00 00 00 	mov    QWORD PTR [rip+0x0],r8        # 1b2 <_ZN3XGK4DATA4MAT47simd128Ev+0xd2>
 1b2:	c3                   	ret    
 1b3:	0f 1f 00             	nop    DWORD PTR [rax]
 1b6:	66 2e 0f 1f 84 00 00 	nop    WORD PTR cs:[rax+rax*1+0x0]
 1bd:	00 00 00 

00000000000001c0 <_ZN3XGK4DATA4MAT45printEPv>:
 1c0:	66 0f ef c0          	pxor   xmm0,xmm0
 1c4:	53                   	push   rbx
 1c5:	66 0f ef db          	pxor   xmm3,xmm3
 1c9:	48 8d 35 00 00 00 00 	lea    rsi,[rip+0x0]        # 1d0 <_ZN3XGK4DATA4MAT45printEPv+0x10>
 1d0:	66 0f ef d2          	pxor   xmm2,xmm2
 1d4:	48 89 fb             	mov    rbx,rdi
 1d7:	66 0f ef c9          	pxor   xmm1,xmm1
 1db:	f3 0f 5a 07          	cvtss2sd xmm0,DWORD PTR [rdi]
 1df:	f3 0f 5a 5f 30       	cvtss2sd xmm3,DWORD PTR [rdi+0x30]
 1e4:	b8 04 00 00 00       	mov    eax,0x4
 1e9:	f3 0f 5a 57 20       	cvtss2sd xmm2,DWORD PTR [rdi+0x20]
 1ee:	f3 0f 5a 4f 10       	cvtss2sd xmm1,DWORD PTR [rdi+0x10]
 1f3:	bf 01 00 00 00       	mov    edi,0x1
 1f8:	e8 00 00 00 00       	call   1fd <_ZN3XGK4DATA4MAT45printEPv+0x3d>
 1fd:	66 0f ef c0          	pxor   xmm0,xmm0
 201:	48 8d 35 00 00 00 00 	lea    rsi,[rip+0x0]        # 208 <_ZN3XGK4DATA4MAT45printEPv+0x48>
 208:	66 0f ef db          	pxor   xmm3,xmm3
 20c:	bf 01 00 00 00       	mov    edi,0x1
 211:	66 0f ef d2          	pxor   xmm2,xmm2
 215:	b8 04 00 00 00       	mov    eax,0x4
 21a:	66 0f ef c9          	pxor   xmm1,xmm1
 21e:	f3 0f 5a 43 04       	cvtss2sd xmm0,DWORD PTR [rbx+0x4]
 223:	f3 0f 5a 5b 34       	cvtss2sd xmm3,DWORD PTR [rbx+0x34]
 228:	f3 0f 5a 53 24       	cvtss2sd xmm2,DWORD PTR [rbx+0x24]
 22d:	f3 0f 5a 4b 14       	cvtss2sd xmm1,DWORD PTR [rbx+0x14]
 232:	e8 00 00 00 00       	call   237 <_ZN3XGK4DATA4MAT45printEPv+0x77>
 237:	66 0f ef c0          	pxor   xmm0,xmm0
 23b:	48 8d 35 00 00 00 00 	lea    rsi,[rip+0x0]        # 242 <_ZN3XGK4DATA4MAT45printEPv+0x82>
 242:	66 0f ef db          	pxor   xmm3,xmm3
 246:	bf 01 00 00 00       	mov    edi,0x1
 24b:	66 0f ef d2          	pxor   xmm2,xmm2
 24f:	b8 04 00 00 00       	mov    eax,0x4
 254:	66 0f ef c9          	pxor   xmm1,xmm1
 258:	f3 0f 5a 43 08       	cvtss2sd xmm0,DWORD PTR [rbx+0x8]
 25d:	f3 0f 5a 5b 38       	cvtss2sd xmm3,DWORD PTR [rbx+0x38]
 262:	f3 0f 5a 53 28       	cvtss2sd xmm2,DWORD PTR [rbx+0x28]
 267:	f3 0f 5a 4b 18       	cvtss2sd xmm1,DWORD PTR [rbx+0x18]
 26c:	e8 00 00 00 00       	call   271 <_ZN3XGK4DATA4MAT45printEPv+0xb1>
 271:	66 0f ef c0          	pxor   xmm0,xmm0
 275:	48 8d 35 00 00 00 00 	lea    rsi,[rip+0x0]        # 27c <_ZN3XGK4DATA4MAT45printEPv+0xbc>
 27c:	66 0f ef db          	pxor   xmm3,xmm3
 280:	bf 01 00 00 00       	mov    edi,0x1
 285:	66 0f ef d2          	pxor   xmm2,xmm2
 289:	b8 04 00 00 00       	mov    eax,0x4
 28e:	66 0f ef c9          	pxor   xmm1,xmm1
 292:	f3 0f 5a 43 0c       	cvtss2sd xmm0,DWORD PTR [rbx+0xc]
 297:	f3 0f 5a 5b 3c       	cvtss2sd xmm3,DWORD PTR [rbx+0x3c]
 29c:	f3 0f 5a 53 2c       	cvtss2sd xmm2,DWORD PTR [rbx+0x2c]
 2a1:	f3 0f 5a 4b 1c       	cvtss2sd xmm1,DWORD PTR [rbx+0x1c]
 2a6:	5b                   	pop    rbx
 2a7:	e9 00 00 00 00       	jmp    2ac <_ZN3XGK4DATA4MAT45printEPv+0xec>

Disassembly of section .text._ZN3XGK4DATA4MAT45set32EPvffffffffffffffff:

0000000000000000 <_ZN3XGK4DATA4MAT45set32EPvffffffffffffffff>:
   0:	f3 44 0f 10 44 24 28 	movss  xmm8,DWORD PTR [rsp+0x28]
   7:	f3 44 0f 10 4c 24 08 	movss  xmm9,DWORD PTR [rsp+0x8]
   e:	0f 14 c4             	unpcklps xmm0,xmm4
  11:	45 0f 14 c8          	unpcklps xmm9,xmm8
  15:	f3 0f 10 64 24 10    	movss  xmm4,DWORD PTR [rsp+0x10]
  1b:	0f 14 cd             	unpcklps xmm1,xmm5
  1e:	0f 14 d6             	unpcklps xmm2,xmm6
  21:	41 0f 16 c1          	movlhps xmm0,xmm9
  25:	0f 14 df             	unpcklps xmm3,xmm7
  28:	0f 11 07             	movups XMMWORD PTR [rdi],xmm0
  2b:	f3 0f 10 44 24 30    	movss  xmm0,DWORD PTR [rsp+0x30]
  31:	0f 14 e0             	unpcklps xmm4,xmm0
  34:	f3 0f 10 44 24 18    	movss  xmm0,DWORD PTR [rsp+0x18]
  3a:	0f 16 cc             	movlhps xmm1,xmm4
  3d:	0f 11 4f 10          	movups XMMWORD PTR [rdi+0x10],xmm1
  41:	f3 0f 10 4c 24 38    	movss  xmm1,DWORD PTR [rsp+0x38]
  47:	0f 14 c1             	unpcklps xmm0,xmm1
  4a:	0f 16 d0             	movlhps xmm2,xmm0
  4d:	f3 0f 10 44 24 20    	movss  xmm0,DWORD PTR [rsp+0x20]
  53:	0f 11 57 20          	movups XMMWORD PTR [rdi+0x20],xmm2
  57:	f3 0f 10 54 24 40    	movss  xmm2,DWORD PTR [rsp+0x40]
  5d:	0f 14 c2             	unpcklps xmm0,xmm2
  60:	0f 16 d8             	movlhps xmm3,xmm0
  63:	0f 11 5f 30          	movups XMMWORD PTR [rdi+0x30],xmm3
  67:	c3                   	ret    

Disassembly of section .text._ZN3XGK4DATA4MAT48premul32EPvS2_:

0000000000000000 <_ZN3XGK4DATA4MAT48premul32EPvS2_>:
   0:	0f 10 1f             	movups xmm3,XMMWORD PTR [rdi]
   3:	44 0f 28 c3          	movaps xmm8,xmm3
   7:	44 0f 28 cb          	movaps xmm9,xmm3
   b:	0f 10 7e 10          	movups xmm7,XMMWORD PTR [rsi+0x10]
   f:	44 0f c6 c3 55       	shufps xmm8,xmm3,0x55
  14:	44 0f c6 cb aa       	shufps xmm9,xmm3,0xaa
  19:	0f 10 76 20          	movups xmm6,XMMWORD PTR [rsi+0x20]
  1d:	44 0f 28 d3          	movaps xmm10,xmm3
  21:	44 0f 59 c7          	mulps  xmm8,xmm7
  25:	0f 10 2e             	movups xmm5,XMMWORD PTR [rsi]
  28:	44 0f 59 ce          	mulps  xmm9,xmm6
  2c:	0f 10 66 30          	movups xmm4,XMMWORD PTR [rsi+0x30]
  30:	44 0f c6 d3 00       	shufps xmm10,xmm3,0x0
  35:	0f c6 db ff          	shufps xmm3,xmm3,0xff
  39:	0f 10 4f 20          	movups xmm1,XMMWORD PTR [rdi+0x20]
  3d:	44 0f 59 d5          	mulps  xmm10,xmm5
  41:	45 0f 58 c1          	addps  xmm8,xmm9
  45:	0f 10 57 10          	movups xmm2,XMMWORD PTR [rdi+0x10]
  49:	0f 59 dc             	mulps  xmm3,xmm4
  4c:	44 0f 28 f1          	movaps xmm14,xmm1
  50:	0f 10 47 30          	movups xmm0,XMMWORD PTR [rdi+0x30]
  54:	44 0f 28 f9          	movaps xmm15,xmm1
  58:	44 0f c6 f1 55       	shufps xmm14,xmm1,0x55
  5d:	44 0f 28 da          	movaps xmm11,xmm2
  61:	45 0f 58 c2          	addps  xmm8,xmm10
  65:	44 0f c6 f9 aa       	shufps xmm15,xmm1,0xaa
  6a:	44 0f 59 f7          	mulps  xmm14,xmm7
  6e:	44 0f 28 e2          	movaps xmm12,xmm2
  72:	44 0f 28 ea          	movaps xmm13,xmm2
  76:	44 0f 59 fe          	mulps  xmm15,xmm6
  7a:	41 0f 58 d8          	addps  xmm3,xmm8
  7e:	44 0f c6 da 55       	shufps xmm11,xmm2,0x55
  83:	44 0f c6 e2 aa       	shufps xmm12,xmm2,0xaa
  88:	44 0f c6 ea 00       	shufps xmm13,xmm2,0x0
  8d:	45 0f 58 f7          	addps  xmm14,xmm15
  91:	44 0f 59 df          	mulps  xmm11,xmm7
  95:	0f 11 1f             	movups XMMWORD PTR [rdi],xmm3
  98:	0f 28 d9             	movaps xmm3,xmm1
  9b:	44 0f 59 e6          	mulps  xmm12,xmm6
  9f:	0f c6 d9 00          	shufps xmm3,xmm1,0x0
  a3:	0f c6 c9 ff          	shufps xmm1,xmm1,0xff
  a7:	44 0f 59 ed          	mulps  xmm13,xmm5
  ab:	45 0f 58 dc          	addps  xmm11,xmm12
  af:	0f 59 dd             	mulps  xmm3,xmm5
  b2:	0f 59 cc             	mulps  xmm1,xmm4
  b5:	0f c6 d2 ff          	shufps xmm2,xmm2,0xff
  b9:	44 0f 58 f3          	addps  xmm14,xmm3
  bd:	45 0f 58 dd          	addps  xmm11,xmm13
  c1:	0f 59 d4             	mulps  xmm2,xmm4
  c4:	41 0f 58 ce          	addps  xmm1,xmm14
  c8:	41 0f 58 d3          	addps  xmm2,xmm11
  cc:	0f 11 4f 20          	movups XMMWORD PTR [rdi+0x20],xmm1
  d0:	0f 28 c8             	movaps xmm1,xmm0
  d3:	0f c6 c8 55          	shufps xmm1,xmm0,0x55
  d7:	0f 11 57 10          	movups XMMWORD PTR [rdi+0x10],xmm2
  db:	0f 59 cf             	mulps  xmm1,xmm7
  de:	0f 28 f8             	movaps xmm7,xmm0
  e1:	0f c6 f8 aa          	shufps xmm7,xmm0,0xaa
  e5:	0f 59 f7             	mulps  xmm6,xmm7
  e8:	0f 58 ce             	addps  xmm1,xmm6
  eb:	0f 28 f0             	movaps xmm6,xmm0
  ee:	0f c6 f0 00          	shufps xmm6,xmm0,0x0
  f2:	0f c6 c0 ff          	shufps xmm0,xmm0,0xff
  f6:	0f 59 ee             	mulps  xmm5,xmm6
  f9:	0f 59 c4             	mulps  xmm0,xmm4
  fc:	0f 58 cd             	addps  xmm1,xmm5
  ff:	0f 58 c1             	addps  xmm0,xmm1
 102:	0f 11 47 30          	movups XMMWORD PTR [rdi+0x30],xmm0
 106:	c3                   	ret    

Disassembly of section .text._ZN3XGK4DATA4MAT49postmul32EPvS2_:

0000000000000000 <_ZN3XGK4DATA4MAT49postmul32EPvS2_>:
   0:	f3 44 0f 10 76 0c    	movss  xmm14,DWORD PTR [rsi+0xc]
   6:	f3 0f 10 77 0c       	movss  xmm6,DWORD PTR [rdi+0xc]
   b:	f3 44 0f 10 67 1c    	movss  xmm12,DWORD PTR [rdi+0x1c]
  11:	f3 44 0f 10 6f 2c    	movss  xmm13,DWORD PTR [rdi+0x2c]
  17:	f3 44 0f 11 74 24 e8 	movss  DWORD PTR [rsp-0x18],xmm14
  1e:	f3 44 0f 10 76 10    	movss  xmm14,DWORD PTR [rsi+0x10]
  24:	f3 44 0f 10 17       	movss  xmm10,DWORD PTR [rdi]
  29:	f3 0f 10 57 10       	movss  xmm2,DWORD PTR [rdi+0x10]
  2e:	f3 44 0f 10 3e       	movss  xmm15,DWORD PTR [rsi]
  33:	f3 44 0f 10 5e 04    	movss  xmm11,DWORD PTR [rsi+0x4]
  39:	f3 44 0f 10 4e 08    	movss  xmm9,DWORD PTR [rsi+0x8]
  3f:	f3 0f 11 74 24 f4    	movss  DWORD PTR [rsp-0xc],xmm6
  45:	f3 44 0f 11 64 24 f8 	movss  DWORD PTR [rsp-0x8],xmm12
  4c:	f3 44 0f 11 6c 24 fc 	movss  DWORD PTR [rsp-0x4],xmm13
  53:	f3 44 0f 10 66 18    	movss  xmm12,DWORD PTR [rsi+0x18]
  59:	f3 44 0f 10 6e 1c    	movss  xmm13,DWORD PTR [rsi+0x1c]
  5f:	f3 44 0f 11 74 24 d4 	movss  DWORD PTR [rsp-0x2c],xmm14
  66:	f3 0f 10 76 14       	movss  xmm6,DWORD PTR [rsi+0x14]
  6b:	f3 44 0f 10 76 20    	movss  xmm14,DWORD PTR [rsi+0x20]
  71:	f3 0f 10 6f 20       	movss  xmm5,DWORD PTR [rdi+0x20]
  76:	f3 44 0f 10 47 04    	movss  xmm8,DWORD PTR [rdi+0x4]
  7c:	f3 0f 10 4f 14       	movss  xmm1,DWORD PTR [rdi+0x14]
  81:	f3 0f 10 67 24       	movss  xmm4,DWORD PTR [rdi+0x24]
  86:	f3 0f 10 47 08       	movss  xmm0,DWORD PTR [rdi+0x8]
  8b:	f3 0f 10 7f 18       	movss  xmm7,DWORD PTR [rdi+0x18]
  90:	f3 0f 10 5f 28       	movss  xmm3,DWORD PTR [rdi+0x28]
  95:	f3 44 0f 11 4c 24 e4 	movss  DWORD PTR [rsp-0x1c],xmm9
  9c:	f3 44 0f 11 64 24 dc 	movss  DWORD PTR [rsp-0x24],xmm12
  a3:	f3 44 0f 10 4f 30    	movss  xmm9,DWORD PTR [rdi+0x30]
  a9:	f3 44 0f 11 6c 24 c0 	movss  DWORD PTR [rsp-0x40],xmm13
  b0:	f3 44 0f 11 74 24 c4 	movss  DWORD PTR [rsp-0x3c],xmm14
  b7:	f3 0f 11 74 24 d8    	movss  DWORD PTR [rsp-0x28],xmm6
  bd:	f3 0f 10 76 24       	movss  xmm6,DWORD PTR [rsi+0x24]
  c2:	f3 44 0f 11 7c 24 ec 	movss  DWORD PTR [rsp-0x14],xmm15
  c9:	f3 45 0f 59 fa       	mulss  xmm15,xmm10
  ce:	f3 44 0f 11 5c 24 f0 	movss  DWORD PTR [rsp-0x10],xmm11
  d5:	f3 44 0f 59 da       	mulss  xmm11,xmm2
  da:	f3 44 0f 10 76 34    	movss  xmm14,DWORD PTR [rsi+0x34]
  e0:	f3 44 0f 11 74 24 d0 	movss  DWORD PTR [rsp-0x30],xmm14
  e7:	f3 44 0f 10 74 24 e4 	movss  xmm14,DWORD PTR [rsp-0x1c]
  ee:	f3 45 0f 58 df       	addss  xmm11,xmm15
  f3:	f3 44 0f 10 7c 24 e8 	movss  xmm15,DWORD PTR [rsp-0x18]
  fa:	f3 45 0f 59 f9       	mulss  xmm15,xmm9
  ff:	f3 44 0f 10 66 28    	movss  xmm12,DWORD PTR [rsi+0x28]
 105:	f3 44 0f 59 f5       	mulss  xmm14,xmm5
 10a:	f3 44 0f 10 6e 30    	movss  xmm13,DWORD PTR [rsi+0x30]
 110:	f3 0f 11 74 24 c8    	movss  DWORD PTR [rsp-0x38],xmm6
 116:	f3 44 0f 11 64 24 cc 	movss  DWORD PTR [rsp-0x34],xmm12
 11d:	f3 0f 10 76 2c       	movss  xmm6,DWORD PTR [rsi+0x2c]
 122:	f3 45 0f 58 f7       	addss  xmm14,xmm15
 127:	f3 44 0f 10 66 3c    	movss  xmm12,DWORD PTR [rsi+0x3c]
 12d:	f3 44 0f 11 6c 24 e0 	movss  DWORD PTR [rsp-0x20],xmm13
 134:	f3 44 0f 10 6e 38    	movss  xmm13,DWORD PTR [rsi+0x38]
 13a:	f3 44 0f 10 7c 24 c0 	movss  xmm15,DWORD PTR [rsp-0x40]
 141:	f3 45 0f 58 f3       	addss  xmm14,xmm11
 146:	f3 44 0f 10 5c 24 d8 	movss  xmm11,DWORD PTR [rsp-0x28]
 14d:	f3 44 0f 59 da       	mulss  xmm11,xmm2
 152:	f3 45 0f 59 f9       	mulss  xmm15,xmm9
 157:	f3 44 0f 11 37       	movss  DWORD PTR [rdi],xmm14
 15c:	f3 44 0f 10 74 24 d4 	movss  xmm14,DWORD PTR [rsp-0x2c]
 163:	f3 45 0f 59 f2       	mulss  xmm14,xmm10
 168:	f3 45 0f 58 de       	addss  xmm11,xmm14
 16d:	f3 44 0f 10 74 24 dc 	movss  xmm14,DWORD PTR [rsp-0x24]
 174:	f3 44 0f 59 f5       	mulss  xmm14,xmm5
 179:	f3 45 0f 58 f7       	addss  xmm14,xmm15
 17e:	45 0f 28 f9          	movaps xmm15,xmm9
 182:	f3 45 0f 59 cc       	mulss  xmm9,xmm12
 187:	f3 44 0f 59 fe       	mulss  xmm15,xmm6
 18c:	f3 45 0f 58 f3       	addss  xmm14,xmm11
 191:	f3 44 0f 10 5c 24 c8 	movss  xmm11,DWORD PTR [rsp-0x38]
 198:	f3 44 0f 59 da       	mulss  xmm11,xmm2
 19d:	f3 0f 59 54 24 d0    	mulss  xmm2,DWORD PTR [rsp-0x30]
 1a3:	f3 44 0f 11 77 10    	movss  DWORD PTR [rdi+0x10],xmm14
 1a9:	f3 44 0f 10 74 24 c4 	movss  xmm14,DWORD PTR [rsp-0x3c]
 1b0:	f3 45 0f 59 f2       	mulss  xmm14,xmm10
 1b5:	f3 44 0f 59 54 24 e0 	mulss  xmm10,DWORD PTR [rsp-0x20]
 1bc:	f3 45 0f 58 de       	addss  xmm11,xmm14
 1c1:	f3 44 0f 10 74 24 cc 	movss  xmm14,DWORD PTR [rsp-0x34]
 1c8:	f3 44 0f 59 f5       	mulss  xmm14,xmm5
 1cd:	f3 41 0f 59 ed       	mulss  xmm5,xmm13
 1d2:	f3 44 0f 58 d2       	addss  xmm10,xmm2
 1d7:	f3 45 0f 58 f7       	addss  xmm14,xmm15
 1dc:	f3 44 0f 10 7c 24 ec 	movss  xmm15,DWORD PTR [rsp-0x14]
 1e3:	f3 41 0f 58 e9       	addss  xmm5,xmm9
 1e8:	f3 45 0f 58 f3       	addss  xmm14,xmm11
 1ed:	f3 44 0f 10 5c 24 e4 	movss  xmm11,DWORD PTR [rsp-0x1c]
 1f4:	f3 44 0f 58 d5       	addss  xmm10,xmm5
 1f9:	41 0f 28 ef          	movaps xmm5,xmm15
 1fd:	f3 41 0f 59 e8       	mulss  xmm5,xmm8
 202:	f3 44 0f 11 77 20    	movss  DWORD PTR [rdi+0x20],xmm14
 208:	f3 44 0f 11 57 30    	movss  DWORD PTR [rdi+0x30],xmm10
 20e:	f3 44 0f 10 54 24 f0 	movss  xmm10,DWORD PTR [rsp-0x10]
 215:	41 0f 28 d2          	movaps xmm2,xmm10
 219:	f3 44 0f 10 74 24 e8 	movss  xmm14,DWORD PTR [rsp-0x18]
 220:	f3 44 0f 10 4f 34    	movss  xmm9,DWORD PTR [rdi+0x34]
 226:	f3 0f 59 d1          	mulss  xmm2,xmm1
 22a:	f3 45 0f 59 ce       	mulss  xmm9,xmm14
 22f:	f3 0f 58 d5          	addss  xmm2,xmm5
 233:	41 0f 28 eb          	movaps xmm5,xmm11
 237:	f3 0f 59 ec          	mulss  xmm5,xmm4
 23b:	f3 41 0f 58 e9       	addss  xmm5,xmm9
 240:	f3 44 0f 10 4c 24 c0 	movss  xmm9,DWORD PTR [rsp-0x40]
 247:	f3 44 0f 59 4f 34    	mulss  xmm9,DWORD PTR [rdi+0x34]
 24d:	f3 0f 58 ea          	addss  xmm5,xmm2
 251:	f3 0f 10 54 24 d8    	movss  xmm2,DWORD PTR [rsp-0x28]
 257:	f3 0f 59 d1          	mulss  xmm2,xmm1
 25b:	f3 0f 11 6f 04       	movss  DWORD PTR [rdi+0x4],xmm5
 260:	f3 0f 10 6c 24 d4    	movss  xmm5,DWORD PTR [rsp-0x2c]
 266:	f3 41 0f 59 e8       	mulss  xmm5,xmm8
 26b:	f3 0f 58 d5          	addss  xmm2,xmm5
 26f:	f3 0f 10 6c 24 dc    	movss  xmm5,DWORD PTR [rsp-0x24]
 275:	f3 0f 59 ec          	mulss  xmm5,xmm4
 279:	f3 41 0f 58 e9       	addss  xmm5,xmm9
 27e:	f3 44 0f 10 4f 34    	movss  xmm9,DWORD PTR [rdi+0x34]
 284:	f3 44 0f 59 ce       	mulss  xmm9,xmm6
 289:	f3 0f 58 ea          	addss  xmm5,xmm2
 28d:	f3 0f 10 54 24 c8    	movss  xmm2,DWORD PTR [rsp-0x38]
 293:	f3 0f 59 d1          	mulss  xmm2,xmm1
 297:	f3 0f 59 4c 24 d0    	mulss  xmm1,DWORD PTR [rsp-0x30]
 29d:	f3 0f 11 6f 14       	movss  DWORD PTR [rdi+0x14],xmm5
 2a2:	f3 0f 10 6c 24 c4    	movss  xmm5,DWORD PTR [rsp-0x3c]
 2a8:	f3 41 0f 59 e8       	mulss  xmm5,xmm8
 2ad:	f3 44 0f 59 44 24 e0 	mulss  xmm8,DWORD PTR [rsp-0x20]
 2b4:	f3 0f 58 d5          	addss  xmm2,xmm5
 2b8:	f3 0f 10 6c 24 cc    	movss  xmm5,DWORD PTR [rsp-0x34]
 2be:	f3 0f 59 ec          	mulss  xmm5,xmm4
 2c2:	f3 41 0f 59 e5       	mulss  xmm4,xmm13
 2c7:	f3 44 0f 58 c1       	addss  xmm8,xmm1
 2cc:	f3 0f 10 4f 34       	movss  xmm1,DWORD PTR [rdi+0x34]
 2d1:	f3 41 0f 59 cc       	mulss  xmm1,xmm12
 2d6:	f3 41 0f 58 e9       	addss  xmm5,xmm9
 2db:	45 0f 28 cb          	movaps xmm9,xmm11
 2df:	f3 44 0f 59 db       	mulss  xmm11,xmm3
 2e4:	f3 0f 58 e1          	addss  xmm4,xmm1
 2e8:	f3 0f 58 ea          	addss  xmm5,xmm2
 2ec:	f3 44 0f 58 c4       	addss  xmm8,xmm4
 2f1:	41 0f 28 e7          	movaps xmm4,xmm15
 2f5:	f3 0f 11 6f 24       	movss  DWORD PTR [rdi+0x24],xmm5
 2fa:	41 0f 28 ef          	movaps xmm5,xmm15
 2fe:	45 0f 28 fe          	movaps xmm15,xmm14
 302:	f3 0f 59 e0          	mulss  xmm4,xmm0
 306:	f3 44 0f 10 77 38    	movss  xmm14,DWORD PTR [rdi+0x38]
 30c:	f3 45 0f 59 f7       	mulss  xmm14,xmm15
 311:	f3 44 0f 11 47 34    	movss  DWORD PTR [rdi+0x34],xmm8
 317:	45 0f 28 c2          	movaps xmm8,xmm10
 31b:	f3 44 0f 59 d7       	mulss  xmm10,xmm7
 320:	f3 45 0f 58 de       	addss  xmm11,xmm14
 325:	f3 44 0f 10 74 24 dc 	movss  xmm14,DWORD PTR [rsp-0x24]
 32c:	f3 44 0f 58 d4       	addss  xmm10,xmm4
 331:	f3 0f 10 64 24 c0    	movss  xmm4,DWORD PTR [rsp-0x40]
 337:	f3 0f 59 67 38       	mulss  xmm4,DWORD PTR [rdi+0x38]
 33c:	f3 45 0f 58 da       	addss  xmm11,xmm10
 341:	f3 44 0f 10 54 24 d4 	movss  xmm10,DWORD PTR [rsp-0x2c]
 348:	41 0f 28 d2          	movaps xmm2,xmm10
 34c:	f3 0f 59 d0          	mulss  xmm2,xmm0
 350:	f3 44 0f 11 5f 08    	movss  DWORD PTR [rdi+0x8],xmm11
 356:	f3 44 0f 10 5c 24 d8 	movss  xmm11,DWORD PTR [rsp-0x28]
 35d:	41 0f 28 cb          	movaps xmm1,xmm11
 361:	f3 0f 59 cf          	mulss  xmm1,xmm7
 365:	f3 0f 58 ca          	addss  xmm1,xmm2
 369:	41 0f 28 d6          	movaps xmm2,xmm14
 36d:	f3 0f 59 d3          	mulss  xmm2,xmm3
 371:	f3 0f 58 d4          	addss  xmm2,xmm4
 375:	f3 0f 10 67 38       	movss  xmm4,DWORD PTR [rdi+0x38]
 37a:	f3 0f 59 e6          	mulss  xmm4,xmm6
 37e:	f3 0f 58 d1          	addss  xmm2,xmm1
 382:	f3 0f 10 4c 24 c8    	movss  xmm1,DWORD PTR [rsp-0x38]
 388:	f3 0f 59 cf          	mulss  xmm1,xmm7
 38c:	f3 0f 59 7c 24 d0    	mulss  xmm7,DWORD PTR [rsp-0x30]
 392:	f3 0f 11 57 18       	movss  DWORD PTR [rdi+0x18],xmm2
 397:	f3 0f 10 54 24 c4    	movss  xmm2,DWORD PTR [rsp-0x3c]
 39d:	f3 0f 59 d0          	mulss  xmm2,xmm0
 3a1:	f3 0f 58 ca          	addss  xmm1,xmm2
 3a5:	f3 0f 10 54 24 cc    	movss  xmm2,DWORD PTR [rsp-0x34]
 3ab:	f3 0f 59 d3          	mulss  xmm2,xmm3
 3af:	f3 41 0f 59 dd       	mulss  xmm3,xmm13
 3b4:	f3 0f 58 d4          	addss  xmm2,xmm4
 3b8:	f3 0f 10 64 24 e0    	movss  xmm4,DWORD PTR [rsp-0x20]
 3be:	f3 0f 59 c4          	mulss  xmm0,xmm4
 3c2:	f3 0f 58 d1          	addss  xmm2,xmm1
 3c6:	f3 0f 58 f8          	addss  xmm7,xmm0
 3ca:	f3 0f 11 57 28       	movss  DWORD PTR [rdi+0x28],xmm2
 3cf:	f3 0f 10 47 38       	movss  xmm0,DWORD PTR [rdi+0x38]
 3d4:	f3 0f 59 77 3c       	mulss  xmm6,DWORD PTR [rdi+0x3c]
 3d9:	f3 41 0f 59 c4       	mulss  xmm0,xmm12
 3de:	f3 0f 10 4f 3c       	movss  xmm1,DWORD PTR [rdi+0x3c]
 3e3:	f3 41 0f 59 cf       	mulss  xmm1,xmm15
 3e8:	f3 44 0f 10 7c 24 c0 	movss  xmm15,DWORD PTR [rsp-0x40]
 3ef:	f3 44 0f 59 7f 3c    	mulss  xmm15,DWORD PTR [rdi+0x3c]
 3f5:	f3 0f 10 54 24 c4    	movss  xmm2,DWORD PTR [rsp-0x3c]
 3fb:	f3 44 0f 59 67 3c    	mulss  xmm12,DWORD PTR [rdi+0x3c]
 401:	f3 0f 58 d8          	addss  xmm3,xmm0
 405:	0f 28 c5             	movaps xmm0,xmm5
 408:	f3 0f 10 6c 24 fc    	movss  xmm5,DWORD PTR [rsp-0x4]
 40e:	f3 44 0f 59 cd       	mulss  xmm9,xmm5
 413:	f3 44 0f 59 f5       	mulss  xmm14,xmm5
 418:	f3 0f 58 df          	addss  xmm3,xmm7
 41c:	f3 0f 10 7c 24 f4    	movss  xmm7,DWORD PTR [rsp-0xc]
 422:	f3 0f 59 c7          	mulss  xmm0,xmm7
 426:	f3 44 0f 58 c9       	addss  xmm9,xmm1
 42b:	f3 44 0f 59 d7       	mulss  xmm10,xmm7
 430:	f3 0f 59 d7          	mulss  xmm2,xmm7
 434:	f3 45 0f 58 f7       	addss  xmm14,xmm15
 439:	f3 0f 11 5f 38       	movss  DWORD PTR [rdi+0x38],xmm3
 43e:	f3 0f 59 fc          	mulss  xmm7,xmm4
 442:	f3 0f 10 5c 24 f8    	movss  xmm3,DWORD PTR [rsp-0x8]
 448:	f3 44 0f 59 ed       	mulss  xmm13,xmm5
 44d:	f3 44 0f 59 c3       	mulss  xmm8,xmm3
 452:	f3 44 0f 59 db       	mulss  xmm11,xmm3
 457:	f3 45 0f 58 ec       	addss  xmm13,xmm12
 45c:	f3 41 0f 58 c0       	addss  xmm0,xmm8
 461:	f3 44 0f 10 44 24 cc 	movss  xmm8,DWORD PTR [rsp-0x34]
 468:	f3 44 0f 59 c5       	mulss  xmm8,xmm5
 46d:	f3 45 0f 58 d3       	addss  xmm10,xmm11
 472:	f3 44 0f 58 c8       	addss  xmm9,xmm0
 477:	f3 0f 10 44 24 c8    	movss  xmm0,DWORD PTR [rsp-0x38]
 47d:	f3 0f 59 c3          	mulss  xmm0,xmm3
 481:	f3 41 0f 58 f0       	addss  xmm6,xmm8
 486:	f3 0f 59 5c 24 d0    	mulss  xmm3,DWORD PTR [rsp-0x30]
 48c:	f3 45 0f 58 f2       	addss  xmm14,xmm10
 491:	f3 44 0f 11 4f 0c    	movss  DWORD PTR [rdi+0xc],xmm9
 497:	f3 0f 58 d0          	addss  xmm2,xmm0
 49b:	f3 44 0f 11 77 1c    	movss  DWORD PTR [rdi+0x1c],xmm14
 4a1:	f3 0f 58 fb          	addss  xmm7,xmm3
 4a5:	f3 0f 58 f2          	addss  xmm6,xmm2
 4a9:	f3 44 0f 58 ef       	addss  xmm13,xmm7
 4ae:	f3 0f 11 77 2c       	movss  DWORD PTR [rdi+0x2c],xmm6
 4b3:	f3 44 0f 11 6f 3c    	movss  DWORD PTR [rdi+0x3c],xmm13
 4b9:	c3                   	ret    

Disassembly of section .text._ZN3XGK4DATA4MAT411makeTrans32EPvS2_:

0000000000000000 <_ZN3XGK4DATA4MAT411makeTrans32EPvS2_>:
   0:	66 0f 6f 05 00 00 00 	movdqa xmm0,XMMWORD PTR [rip+0x0]        # 8 <_ZN3XGK4DATA4MAT411makeTrans32EPvS2_+0x8>
   7:	00 
   8:	66 0f 6f 0d 00 00 00 	movdqa xmm1,XMMWORD PTR [rip+0x0]        # 10 <_ZN3XGK4DATA4MAT411makeTrans32EPvS2_+0x10>
   f:	00 
  10:	66 0f 6f 15 00 00 00 	movdqa xmm2,XMMWORD PTR [rip+0x0]        # 18 <_ZN3XGK4DATA4MAT411makeTrans32EPvS2_+0x18>
  17:	00 
  18:	0f 11 07             	movups XMMWORD PTR [rdi],xmm0
  1b:	0f 11 4f 10          	movups XMMWORD PTR [rdi+0x10],xmm1
  1f:	0f 11 57 20          	movups XMMWORD PTR [rdi+0x20],xmm2
  23:	f3 0f 6f 1e          	movdqu xmm3,XMMWORD PTR [rsi]
  27:	0f 11 5f 30          	movups XMMWORD PTR [rdi+0x30],xmm3
  2b:	c3                   	ret    

Disassembly of section .text._ZN3XGK4DATA4MAT410preTrans32EPvS2_:

0000000000000000 <_ZN3XGK4DATA4MAT410preTrans32EPvS2_>:
   0:	f3 0f 10 47 30       	movss  xmm0,DWORD PTR [rdi+0x30]
   5:	f3 0f 58 06          	addss  xmm0,DWORD PTR [rsi]
   9:	f3 0f 10 4f 34       	movss  xmm1,DWORD PTR [rdi+0x34]
   e:	f3 0f 10 57 38       	movss  xmm2,DWORD PTR [rdi+0x38]
  13:	f3 0f 11 47 30       	movss  DWORD PTR [rdi+0x30],xmm0
  18:	f3 0f 58 4e 04       	addss  xmm1,DWORD PTR [rsi+0x4]
  1d:	f3 0f 11 4f 34       	movss  DWORD PTR [rdi+0x34],xmm1
  22:	f3 0f 58 56 08       	addss  xmm2,DWORD PTR [rsi+0x8]
  27:	f3 0f 11 57 38       	movss  DWORD PTR [rdi+0x38],xmm2
  2c:	c3                   	ret    

Disassembly of section .text._ZN3XGK4DATA4MAT411postTrans32EPvS2_:

0000000000000000 <_ZN3XGK4DATA4MAT411postTrans32EPvS2_>:
   0:	f3 0f 10 57 20       	movss  xmm2,DWORD PTR [rdi+0x20]
   5:	f3 0f 59 56 08       	mulss  xmm2,DWORD PTR [rsi+0x8]
   a:	f3 0f 10 07          	movss  xmm0,DWORD PTR [rdi]
   e:	f3 0f 10 4f 10       	movss  xmm1,DWORD PTR [rdi+0x10]
  13:	f3 0f 59 06          	mulss  xmm0,DWORD PTR [rsi]
  17:	f3 0f 59 4e 04       	mulss  xmm1,DWORD PTR [rsi+0x4]
  1c:	f3 0f 10 6f 24       	movss  xmm5,DWORD PTR [rdi+0x24]
  21:	f3 0f 10 5f 04       	movss  xmm3,DWORD PTR [rdi+0x4]
  26:	f3 0f 10 67 14       	movss  xmm4,DWORD PTR [rdi+0x14]
  2b:	f3 44 0f 10 47 28    	movss  xmm8,DWORD PTR [rdi+0x28]
  31:	f3 0f 58 57 30       	addss  xmm2,DWORD PTR [rdi+0x30]
  36:	f3 0f 10 77 08       	movss  xmm6,DWORD PTR [rdi+0x8]
  3b:	f3 0f 10 7f 18       	movss  xmm7,DWORD PTR [rdi+0x18]
  40:	f3 0f 58 c1          	addss  xmm0,xmm1
  44:	f3 0f 58 c2          	addss  xmm0,xmm2
  48:	f3 0f 11 47 30       	movss  DWORD PTR [rdi+0x30],xmm0
  4d:	f3 0f 59 6e 08       	mulss  xmm5,DWORD PTR [rsi+0x8]
  52:	f3 0f 59 1e          	mulss  xmm3,DWORD PTR [rsi]
  56:	f3 0f 59 66 04       	mulss  xmm4,DWORD PTR [rsi+0x4]
  5b:	f3 0f 58 6f 34       	addss  xmm5,DWORD PTR [rdi+0x34]
  60:	f3 0f 58 dc          	addss  xmm3,xmm4
  64:	f3 0f 58 dd          	addss  xmm3,xmm5
  68:	f3 0f 11 5f 34       	movss  DWORD PTR [rdi+0x34],xmm3
  6d:	f3 44 0f 59 46 08    	mulss  xmm8,DWORD PTR [rsi+0x8]
  73:	f3 0f 59 36          	mulss  xmm6,DWORD PTR [rsi]
  77:	f3 0f 59 7e 04       	mulss  xmm7,DWORD PTR [rsi+0x4]
  7c:	f3 44 0f 58 47 38    	addss  xmm8,DWORD PTR [rdi+0x38]
  82:	f3 0f 58 f7          	addss  xmm6,xmm7
  86:	f3 41 0f 58 f0       	addss  xmm6,xmm8
  8b:	f3 0f 11 77 38       	movss  DWORD PTR [rdi+0x38],xmm6
  90:	c3                   	ret    

Disassembly of section .text._ZN3XGK4DATA4MAT416makeTransValue32EPvS2_f:

0000000000000000 <_ZN3XGK4DATA4MAT416makeTransValue32EPvS2_f>:
   0:	66 0f 6f 0d 00 00 00 	movdqa xmm1,XMMWORD PTR [rip+0x0]        # 8 <_ZN3XGK4DATA4MAT416makeTransValue32EPvS2_f+0x8>
   7:	00 
   8:	66 0f 6f 15 00 00 00 	movdqa xmm2,XMMWORD PTR [rip+0x0]        # 10 <_ZN3XGK4DATA4MAT416makeTransValue32EPvS2_f+0x10>
   f:	00 
  10:	66 0f 6f 1d 00 00 00 	movdqa xmm3,XMMWORD PTR [rip+0x0]        # 18 <_ZN3XGK4DATA4MAT416makeTransValue32EPvS2_f+0x18>
  17:	00 
  18:	0f 11 0f             	movups XMMWORD PTR [rdi],xmm1
  1b:	0f 11 57 10          	movups XMMWORD PTR [rdi+0x10],xmm2
  1f:	0f 11 5f 20          	movups XMMWORD PTR [rdi+0x20],xmm3
  23:	f3 0f 10 26          	movss  xmm4,DWORD PTR [rsi]
  27:	f3 0f 59 e0          	mulss  xmm4,xmm0
  2b:	f3 0f 11 67 30       	movss  DWORD PTR [rdi+0x30],xmm4
  30:	f3 0f 10 6e 04       	movss  xmm5,DWORD PTR [rsi+0x4]
  35:	f3 0f 59 e8          	mulss  xmm5,xmm0
  39:	f3 0f 11 6f 34       	movss  DWORD PTR [rdi+0x34],xmm5
  3e:	f3 0f 59 46 08       	mulss  xmm0,DWORD PTR [rsi+0x8]
  43:	c7 47 3c 00 00 80 3f 	mov    DWORD PTR [rdi+0x3c],0x3f800000
  4a:	f3 0f 11 47 38       	movss  DWORD PTR [rdi+0x38],xmm0
  4f:	c3                   	ret    

Disassembly of section .text._ZN3XGK4DATA4MAT415preTransValue32EPvS2_f:

0000000000000000 <_ZN3XGK4DATA4MAT415preTransValue32EPvS2_f>:
   0:	f3 0f 10 0e          	movss  xmm1,DWORD PTR [rsi]
   4:	f3 0f 10 56 04       	movss  xmm2,DWORD PTR [rsi+0x4]
   9:	f3 0f 59 c8          	mulss  xmm1,xmm0
   d:	f3 0f 59 d0          	mulss  xmm2,xmm0
  11:	f3 44 0f 10 67 0c    	movss  xmm12,DWORD PTR [rdi+0xc]
  17:	f3 0f 59 46 08       	mulss  xmm0,DWORD PTR [rsi+0x8]
  1c:	f3 0f 10 67 1c       	movss  xmm4,DWORD PTR [rdi+0x1c]
  21:	f3 0f 10 5f 2c       	movss  xmm3,DWORD PTR [rdi+0x2c]
  26:	44 0f 28 d9          	movaps xmm11,xmm1
  2a:	44 0f 28 d1          	movaps xmm10,xmm1
  2e:	44 0f 28 c2          	movaps xmm8,xmm2
  32:	0f 28 fa             	movaps xmm7,xmm2
  35:	0f 28 f2             	movaps xmm6,xmm2
  38:	44 0f 28 c9          	movaps xmm9,xmm1
  3c:	f3 44 0f 59 dc       	mulss  xmm11,xmm4
  41:	0f 28 e8             	movaps xmm5,xmm0
  44:	f3 0f 59 fc          	mulss  xmm7,xmm4
  48:	f3 44 0f 10 6f 3c    	movss  xmm13,DWORD PTR [rdi+0x3c]
  4e:	f3 0f 59 e0          	mulss  xmm4,xmm0
  52:	f3 44 0f 59 d3       	mulss  xmm10,xmm3
  57:	f3 0f 59 f3          	mulss  xmm6,xmm3
  5b:	f3 44 0f 58 5f 10    	addss  xmm11,DWORD PTR [rdi+0x10]
  61:	f3 0f 59 d8          	mulss  xmm3,xmm0
  65:	f3 0f 58 7f 14       	addss  xmm7,DWORD PTR [rdi+0x14]
  6a:	f3 45 0f 59 c4       	mulss  xmm8,xmm12
  6f:	f3 0f 58 67 18       	addss  xmm4,DWORD PTR [rdi+0x18]
  74:	f3 41 0f 59 ec       	mulss  xmm5,xmm12
  79:	f3 44 0f 58 57 20    	addss  xmm10,DWORD PTR [rdi+0x20]
  7f:	f3 45 0f 59 cd       	mulss  xmm9,xmm13
  84:	f3 0f 58 77 24       	addss  xmm6,DWORD PTR [rdi+0x24]
  89:	f3 41 0f 59 d5       	mulss  xmm2,xmm13
  8e:	f3 0f 58 5f 28       	addss  xmm3,DWORD PTR [rdi+0x28]
  93:	f3 41 0f 59 c5       	mulss  xmm0,xmm13
  98:	f3 44 0f 58 47 04    	addss  xmm8,DWORD PTR [rdi+0x4]
  9e:	f3 44 0f 11 5f 10    	movss  DWORD PTR [rdi+0x10],xmm11
  a4:	f3 41 0f 59 cc       	mulss  xmm1,xmm12
  a9:	f3 0f 58 6f 08       	addss  xmm5,DWORD PTR [rdi+0x8]
  ae:	f3 0f 11 7f 14       	movss  DWORD PTR [rdi+0x14],xmm7
  b3:	f3 44 0f 58 4f 30    	addss  xmm9,DWORD PTR [rdi+0x30]
  b9:	f3 0f 11 67 18       	movss  DWORD PTR [rdi+0x18],xmm4
  be:	f3 0f 58 57 34       	addss  xmm2,DWORD PTR [rdi+0x34]
  c3:	f3 44 0f 11 57 20    	movss  DWORD PTR [rdi+0x20],xmm10
  c9:	f3 0f 58 47 38       	addss  xmm0,DWORD PTR [rdi+0x38]
  ce:	f3 0f 11 77 24       	movss  DWORD PTR [rdi+0x24],xmm6
  d3:	f3 0f 58 0f          	addss  xmm1,DWORD PTR [rdi]
  d7:	f3 0f 11 5f 28       	movss  DWORD PTR [rdi+0x28],xmm3
  dc:	f3 44 0f 11 47 04    	movss  DWORD PTR [rdi+0x4],xmm8
  e2:	f3 0f 11 6f 08       	movss  DWORD PTR [rdi+0x8],xmm5
  e7:	f3 44 0f 11 4f 30    	movss  DWORD PTR [rdi+0x30],xmm9
  ed:	f3 0f 11 57 34       	movss  DWORD PTR [rdi+0x34],xmm2
  f2:	f3 0f 11 47 38       	movss  DWORD PTR [rdi+0x38],xmm0
  f7:	f3 0f 11 0f          	movss  DWORD PTR [rdi],xmm1
  fb:	c3                   	ret    

Disassembly of section .text._ZN3XGK4DATA4MAT416postTransValue32EPvS2_f:

0000000000000000 <_ZN3XGK4DATA4MAT416postTransValue32EPvS2_f>:
   0:	f3 0f 10 0e          	movss  xmm1,DWORD PTR [rsi]
   4:	f3 0f 10 56 04       	movss  xmm2,DWORD PTR [rsi+0x4]
   9:	f3 0f 59 c8          	mulss  xmm1,xmm0
   d:	f3 0f 59 d0          	mulss  xmm2,xmm0
  11:	f3 0f 10 67 24       	movss  xmm4,DWORD PTR [rdi+0x24]
  16:	f3 0f 59 46 08       	mulss  xmm0,DWORD PTR [rsi+0x8]
  1b:	f3 44 0f 10 47 28    	movss  xmm8,DWORD PTR [rdi+0x28]
  21:	f3 44 0f 10 5f 2c    	movss  xmm11,DWORD PTR [rdi+0x2c]
  27:	f3 0f 10 6f 04       	movss  xmm5,DWORD PTR [rdi+0x4]
  2c:	f3 0f 10 5f 14       	movss  xmm3,DWORD PTR [rdi+0x14]
  31:	f3 0f 59 e9          	mulss  xmm5,xmm1
  35:	f3 0f 10 7f 08       	movss  xmm7,DWORD PTR [rdi+0x8]
  3a:	f3 0f 59 da          	mulss  xmm3,xmm2
  3e:	f3 0f 10 77 18       	movss  xmm6,DWORD PTR [rdi+0x18]
  43:	f3 0f 59 f9          	mulss  xmm7,xmm1
  47:	f3 0f 59 e0          	mulss  xmm4,xmm0
  4b:	f3 44 0f 10 4f 0c    	movss  xmm9,DWORD PTR [rdi+0xc]
  51:	f3 44 0f 59 c0       	mulss  xmm8,xmm0
  56:	f3 44 0f 10 57 1c    	movss  xmm10,DWORD PTR [rdi+0x1c]
  5c:	f3 44 0f 59 d8       	mulss  xmm11,xmm0
  61:	f3 0f 58 eb          	addss  xmm5,xmm3
  65:	f3 0f 59 47 20       	mulss  xmm0,DWORD PTR [rdi+0x20]
  6a:	f3 0f 59 f2          	mulss  xmm6,xmm2
  6e:	f3 0f 58 67 34       	addss  xmm4,DWORD PTR [rdi+0x34]
  73:	f3 44 0f 59 c9       	mulss  xmm9,xmm1
  78:	f3 44 0f 58 47 38    	addss  xmm8,DWORD PTR [rdi+0x38]
  7e:	f3 44 0f 59 d2       	mulss  xmm10,xmm2
  83:	f3 44 0f 58 5f 3c    	addss  xmm11,DWORD PTR [rdi+0x3c]
  89:	f3 0f 59 0f          	mulss  xmm1,DWORD PTR [rdi]
  8d:	f3 0f 59 57 10       	mulss  xmm2,DWORD PTR [rdi+0x10]
  92:	f3 0f 58 fe          	addss  xmm7,xmm6
  96:	f3 0f 58 47 30       	addss  xmm0,DWORD PTR [rdi+0x30]
  9b:	f3 45 0f 58 ca       	addss  xmm9,xmm10
  a0:	f3 0f 58 ec          	addss  xmm5,xmm4
  a4:	f3 41 0f 58 f8       	addss  xmm7,xmm8
  a9:	f3 0f 58 ca          	addss  xmm1,xmm2
  ad:	f3 45 0f 58 cb       	addss  xmm9,xmm11
  b2:	f3 0f 11 6f 34       	movss  DWORD PTR [rdi+0x34],xmm5
  b7:	f3 0f 11 7f 38       	movss  DWORD PTR [rdi+0x38],xmm7
  bc:	f3 0f 58 c1          	addss  xmm0,xmm1
  c0:	f3 44 0f 11 4f 3c    	movss  DWORD PTR [rdi+0x3c],xmm9
  c6:	f3 0f 11 47 30       	movss  DWORD PTR [rdi+0x30],xmm0
  cb:	c3                   	ret    

Disassembly of section .text._ZN3XGK4DATA4MAT413makeRotQuat32EPvS2_:

0000000000000000 <_ZN3XGK4DATA4MAT413makeRotQuat32EPvS2_>:
   0:	f3 0f 10 56 04       	movss  xmm2,DWORD PTR [rsi+0x4]
   5:	f3 0f 10 4e 08       	movss  xmm1,DWORD PTR [rsi+0x8]
   a:	0f 28 fa             	movaps xmm7,xmm2
   d:	44 0f 28 c1          	movaps xmm8,xmm1
  11:	f3 0f 10 06          	movss  xmm0,DWORD PTR [rsi]
  15:	0f 28 ea             	movaps xmm5,xmm2
  18:	f3 0f 10 66 0c       	movss  xmm4,DWORD PTR [rsi+0xc]
  1d:	c7 47 0c 00 00 00 00 	mov    DWORD PTR [rdi+0xc],0x0
  24:	0f 28 d8             	movaps xmm3,xmm0
  27:	f3 44 0f 59 c4       	mulss  xmm8,xmm4
  2c:	0f 28 f0             	movaps xmm6,xmm0
  2f:	f3 0f 59 fc          	mulss  xmm7,xmm4
  33:	f3 0f 59 e0          	mulss  xmm4,xmm0
  37:	f3 44 0f 10 0d 00 00 	movss  xmm9,DWORD PTR [rip+0x0]        # 40 <_ZN3XGK4DATA4MAT413makeRotQuat32EPvS2_+0x40>
  3e:	00 00 
  40:	f3 0f 59 c0          	mulss  xmm0,xmm0
  44:	45 0f 28 d9          	movaps xmm11,xmm9
  48:	f3 0f 59 da          	mulss  xmm3,xmm2
  4c:	f3 45 0f 58 c0       	addss  xmm8,xmm8
  51:	c7 47 1c 00 00 00 00 	mov    DWORD PTR [rdi+0x1c],0x0
  58:	f3 0f 59 f1          	mulss  xmm6,xmm1
  5c:	f3 0f 58 ff          	addss  xmm7,xmm7
  60:	48 c7 47 2c 00 00 00 	mov    QWORD PTR [rdi+0x2c],0x0
  67:	00 
  68:	f3 0f 59 e9          	mulss  xmm5,xmm1
  6c:	f3 0f 58 e4          	addss  xmm4,xmm4
  70:	48 c7 47 34 00 00 00 	mov    QWORD PTR [rdi+0x34],0x0
  77:	00 
  78:	f3 0f 58 c0          	addss  xmm0,xmm0
  7c:	f3 0f 59 d2          	mulss  xmm2,xmm2
  80:	c7 47 3c 00 00 80 3f 	mov    DWORD PTR [rdi+0x3c],0x3f800000
  87:	f3 0f 59 c9          	mulss  xmm1,xmm1
  8b:	f3 0f 58 db          	addss  xmm3,xmm3
  8f:	f3 0f 58 f6          	addss  xmm6,xmm6
  93:	f3 0f 58 ed          	addss  xmm5,xmm5
  97:	0f 57 05 00 00 00 00 	xorps  xmm0,XMMWORD PTR [rip+0x0]        # 9e <_ZN3XGK4DATA4MAT413makeRotQuat32EPvS2_+0x9e>
  9e:	f3 0f 58 d2          	addss  xmm2,xmm2
  a2:	f3 0f 58 c9          	addss  xmm1,xmm1
  a6:	44 0f 28 e3          	movaps xmm12,xmm3
  aa:	44 0f 28 ee          	movaps xmm13,xmm6
  ae:	f3 41 0f 58 d8       	addss  xmm3,xmm8
  b3:	44 0f 28 d2          	movaps xmm10,xmm2
  b7:	44 0f 28 f0          	movaps xmm14,xmm0
  bb:	f3 44 0f 58 d1       	addss  xmm10,xmm1
  c0:	f3 44 0f 5c f1       	subss  xmm14,xmm1
  c5:	f3 0f 11 5f 04       	movss  DWORD PTR [rdi+0x4],xmm3
  ca:	f3 0f 5c c2          	subss  xmm0,xmm2
  ce:	0f 28 dd             	movaps xmm3,xmm5
  d1:	f3 45 0f 5c e0       	subss  xmm12,xmm8
  d6:	f3 0f 5c dc          	subss  xmm3,xmm4
  da:	45 0f 28 fe          	movaps xmm15,xmm14
  de:	f3 45 0f 5c da       	subss  xmm11,xmm10
  e3:	f3 44 0f 58 ef       	addss  xmm13,xmm7
  e8:	f3 44 0f 11 67 10    	movss  DWORD PTR [rdi+0x10],xmm12
  ee:	f3 45 0f 58 f9       	addss  xmm15,xmm9
  f3:	f3 0f 11 5f 24       	movss  DWORD PTR [rdi+0x24],xmm3
  f8:	f3 0f 5c f7          	subss  xmm6,xmm7
  fc:	f3 0f 58 e5          	addss  xmm4,xmm5
 100:	f3 44 0f 11 1f       	movss  DWORD PTR [rdi],xmm11
 105:	f3 41 0f 58 c1       	addss  xmm0,xmm9
 10a:	f3 44 0f 11 6f 20    	movss  DWORD PTR [rdi+0x20],xmm13
 110:	f3 44 0f 11 7f 14    	movss  DWORD PTR [rdi+0x14],xmm15
 116:	f3 0f 11 77 08       	movss  DWORD PTR [rdi+0x8],xmm6
 11b:	f3 0f 11 67 18       	movss  DWORD PTR [rdi+0x18],xmm4
 120:	f3 0f 11 47 28       	movss  DWORD PTR [rdi+0x28],xmm0
 125:	c3                   	ret    

Disassembly of section .text._ZN3XGK4DATA4MAT412preRotQuat32EPvS2_:

0000000000000000 <_ZN3XGK4DATA4MAT412preRotQuat32EPvS2_>:
   0:	f3 0f 10 76 04       	movss  xmm6,DWORD PTR [rsi+0x4]
   5:	f3 0f 10 26          	movss  xmm4,DWORD PTR [rsi]
   9:	0f 28 d6             	movaps xmm2,xmm6
   c:	f3 44 0f 10 46 08    	movss  xmm8,DWORD PTR [rsi+0x8]
  12:	44 0f 28 ec          	movaps xmm13,xmm4
  16:	f3 41 0f 59 d0       	mulss  xmm2,xmm8
  1b:	0f 28 cc             	movaps xmm1,xmm4
  1e:	44 0f 28 e6          	movaps xmm12,xmm6
  22:	f3 44 0f 59 ee       	mulss  xmm13,xmm6
  27:	41 0f 28 d8          	movaps xmm3,xmm8
  2b:	f3 0f 59 f6          	mulss  xmm6,xmm6
  2f:	f3 44 0f 10 1d 00 00 	movss  xmm11,DWORD PTR [rip+0x0]        # 38 <_ZN3XGK4DATA4MAT412preRotQuat32EPvS2_+0x38>
  36:	00 00 
  38:	f3 41 0f 59 c8       	mulss  xmm1,xmm8
  3d:	0f 28 fa             	movaps xmm7,xmm2
  40:	f3 45 0f 59 c0       	mulss  xmm8,xmm8
  45:	45 0f 28 cb          	movaps xmm9,xmm11
  49:	f3 0f 58 fa          	addss  xmm7,xmm2
  4d:	f3 0f 10 56 0c       	movss  xmm2,DWORD PTR [rsi+0xc]
  52:	f3 0f 58 f6          	addss  xmm6,xmm6
  56:	f3 0f 59 da          	mulss  xmm3,xmm2
  5a:	f3 44 0f 59 e2       	mulss  xmm12,xmm2
  5f:	f3 45 0f 58 ed       	addss  xmm13,xmm13
  64:	f3 45 0f 58 c0       	addss  xmm8,xmm8
  69:	f3 0f 59 d4          	mulss  xmm2,xmm4
  6d:	f3 0f 59 e4          	mulss  xmm4,xmm4
  71:	f3 0f 58 c9          	addss  xmm1,xmm1
  75:	0f 28 c6             	movaps xmm0,xmm6
  78:	f3 44 0f 10 77 20    	movss  xmm14,DWORD PTR [rdi+0x20]
  7e:	f3 0f 58 db          	addss  xmm3,xmm3
  82:	45 0f 28 d5          	movaps xmm10,xmm13
  86:	f3 41 0f 58 c0       	addss  xmm0,xmm8
  8b:	f3 0f 58 e4          	addss  xmm4,xmm4
  8f:	0f 28 e9             	movaps xmm5,xmm1
  92:	f3 45 0f 58 e4       	addss  xmm12,xmm12
  97:	f3 44 0f 5c d3       	subss  xmm10,xmm3
  9c:	f3 44 0f 5c c8       	subss  xmm9,xmm0
  a1:	0f 28 c4             	movaps xmm0,xmm4
  a4:	0f 28 e7             	movaps xmm4,xmm7
  a7:	f3 41 0f 58 ec       	addss  xmm5,xmm12
  ac:	0f 57 05 00 00 00 00 	xorps  xmm0,XMMWORD PTR [rip+0x0]        # b3 <_ZN3XGK4DATA4MAT412preRotQuat32EPvS2_+0xb3>
  b3:	f3 41 0f 5c cc       	subss  xmm1,xmm12
  b8:	f3 44 0f 10 67 30    	movss  xmm12,DWORD PTR [rdi+0x30]
  be:	f3 0f 58 d2          	addss  xmm2,xmm2
  c2:	f3 44 0f 11 64 24 f8 	movss  DWORD PTR [rsp-0x8],xmm12
  c9:	f3 41 0f 58 dd       	addss  xmm3,xmm13
  ce:	f3 44 0f 10 67 08    	movss  xmm12,DWORD PTR [rdi+0x8]
  d4:	f3 44 0f 59 e5       	mulss  xmm12,xmm5
  d9:	f3 44 0f 10 6f 14    	movss  xmm13,DWORD PTR [rdi+0x14]
  df:	44 0f 28 f8          	movaps xmm15,xmm0
  e3:	f3 44 0f 11 6c 24 f4 	movss  DWORD PTR [rsp-0xc],xmm13
  ea:	f3 0f 5c c6          	subss  xmm0,xmm6
  ee:	f3 0f 10 77 10       	movss  xmm6,DWORD PTR [rdi+0x10]
  f3:	f3 45 0f 5c f8       	subss  xmm15,xmm8
  f8:	f3 44 0f 10 6f 24    	movss  xmm13,DWORD PTR [rdi+0x24]
  fe:	f3 0f 5c e2          	subss  xmm4,xmm2
 102:	f3 0f 58 d7          	addss  xmm2,xmm7
 106:	f3 0f 10 3f          	movss  xmm7,DWORD PTR [rdi]
 10a:	f3 41 0f 58 c3       	addss  xmm0,xmm11
 10f:	45 0f 28 c7          	movaps xmm8,xmm15
 113:	f3 44 0f 10 7f 34    	movss  xmm15,DWORD PTR [rdi+0x34]
 119:	f3 44 0f 11 7c 24 fc 	movss  DWORD PTR [rsp-0x4],xmm15
 120:	45 0f 28 fa          	movaps xmm15,xmm10
 124:	f3 45 0f 58 c3       	addss  xmm8,xmm11
 129:	f3 44 0f 10 5f 04    	movss  xmm11,DWORD PTR [rdi+0x4]
 12f:	f3 45 0f 59 fb       	mulss  xmm15,xmm11
 134:	f3 45 0f 58 e7       	addss  xmm12,xmm15
 139:	45 0f 28 f9          	movaps xmm15,xmm9
 13d:	f3 44 0f 59 ff       	mulss  xmm15,xmm7
 142:	f3 45 0f 58 e7       	addss  xmm12,xmm15
 147:	f3 44 0f 10 7c 24 f4 	movss  xmm15,DWORD PTR [rsp-0xc]
 14e:	f3 45 0f 59 fa       	mulss  xmm15,xmm10
 153:	f3 44 0f 11 27       	movss  DWORD PTR [rdi],xmm12
 158:	f3 44 0f 10 67 18    	movss  xmm12,DWORD PTR [rdi+0x18]
 15e:	f3 44 0f 59 e5       	mulss  xmm12,xmm5
 163:	f3 45 0f 58 e7       	addss  xmm12,xmm15
 168:	45 0f 28 f9          	movaps xmm15,xmm9
 16c:	f3 44 0f 59 fe       	mulss  xmm15,xmm6
 171:	f3 45 0f 58 e7       	addss  xmm12,xmm15
 176:	45 0f 28 fa          	movaps xmm15,xmm10
 17a:	f3 45 0f 59 fd       	mulss  xmm15,xmm13
 17f:	f3 44 0f 11 67 10    	movss  DWORD PTR [rdi+0x10],xmm12
 185:	f3 44 0f 10 67 28    	movss  xmm12,DWORD PTR [rdi+0x28]
 18b:	f3 44 0f 59 e5       	mulss  xmm12,xmm5
 190:	f3 0f 59 6f 38       	mulss  xmm5,DWORD PTR [rdi+0x38]
 195:	f3 45 0f 58 e7       	addss  xmm12,xmm15
 19a:	45 0f 28 f9          	movaps xmm15,xmm9
 19e:	f3 45 0f 59 fe       	mulss  xmm15,xmm14
 1a3:	f3 45 0f 58 e7       	addss  xmm12,xmm15
 1a8:	f3 44 0f 10 7c 24 fc 	movss  xmm15,DWORD PTR [rsp-0x4]
 1af:	f3 45 0f 59 d7       	mulss  xmm10,xmm15
 1b4:	f3 44 0f 11 67 20    	movss  DWORD PTR [rdi+0x20],xmm12
 1ba:	f3 44 0f 10 64 24 f8 	movss  xmm12,DWORD PTR [rsp-0x8]
 1c1:	f3 44 0f 58 d5       	addss  xmm10,xmm5
 1c6:	f3 45 0f 59 cc       	mulss  xmm9,xmm12
 1cb:	41 0f 28 e8          	movaps xmm5,xmm8
 1cf:	f3 41 0f 59 eb       	mulss  xmm5,xmm11
 1d4:	f3 44 0f 59 da       	mulss  xmm11,xmm2
 1d9:	f3 45 0f 58 d1       	addss  xmm10,xmm9
 1de:	44 0f 28 cb          	movaps xmm9,xmm3
 1e2:	f3 44 0f 59 cf       	mulss  xmm9,xmm7
 1e7:	f3 0f 59 f9          	mulss  xmm7,xmm1
 1eb:	f3 44 0f 11 57 30    	movss  DWORD PTR [rdi+0x30],xmm10
 1f1:	f3 44 0f 10 57 08    	movss  xmm10,DWORD PTR [rdi+0x8]
 1f7:	f3 44 0f 59 d4       	mulss  xmm10,xmm4
 1fc:	f3 41 0f 58 fb       	addss  xmm7,xmm11
 201:	f3 45 0f 58 d1       	addss  xmm10,xmm9
 206:	44 0f 28 cb          	movaps xmm9,xmm3
 20a:	f3 44 0f 59 ce       	mulss  xmm9,xmm6
 20f:	f3 0f 59 f1          	mulss  xmm6,xmm1
 213:	f3 44 0f 58 d5       	addss  xmm10,xmm5
 218:	f3 0f 10 6f 18       	movss  xmm5,DWORD PTR [rdi+0x18]
 21d:	f3 0f 59 ec          	mulss  xmm5,xmm4
 221:	f3 44 0f 11 57 04    	movss  DWORD PTR [rdi+0x4],xmm10
 227:	f3 44 0f 10 54 24 f4 	movss  xmm10,DWORD PTR [rsp-0xc]
 22e:	f3 41 0f 58 e9       	addss  xmm5,xmm9
 233:	45 0f 28 ca          	movaps xmm9,xmm10
 237:	f3 44 0f 59 d2       	mulss  xmm10,xmm2
 23c:	f3 45 0f 59 c8       	mulss  xmm9,xmm8
 241:	f3 41 0f 58 f2       	addss  xmm6,xmm10
 246:	f3 41 0f 58 e9       	addss  xmm5,xmm9
 24b:	44 0f 28 cb          	movaps xmm9,xmm3
 24f:	f3 41 0f 59 dc       	mulss  xmm3,xmm12
 254:	f3 45 0f 59 ce       	mulss  xmm9,xmm14
 259:	f3 44 0f 59 f1       	mulss  xmm14,xmm1
 25e:	f3 0f 11 6f 14       	movss  DWORD PTR [rdi+0x14],xmm5
 263:	f3 41 0f 59 cc       	mulss  xmm1,xmm12
 268:	f3 0f 10 6f 28       	movss  xmm5,DWORD PTR [rdi+0x28]
 26d:	f3 0f 59 ec          	mulss  xmm5,xmm4
 271:	f3 0f 59 67 38       	mulss  xmm4,DWORD PTR [rdi+0x38]
 276:	f3 41 0f 58 e9       	addss  xmm5,xmm9
 27b:	45 0f 28 c8          	movaps xmm9,xmm8
 27f:	f3 45 0f 59 c7       	mulss  xmm8,xmm15
 284:	f3 45 0f 59 cd       	mulss  xmm9,xmm13
 289:	f3 0f 58 dc          	addss  xmm3,xmm4
 28d:	f3 44 0f 59 ea       	mulss  xmm13,xmm2
 292:	f3 41 0f 59 d7       	mulss  xmm2,xmm15
 297:	f3 0f 10 67 28       	movss  xmm4,DWORD PTR [rdi+0x28]
 29c:	f3 0f 59 e0          	mulss  xmm4,xmm0
 2a0:	f3 41 0f 58 e9       	addss  xmm5,xmm9
 2a5:	f3 41 0f 58 d8       	addss  xmm3,xmm8
 2aa:	f3 44 0f 10 47 18    	movss  xmm8,DWORD PTR [rdi+0x18]
 2b0:	f3 44 0f 59 c0       	mulss  xmm8,xmm0
 2b5:	f3 45 0f 58 f5       	addss  xmm14,xmm13
 2ba:	f3 0f 58 d1          	addss  xmm2,xmm1
 2be:	f3 0f 11 6f 24       	movss  DWORD PTR [rdi+0x24],xmm5
 2c3:	f3 0f 11 5f 34       	movss  DWORD PTR [rdi+0x34],xmm3
 2c8:	f3 0f 10 5f 08       	movss  xmm3,DWORD PTR [rdi+0x8]
 2cd:	f3 41 0f 58 f0       	addss  xmm6,xmm8
 2d2:	f3 0f 59 d8          	mulss  xmm3,xmm0
 2d6:	f3 44 0f 58 f4       	addss  xmm14,xmm4
 2db:	f3 0f 59 47 38       	mulss  xmm0,DWORD PTR [rdi+0x38]
 2e0:	f3 0f 11 77 18       	movss  DWORD PTR [rdi+0x18],xmm6
 2e5:	f3 0f 58 fb          	addss  xmm7,xmm3
 2e9:	f3 44 0f 11 77 28    	movss  DWORD PTR [rdi+0x28],xmm14
 2ef:	f3 0f 58 c2          	addss  xmm0,xmm2
 2f3:	f3 0f 11 7f 08       	movss  DWORD PTR [rdi+0x8],xmm7
 2f8:	f3 0f 11 47 38       	movss  DWORD PTR [rdi+0x38],xmm0
 2fd:	c3                   	ret    

Disassembly of section .text._ZN3XGK4DATA4MAT413postRotQuat32EPvS2_:

0000000000000000 <_ZN3XGK4DATA4MAT413postRotQuat32EPvS2_>:
   0:	f3 0f 10 2e          	movss  xmm5,DWORD PTR [rsi]
   4:	0f 28 c5             	movaps xmm0,xmm5
   7:	f3 0f 10 76 04       	movss  xmm6,DWORD PTR [rsi+0x4]
   c:	0f 28 d5             	movaps xmm2,xmm5
   f:	f3 0f 59 c6          	mulss  xmm0,xmm6
  13:	44 0f 28 de          	movaps xmm11,xmm6
  17:	44 0f 28 e6          	movaps xmm12,xmm6
  1b:	f3 0f 59 f6          	mulss  xmm6,xmm6
  1f:	f3 0f 10 4e 08       	movss  xmm1,DWORD PTR [rsi+0x8]
  24:	f3 0f 59 d1          	mulss  xmm2,xmm1
  28:	f3 44 0f 10 56 0c    	movss  xmm10,DWORD PTR [rsi+0xc]
  2e:	0f 28 f8             	movaps xmm7,xmm0
  31:	f3 44 0f 59 d9       	mulss  xmm11,xmm1
  36:	f3 0f 58 f6          	addss  xmm6,xmm6
  3a:	f3 45 0f 59 e2       	mulss  xmm12,xmm10
  3f:	f3 0f 58 f8          	addss  xmm7,xmm0
  43:	0f 28 c1             	movaps xmm0,xmm1
  46:	f3 0f 59 c9          	mulss  xmm1,xmm1
  4a:	f3 0f 58 d2          	addss  xmm2,xmm2
  4e:	f3 41 0f 59 c2       	mulss  xmm0,xmm10
  53:	f3 44 0f 10 2d 00 00 	movss  xmm13,DWORD PTR [rip+0x0]        # 5c <_ZN3XGK4DATA4MAT413postRotQuat32EPvS2_+0x5c>
  5a:	00 00 
  5c:	f3 44 0f 59 d5       	mulss  xmm10,xmm5
  61:	0f 28 de             	movaps xmm3,xmm6
  64:	f3 0f 59 ed          	mulss  xmm5,xmm5
  68:	f3 45 0f 58 e4       	addss  xmm12,xmm12
  6d:	f3 0f 58 c9          	addss  xmm1,xmm1
  71:	0f 28 e7             	movaps xmm4,xmm7
  74:	f3 0f 58 c0          	addss  xmm0,xmm0
  78:	45 0f 28 cd          	movaps xmm9,xmm13
  7c:	f3 44 0f 10 7f 18    	movss  xmm15,DWORD PTR [rdi+0x18]
  82:	f3 45 0f 58 db       	addss  xmm11,xmm11
  87:	f3 0f 58 ed          	addss  xmm5,xmm5
  8b:	f3 44 0f 11 7c 24 fc 	movss  DWORD PTR [rsp-0x4],xmm15
  92:	f3 0f 58 d9          	addss  xmm3,xmm1
  96:	f3 44 0f 10 77 08    	movss  xmm14,DWORD PTR [rdi+0x8]
  9c:	f3 0f 5c e0          	subss  xmm4,xmm0
  a0:	f3 0f 58 c7          	addss  xmm0,xmm7
  a4:	45 0f 28 c3          	movaps xmm8,xmm11
  a8:	0f 57 2d 00 00 00 00 	xorps  xmm5,XMMWORD PTR [rip+0x0]        # af <_ZN3XGK4DATA4MAT413postRotQuat32EPvS2_+0xaf>
  af:	f3 45 0f 58 d2       	addss  xmm10,xmm10
  b4:	f3 44 0f 5c cb       	subss  xmm9,xmm3
  b9:	0f 28 da             	movaps xmm3,xmm2
  bc:	f3 41 0f 5c d4       	subss  xmm2,xmm12
  c1:	44 0f 28 f8          	movaps xmm15,xmm0
  c5:	f3 41 0f 58 dc       	addss  xmm3,xmm12
  ca:	f3 44 0f 10 67 20    	movss  xmm12,DWORD PTR [rdi+0x20]
  d0:	0f 28 fd             	movaps xmm7,xmm5
  d3:	f3 0f 5c ee          	subss  xmm5,xmm6
  d7:	f3 0f 10 77 10       	movss  xmm6,DWORD PTR [rdi+0x10]
  dc:	f3 44 0f 59 fe       	mulss  xmm15,xmm6
  e1:	f3 0f 5c f9          	subss  xmm7,xmm1
  e5:	f3 44 0f 59 e2       	mulss  xmm12,xmm2
  ea:	41 0f 28 cb          	movaps xmm1,xmm11
  ee:	f3 44 0f 10 1f       	movss  xmm11,DWORD PTR [rdi]
  f3:	f3 45 0f 5c c2       	subss  xmm8,xmm10
  f8:	f3 41 0f 58 ca       	addss  xmm1,xmm10
  fd:	f3 44 0f 10 57 14    	movss  xmm10,DWORD PTR [rdi+0x14]
 103:	f3 41 0f 58 fd       	addss  xmm7,xmm13
 108:	f3 45 0f 58 e7       	addss  xmm12,xmm15
 10d:	45 0f 28 f9          	movaps xmm15,xmm9
 111:	f3 44 0f 58 ed       	addss  xmm13,xmm5
 116:	f3 0f 10 6f 04       	movss  xmm5,DWORD PTR [rdi+0x4]
 11b:	f3 45 0f 59 fb       	mulss  xmm15,xmm11
 120:	f3 45 0f 58 e7       	addss  xmm12,xmm15
 125:	44 0f 28 fc          	movaps xmm15,xmm4
 129:	f3 45 0f 59 fb       	mulss  xmm15,xmm11
 12e:	f3 44 0f 59 db       	mulss  xmm11,xmm3
 133:	f3 44 0f 11 27       	movss  DWORD PTR [rdi],xmm12
 138:	f3 44 0f 10 67 20    	movss  xmm12,DWORD PTR [rdi+0x20]
 13e:	f3 44 0f 59 e1       	mulss  xmm12,xmm1
 143:	f3 45 0f 58 e7       	addss  xmm12,xmm15
 148:	44 0f 28 ff          	movaps xmm15,xmm7
 14c:	f3 44 0f 59 fe       	mulss  xmm15,xmm6
 151:	f3 41 0f 59 f0       	mulss  xmm6,xmm8
 156:	f3 45 0f 58 e7       	addss  xmm12,xmm15
 15b:	45 0f 28 f9          	movaps xmm15,xmm9
 15f:	f3 44 0f 58 de       	addss  xmm11,xmm6
 164:	f3 0f 10 77 20       	movss  xmm6,DWORD PTR [rdi+0x20]
 169:	f3 41 0f 59 f5       	mulss  xmm6,xmm13
 16e:	f3 44 0f 59 fd       	mulss  xmm15,xmm5
 173:	f3 44 0f 11 67 10    	movss  DWORD PTR [rdi+0x10],xmm12
 179:	f3 45 0f 59 ce       	mulss  xmm9,xmm14
 17e:	f3 44 0f 10 67 24    	movss  xmm12,DWORD PTR [rdi+0x24]
 184:	f3 44 0f 58 de       	addss  xmm11,xmm6
 189:	f3 44 0f 59 e2       	mulss  xmm12,xmm2
 18e:	f3 0f 10 77 24       	movss  xmm6,DWORD PTR [rdi+0x24]
 193:	f3 0f 59 57 28       	mulss  xmm2,DWORD PTR [rdi+0x28]
 198:	f3 0f 59 f1          	mulss  xmm6,xmm1
 19c:	f3 0f 59 4f 28       	mulss  xmm1,DWORD PTR [rdi+0x28]
 1a1:	f3 44 0f 11 5f 20    	movss  DWORD PTR [rdi+0x20],xmm11
 1a7:	44 0f 28 d8          	movaps xmm11,xmm0
 1ab:	f3 45 0f 59 da       	mulss  xmm11,xmm10
 1b0:	f3 45 0f 58 e3       	addss  xmm12,xmm11
 1b5:	44 0f 28 dc          	movaps xmm11,xmm4
 1b9:	f3 41 0f 59 e6       	mulss  xmm4,xmm14
 1be:	f3 44 0f 59 dd       	mulss  xmm11,xmm5
 1c3:	f3 0f 59 eb          	mulss  xmm5,xmm3
 1c7:	f3 45 0f 58 e7       	addss  xmm12,xmm15
 1cc:	f3 41 0f 59 de       	mulss  xmm3,xmm14
 1d1:	f3 0f 58 cc          	addss  xmm1,xmm4
 1d5:	f3 41 0f 58 f3       	addss  xmm6,xmm11
 1da:	f3 44 0f 11 67 04    	movss  DWORD PTR [rdi+0x4],xmm12
 1e0:	44 0f 28 e7          	movaps xmm12,xmm7
 1e4:	f3 45 0f 59 e2       	mulss  xmm12,xmm10
 1e9:	f3 45 0f 59 d0       	mulss  xmm10,xmm8
 1ee:	f3 41 0f 58 f4       	addss  xmm6,xmm12
 1f3:	f3 41 0f 58 ea       	addss  xmm5,xmm10
 1f8:	f3 44 0f 10 57 24    	movss  xmm10,DWORD PTR [rdi+0x24]
 1fe:	f3 45 0f 59 d5       	mulss  xmm10,xmm13
 203:	f3 44 0f 59 6f 28    	mulss  xmm13,DWORD PTR [rdi+0x28]
 209:	f3 0f 11 77 14       	movss  DWORD PTR [rdi+0x14],xmm6
 20e:	f3 41 0f 58 ea       	addss  xmm5,xmm10
 213:	f3 0f 11 6f 24       	movss  DWORD PTR [rdi+0x24],xmm5
 218:	f3 0f 10 6c 24 fc    	movss  xmm5,DWORD PTR [rsp-0x4]
 21e:	f3 0f 59 c5          	mulss  xmm0,xmm5
 222:	f3 44 0f 59 c5       	mulss  xmm8,xmm5
 227:	f3 0f 59 fd          	mulss  xmm7,xmm5
 22b:	f3 0f 58 d0          	addss  xmm2,xmm0
 22f:	f3 41 0f 58 d8       	addss  xmm3,xmm8
 234:	f3 0f 58 f9          	addss  xmm7,xmm1
 238:	f3 44 0f 58 ca       	addss  xmm9,xmm2
 23d:	f3 41 0f 58 dd       	addss  xmm3,xmm13
 242:	f3 0f 11 7f 18       	movss  DWORD PTR [rdi+0x18],xmm7
 247:	f3 44 0f 11 4f 08    	movss  DWORD PTR [rdi+0x8],xmm9
 24d:	f3 0f 11 5f 28       	movss  DWORD PTR [rdi+0x28],xmm3
 252:	c3                   	ret    

Disassembly of section .text._ZN3XGK4DATA4MAT48transp32EPv:

0000000000000000 <_ZN3XGK4DATA4MAT48transp32EPv>:
   0:	f3 44 0f 10 57 08    	movss  xmm10,DWORD PTR [rdi+0x8]
   6:	f3 44 0f 10 4f 0c    	movss  xmm9,DWORD PTR [rdi+0xc]
   c:	f3 44 0f 10 47 10    	movss  xmm8,DWORD PTR [rdi+0x10]
  12:	f3 0f 10 7f 18       	movss  xmm7,DWORD PTR [rdi+0x18]
  17:	f3 0f 10 77 1c       	movss  xmm6,DWORD PTR [rdi+0x1c]
  1c:	f3 0f 10 6f 20       	movss  xmm5,DWORD PTR [rdi+0x20]
  21:	f3 0f 10 67 24       	movss  xmm4,DWORD PTR [rdi+0x24]
  26:	f3 0f 10 5f 2c       	movss  xmm3,DWORD PTR [rdi+0x2c]
  2b:	f3 0f 10 57 30       	movss  xmm2,DWORD PTR [rdi+0x30]
  30:	f3 0f 10 4f 34       	movss  xmm1,DWORD PTR [rdi+0x34]
  35:	f3 0f 10 47 38       	movss  xmm0,DWORD PTR [rdi+0x38]
  3a:	f3 44 0f 10 5f 04    	movss  xmm11,DWORD PTR [rdi+0x4]
  40:	f3 44 0f 11 5f 10    	movss  DWORD PTR [rdi+0x10],xmm11
  46:	f3 44 0f 11 57 20    	movss  DWORD PTR [rdi+0x20],xmm10
  4c:	f3 44 0f 11 4f 30    	movss  DWORD PTR [rdi+0x30],xmm9
  52:	f3 44 0f 11 47 04    	movss  DWORD PTR [rdi+0x4],xmm8
  58:	f3 0f 11 7f 24       	movss  DWORD PTR [rdi+0x24],xmm7
  5d:	f3 0f 11 77 34       	movss  DWORD PTR [rdi+0x34],xmm6
  62:	f3 0f 11 6f 08       	movss  DWORD PTR [rdi+0x8],xmm5
  67:	f3 0f 11 67 18       	movss  DWORD PTR [rdi+0x18],xmm4
  6c:	f3 0f 11 5f 38       	movss  DWORD PTR [rdi+0x38],xmm3
  71:	f3 0f 11 57 0c       	movss  DWORD PTR [rdi+0xc],xmm2
  76:	f3 0f 11 4f 1c       	movss  DWORD PTR [rdi+0x1c],xmm1
  7b:	f3 0f 11 47 2c       	movss  DWORD PTR [rdi+0x2c],xmm0
  80:	c3                   	ret    

Disassembly of section .text._ZN3XGK4DATA4MAT47invns32EPv:

0000000000000000 <_ZN3XGK4DATA4MAT47invns32EPv>:
   0:	f3 0f 10 47 30       	movss  xmm0,DWORD PTR [rdi+0x30]
   5:	f3 44 0f 10 1d 00 00 	movss  xmm11,DWORD PTR [rip+0x0]        # e <_ZN3XGK4DATA4MAT47invns32EPv+0xe>
   c:	00 00 
   e:	f3 0f 10 67 34       	movss  xmm4,DWORD PTR [rdi+0x34]
  13:	c7 47 0c 00 00 00 00 	mov    DWORD PTR [rdi+0xc],0x0
  1a:	0f 28 cc             	movaps xmm1,xmm4
  1d:	c7 47 1c 00 00 00 00 	mov    DWORD PTR [rdi+0x1c],0x0
  24:	0f 28 f0             	movaps xmm6,xmm0
  27:	c7 47 2c 00 00 00 00 	mov    DWORD PTR [rdi+0x2c],0x0
  2e:	f3 44 0f 10 57 04    	movss  xmm10,DWORD PTR [rdi+0x4]
  34:	c7 47 3c 00 00 80 3f 	mov    DWORD PTR [rdi+0x3c],0x3f800000
  3b:	f3 44 0f 10 47 10    	movss  xmm8,DWORD PTR [rdi+0x10]
  41:	f3 41 0f 59 ca       	mulss  xmm1,xmm10
  46:	f3 44 0f 10 77 20    	movss  xmm14,DWORD PTR [rdi+0x20]
  4c:	f3 41 0f 59 f0       	mulss  xmm6,xmm8
  51:	f3 44 0f 10 7f 24    	movss  xmm15,DWORD PTR [rdi+0x24]
  57:	f3 0f 10 17          	movss  xmm2,DWORD PTR [rdi]
  5b:	f3 44 0f 10 67 14    	movss  xmm12,DWORD PTR [rdi+0x14]
  61:	f3 0f 59 d0          	mulss  xmm2,xmm0
  65:	f3 44 0f 59 e4       	mulss  xmm12,xmm4
  6a:	f3 0f 10 5f 38       	movss  xmm3,DWORD PTR [rdi+0x38]
  6f:	f3 41 0f 59 c6       	mulss  xmm0,xmm14
  74:	0f 28 eb             	movaps xmm5,xmm3
  77:	f3 41 0f 59 e7       	mulss  xmm4,xmm15
  7c:	44 0f 28 eb          	movaps xmm13,xmm3
  80:	f3 0f 59 5f 28       	mulss  xmm3,DWORD PTR [rdi+0x28]
  85:	f3 44 0f 10 4f 08    	movss  xmm9,DWORD PTR [rdi+0x8]
  8b:	f3 0f 10 7f 18       	movss  xmm7,DWORD PTR [rdi+0x18]
  90:	f3 0f 58 d1          	addss  xmm2,xmm1
  94:	f3 41 0f 59 e9       	mulss  xmm5,xmm9
  99:	f3 44 0f 58 e6       	addss  xmm12,xmm6
  9e:	f3 44 0f 11 57 10    	movss  DWORD PTR [rdi+0x10],xmm10
  a4:	f3 44 0f 59 ef       	mulss  xmm13,xmm7
  a9:	f3 0f 58 c4          	addss  xmm0,xmm4
  ad:	f3 44 0f 11 4f 20    	movss  DWORD PTR [rdi+0x20],xmm9
  b3:	f3 44 0f 11 47 04    	movss  DWORD PTR [rdi+0x4],xmm8
  b9:	f3 0f 11 7f 24       	movss  DWORD PTR [rdi+0x24],xmm7
  be:	f3 0f 58 d5          	addss  xmm2,xmm5
  c2:	f3 44 0f 11 77 08    	movss  DWORD PTR [rdi+0x8],xmm14
  c8:	f3 45 0f 58 e5       	addss  xmm12,xmm13
  cd:	f3 44 0f 11 7f 18    	movss  DWORD PTR [rdi+0x18],xmm15
  d3:	f3 0f 58 c3          	addss  xmm0,xmm3
  d7:	41 0f 57 d3          	xorps  xmm2,xmm11
  db:	45 0f 57 e3          	xorps  xmm12,xmm11
  df:	41 0f 57 c3          	xorps  xmm0,xmm11
  e3:	f3 0f 11 57 30       	movss  DWORD PTR [rdi+0x30],xmm2
  e8:	f3 44 0f 11 67 34    	movss  DWORD PTR [rdi+0x34],xmm12
  ee:	f3 0f 11 47 38       	movss  DWORD PTR [rdi+0x38],xmm0
  f3:	c3                   	ret    

Disassembly of section .text._ZN3XGK4DATA4MAT415makeProjPersp32EPvfffff:

0000000000000000 <_ZN3XGK4DATA4MAT415makeProjPersp32EPvfffff>:
   0:	53                   	push   rbx
   1:	48 89 fb             	mov    rbx,rdi
   4:	48 83 ec 10          	sub    rsp,0x10
   8:	f3 0f 59 05 00 00 00 	mulss  xmm0,DWORD PTR [rip+0x0]        # 10 <_ZN3XGK4DATA4MAT415makeProjPersp32EPvfffff+0x10>
   f:	00 
  10:	f3 0f 11 4c 24 0c    	movss  DWORD PTR [rsp+0xc],xmm1
  16:	f3 0f 11 54 24 08    	movss  DWORD PTR [rsp+0x8],xmm2
  1c:	f3 0f 11 5c 24 04    	movss  DWORD PTR [rsp+0x4],xmm3
  22:	f3 0f 11 24 24       	movss  DWORD PTR [rsp],xmm4
  27:	f3 0f 5a c0          	cvtss2sd xmm0,xmm0
  2b:	e8 00 00 00 00       	call   30 <_ZN3XGK4DATA4MAT415makeProjPersp32EPvfffff+0x30>
  30:	66 0f ef ed          	pxor   xmm5,xmm5
  34:	b8 00 00 80 bf       	mov    eax,0xbf800000
  39:	f3 0f 10 54 24 08    	movss  xmm2,DWORD PTR [rsp+0x8]
  3f:	c7 43 20 00 00 00 00 	mov    DWORD PTR [rbx+0x20],0x0
  46:	66 0f ef c9          	pxor   xmm1,xmm1
  4a:	c7 43 24 00 00 00 00 	mov    DWORD PTR [rbx+0x24],0x0
  51:	f3 0f 5a ea          	cvtss2sd xmm5,xmm2
  55:	44 0f 28 c2          	movaps xmm8,xmm2
  59:	f3 0f 10 24 24       	movss  xmm4,DWORD PTR [rsp]
  5e:	48 c7 43 04 00 00 00 	mov    QWORD PTR [rbx+0x4],0x0
  65:	00 
  66:	f2 0f 59 c5          	mulsd  xmm0,xmm5
  6a:	f3 0f 5a cc          	cvtss2sd xmm1,xmm4
  6e:	48 c7 43 0c 00 00 00 	mov    QWORD PTR [rbx+0xc],0x0
  75:	00 
  76:	44 0f 28 d2          	movaps xmm10,xmm2
  7a:	48 c7 43 18 00 00 00 	mov    QWORD PTR [rbx+0x18],0x0
  81:	00 
  82:	f3 44 0f 10 4c 24 04 	movss  xmm9,DWORD PTR [rsp+0x4]
  89:	48 89 43 2c          	mov    QWORD PTR [rbx+0x2c],rax
  8d:	f3 45 0f 5c c1       	subss  xmm8,xmm9
  92:	0f 28 fa             	movaps xmm7,xmm2
  95:	f2 0f 5e c1          	divsd  xmm0,xmm1
  99:	f3 45 0f 58 d1       	addss  xmm10,xmm9
  9e:	c7 43 34 00 00 00 00 	mov    DWORD PTR [rbx+0x34],0x0
  a5:	f3 45 0f 58 c9       	addss  xmm9,xmm9
  aa:	f3 0f 10 5c 24 0c    	movss  xmm3,DWORD PTR [rsp+0xc]
  b0:	f3 0f 58 fa          	addss  xmm7,xmm2
  b4:	c7 43 3c 00 00 00 00 	mov    DWORD PTR [rbx+0x3c],0x0
  bb:	0f 28 cf             	movaps xmm1,xmm7
  be:	f3 44 0f 59 ca       	mulss  xmm9,xmm2
  c3:	f3 45 0f 5e d0       	divss  xmm10,xmm8
  c8:	f2 0f 5a c0          	cvtsd2ss xmm0,xmm0
  cc:	f3 0f 58 c0          	addss  xmm0,xmm0
  d0:	f3 0f 59 d8          	mulss  xmm3,xmm0
  d4:	f3 0f 5e f8          	divss  xmm7,xmm0
  d8:	f3 44 0f 11 53 28    	movss  DWORD PTR [rbx+0x28],xmm10
  de:	f3 0f 5e cb          	divss  xmm1,xmm3
  e2:	f3 0f 11 7b 14       	movss  DWORD PTR [rbx+0x14],xmm7
  e7:	f3 45 0f 5e c8       	divss  xmm9,xmm8
  ec:	f3 0f 11 0b          	movss  DWORD PTR [rbx],xmm1
  f0:	f3 44 0f 11 4b 38    	movss  DWORD PTR [rbx+0x38],xmm9
  f6:	48 83 c4 10          	add    rsp,0x10
  fa:	5b                   	pop    rbx
  fb:	c3                   	ret    

Disassembly of section .text._ZN3XGK4DATA4MAT46set128EPvffffffffffffffff:

0000000000000000 <_ZN3XGK4DATA4MAT46set128EPvffffffffffffffff>:
   0:	f3 44 0f 10 44 24 28 	movss  xmm8,DWORD PTR [rsp+0x28]
   7:	f3 44 0f 10 4c 24 08 	movss  xmm9,DWORD PTR [rsp+0x8]
   e:	0f 14 c4             	unpcklps xmm0,xmm4
  11:	45 0f 14 c8          	unpcklps xmm9,xmm8
  15:	f3 0f 10 64 24 10    	movss  xmm4,DWORD PTR [rsp+0x10]
  1b:	0f 14 cd             	unpcklps xmm1,xmm5
  1e:	0f 14 d6             	unpcklps xmm2,xmm6
  21:	41 0f 16 c1          	movlhps xmm0,xmm9
  25:	0f 14 df             	unpcklps xmm3,xmm7
  28:	0f 29 07             	movaps XMMWORD PTR [rdi],xmm0
  2b:	f3 0f 10 44 24 30    	movss  xmm0,DWORD PTR [rsp+0x30]
  31:	0f 14 e0             	unpcklps xmm4,xmm0
  34:	f3 0f 10 44 24 18    	movss  xmm0,DWORD PTR [rsp+0x18]
  3a:	0f 16 cc             	movlhps xmm1,xmm4
  3d:	0f 29 4f 10          	movaps XMMWORD PTR [rdi+0x10],xmm1
  41:	f3 0f 10 4c 24 38    	movss  xmm1,DWORD PTR [rsp+0x38]
  47:	0f 14 c1             	unpcklps xmm0,xmm1
  4a:	0f 16 d0             	movlhps xmm2,xmm0
  4d:	f3 0f 10 44 24 20    	movss  xmm0,DWORD PTR [rsp+0x20]
  53:	0f 29 57 20          	movaps XMMWORD PTR [rdi+0x20],xmm2
  57:	f3 0f 10 54 24 40    	movss  xmm2,DWORD PTR [rsp+0x40]
  5d:	0f 14 c2             	unpcklps xmm0,xmm2
  60:	0f 16 d8             	movlhps xmm3,xmm0
  63:	0f 29 5f 30          	movaps XMMWORD PTR [rdi+0x30],xmm3
  67:	c3                   	ret    

Disassembly of section .text._ZN3XGK4DATA4MAT49premul128EPvS2_:

0000000000000000 <_ZN3XGK4DATA4MAT49premul128EPvS2_>:
   0:	f3 44 0f 10 3f       	movss  xmm15,DWORD PTR [rdi]
   5:	f3 0f 10 5f 04       	movss  xmm3,DWORD PTR [rdi+0x4]
   a:	45 0f c6 ff 00       	shufps xmm15,xmm15,0x0
   f:	0f c6 db 00          	shufps xmm3,xmm3,0x0
  13:	44 0f 28 36          	movaps xmm14,XMMWORD PTR [rsi]
  17:	44 0f 28 6e 10       	movaps xmm13,XMMWORD PTR [rsi+0x10]
  1c:	45 0f 59 fe          	mulps  xmm15,xmm14
  20:	f3 0f 10 57 10       	movss  xmm2,DWORD PTR [rdi+0x10]
  25:	f3 44 0f 10 57 14    	movss  xmm10,DWORD PTR [rdi+0x14]
  2b:	41 0f 59 dd          	mulps  xmm3,xmm13
  2f:	f3 0f 10 4f 20       	movss  xmm1,DWORD PTR [rdi+0x20]
  34:	0f c6 d2 00          	shufps xmm2,xmm2,0x0
  38:	f3 0f 10 7f 24       	movss  xmm7,DWORD PTR [rdi+0x24]
  3d:	45 0f c6 d2 00       	shufps xmm10,xmm10,0x0
  42:	f3 0f 10 47 30       	movss  xmm0,DWORD PTR [rdi+0x30]
  47:	0f c6 c9 00          	shufps xmm1,xmm1,0x0
  4b:	41 0f 59 d6          	mulps  xmm2,xmm14
  4f:	f3 0f 10 67 34       	movss  xmm4,DWORD PTR [rdi+0x34]
  54:	41 0f 58 df          	addps  xmm3,xmm15
  58:	45 0f 59 d5          	mulps  xmm10,xmm13
  5c:	f3 44 0f 10 4f 18    	movss  xmm9,DWORD PTR [rdi+0x18]
  62:	f3 44 0f 10 7f 08    	movss  xmm15,DWORD PTR [rdi+0x8]
  68:	0f c6 ff 00          	shufps xmm7,xmm7,0x0
  6c:	0f c6 c0 00          	shufps xmm0,xmm0,0x0
  70:	0f c6 e4 00          	shufps xmm4,xmm4,0x0
  74:	44 0f 28 66 20       	movaps xmm12,XMMWORD PTR [rsi+0x20]
  79:	45 0f c6 ff 00       	shufps xmm15,xmm15,0x0
  7e:	45 0f c6 c9 00       	shufps xmm9,xmm9,0x0
  83:	44 0f 58 d2          	addps  xmm10,xmm2
  87:	41 0f 59 ce          	mulps  xmm1,xmm14
  8b:	f3 0f 10 77 28       	movss  xmm6,DWORD PTR [rdi+0x28]
  90:	41 0f 59 fd          	mulps  xmm7,xmm13
  94:	f3 0f 10 57 38       	movss  xmm2,DWORD PTR [rdi+0x38]
  99:	f3 44 0f 10 47 1c    	movss  xmm8,DWORD PTR [rdi+0x1c]
  9f:	44 0f 59 f0          	mulps  xmm14,xmm0
  a3:	f3 0f 10 6f 2c       	movss  xmm5,DWORD PTR [rdi+0x2c]
  a8:	44 0f 28 5e 30       	movaps xmm11,XMMWORD PTR [rsi+0x30]
  ad:	44 0f 59 ec          	mulps  xmm13,xmm4
  b1:	0f 58 f9             	addps  xmm7,xmm1
  b4:	45 0f 59 fc          	mulps  xmm15,xmm12
  b8:	45 0f 59 cc          	mulps  xmm9,xmm12
  bc:	45 0f 58 ee          	addps  xmm13,xmm14
  c0:	0f c6 f6 00          	shufps xmm6,xmm6,0x0
  c4:	0f c6 d2 00          	shufps xmm2,xmm2,0x0
  c8:	41 0f 58 df          	addps  xmm3,xmm15
  cc:	f3 44 0f 10 7f 0c    	movss  xmm15,DWORD PTR [rdi+0xc]
  d2:	41 0f 59 f4          	mulps  xmm6,xmm12
  d6:	45 0f 58 ca          	addps  xmm9,xmm10
  da:	f3 44 0f 10 57 3c    	movss  xmm10,DWORD PTR [rdi+0x3c]
  e0:	44 0f 59 e2          	mulps  xmm12,xmm2
  e4:	45 0f c6 ff 00       	shufps xmm15,xmm15,0x0
  e9:	45 0f c6 c0 00       	shufps xmm8,xmm8,0x0
  ee:	0f 58 f7             	addps  xmm6,xmm7
  f1:	0f c6 ed 00          	shufps xmm5,xmm5,0x0
  f5:	45 0f c6 d2 00       	shufps xmm10,xmm10,0x0
  fa:	45 0f 58 e5          	addps  xmm12,xmm13
  fe:	45 0f 59 fb          	mulps  xmm15,xmm11
 102:	45 0f 59 c3          	mulps  xmm8,xmm11
 106:	41 0f 59 eb          	mulps  xmm5,xmm11
 10a:	41 0f 58 df          	addps  xmm3,xmm15
 10e:	45 0f 59 da          	mulps  xmm11,xmm10
 112:	45 0f 58 c1          	addps  xmm8,xmm9
 116:	0f 58 ee             	addps  xmm5,xmm6
 119:	0f 29 1f             	movaps XMMWORD PTR [rdi],xmm3
 11c:	45 0f 58 dc          	addps  xmm11,xmm12
 120:	44 0f 29 47 10       	movaps XMMWORD PTR [rdi+0x10],xmm8
 125:	0f 29 6f 20          	movaps XMMWORD PTR [rdi+0x20],xmm5
 129:	44 0f 29 5f 30       	movaps XMMWORD PTR [rdi+0x30],xmm11
 12e:	c3                   	ret    

Disassembly of section .text._ZN3XGK4DATA4MAT410postmul128EPvS2_:

0000000000000000 <_ZN3XGK4DATA4MAT410postmul128EPvS2_>:
   0:	f3 0f 10 16          	movss  xmm2,DWORD PTR [rsi]
   4:	0f c6 d2 00          	shufps xmm2,xmm2,0x0
   8:	0f 28 07             	movaps xmm0,XMMWORD PTR [rdi]
   b:	44 0f 28 5f 10       	movaps xmm11,XMMWORD PTR [rdi+0x10]
  10:	0f 59 d0             	mulps  xmm2,xmm0
  13:	44 0f 28 4f 20       	movaps xmm9,XMMWORD PTR [rdi+0x20]
  18:	44 0f 28 47 30       	movaps xmm8,XMMWORD PTR [rdi+0x30]
  1d:	0f 29 17             	movaps XMMWORD PTR [rdi],xmm2
  20:	f3 44 0f 10 6e 10    	movss  xmm13,DWORD PTR [rsi+0x10]
  26:	45 0f c6 ed 00       	shufps xmm13,xmm13,0x0
  2b:	44 0f 59 e8          	mulps  xmm13,xmm0
  2f:	44 0f 29 6f 10       	movaps XMMWORD PTR [rdi+0x10],xmm13
  34:	45 0f 28 f5          	movaps xmm14,xmm13
  38:	f3 44 0f 10 66 20    	movss  xmm12,DWORD PTR [rsi+0x20]
  3e:	45 0f c6 e4 00       	shufps xmm12,xmm12,0x0
  43:	44 0f 59 e0          	mulps  xmm12,xmm0
  47:	44 0f 29 67 20       	movaps XMMWORD PTR [rdi+0x20],xmm12
  4c:	45 0f 28 fc          	movaps xmm15,xmm12
  50:	f3 44 0f 10 56 30    	movss  xmm10,DWORD PTR [rsi+0x30]
  56:	45 0f c6 d2 00       	shufps xmm10,xmm10,0x0
  5b:	44 0f 59 d0          	mulps  xmm10,xmm0
  5f:	44 0f 29 57 30       	movaps XMMWORD PTR [rdi+0x30],xmm10
  64:	45 0f 28 ea          	movaps xmm13,xmm10
  68:	f3 0f 10 7e 04       	movss  xmm7,DWORD PTR [rsi+0x4]
  6d:	0f c6 ff 00          	shufps xmm7,xmm7,0x0
  71:	41 0f 59 fb          	mulps  xmm7,xmm11
  75:	44 0f 28 e7          	movaps xmm12,xmm7
  79:	44 0f 58 e2          	addps  xmm12,xmm2
  7d:	44 0f 29 27          	movaps XMMWORD PTR [rdi],xmm12
  81:	f3 0f 10 76 14       	movss  xmm6,DWORD PTR [rsi+0x14]
  86:	0f c6 f6 00          	shufps xmm6,xmm6,0x0
  8a:	41 0f 59 f3          	mulps  xmm6,xmm11
  8e:	44 0f 28 d6          	movaps xmm10,xmm6
  92:	45 0f 58 d6          	addps  xmm10,xmm14
  96:	44 0f 29 57 10       	movaps XMMWORD PTR [rdi+0x10],xmm10
  9b:	f3 0f 10 6e 24       	movss  xmm5,DWORD PTR [rsi+0x24]
  a0:	0f c6 ed 00          	shufps xmm5,xmm5,0x0
  a4:	41 0f 59 eb          	mulps  xmm5,xmm11
  a8:	44 0f 28 f5          	movaps xmm14,xmm5
  ac:	45 0f 58 f7          	addps  xmm14,xmm15
  b0:	44 0f 29 77 20       	movaps XMMWORD PTR [rdi+0x20],xmm14
  b5:	f3 0f 10 66 34       	movss  xmm4,DWORD PTR [rsi+0x34]
  ba:	0f c6 e4 00          	shufps xmm4,xmm4,0x0
  be:	41 0f 59 e3          	mulps  xmm4,xmm11
  c2:	44 0f 28 dc          	movaps xmm11,xmm4
  c6:	45 0f 58 dd          	addps  xmm11,xmm13
  ca:	44 0f 29 5f 30       	movaps XMMWORD PTR [rdi+0x30],xmm11
  cf:	f3 0f 10 5e 08       	movss  xmm3,DWORD PTR [rsi+0x8]
  d4:	0f c6 db 00          	shufps xmm3,xmm3,0x0
  d8:	41 0f 59 d9          	mulps  xmm3,xmm9
  dc:	41 0f 58 dc          	addps  xmm3,xmm12
  e0:	0f 29 1f             	movaps XMMWORD PTR [rdi],xmm3
  e3:	f3 0f 10 56 18       	movss  xmm2,DWORD PTR [rsi+0x18]
  e8:	0f c6 d2 00          	shufps xmm2,xmm2,0x0
  ec:	41 0f 59 d1          	mulps  xmm2,xmm9
  f0:	41 0f 58 d2          	addps  xmm2,xmm10
  f4:	0f 29 57 10          	movaps XMMWORD PTR [rdi+0x10],xmm2
  f8:	f3 0f 10 4e 28       	movss  xmm1,DWORD PTR [rsi+0x28]
  fd:	0f c6 c9 00          	shufps xmm1,xmm1,0x0
 101:	41 0f 59 c9          	mulps  xmm1,xmm9
 105:	41 0f 58 ce          	addps  xmm1,xmm14
 109:	0f 29 4f 20          	movaps XMMWORD PTR [rdi+0x20],xmm1
 10d:	f3 0f 10 46 38       	movss  xmm0,DWORD PTR [rsi+0x38]
 112:	0f c6 c0 00          	shufps xmm0,xmm0,0x0
 116:	41 0f 59 c1          	mulps  xmm0,xmm9
 11a:	41 0f 58 c3          	addps  xmm0,xmm11
 11e:	0f 29 47 30          	movaps XMMWORD PTR [rdi+0x30],xmm0
 122:	f3 44 0f 10 4e 0c    	movss  xmm9,DWORD PTR [rsi+0xc]
 128:	45 0f c6 c9 00       	shufps xmm9,xmm9,0x0
 12d:	45 0f 59 c8          	mulps  xmm9,xmm8
 131:	41 0f 58 d9          	addps  xmm3,xmm9
 135:	0f 29 1f             	movaps XMMWORD PTR [rdi],xmm3
 138:	f3 44 0f 10 7e 1c    	movss  xmm15,DWORD PTR [rsi+0x1c]
 13e:	45 0f c6 ff 00       	shufps xmm15,xmm15,0x0
 143:	45 0f 59 f8          	mulps  xmm15,xmm8
 147:	41 0f 58 d7          	addps  xmm2,xmm15
 14b:	0f 29 57 10          	movaps XMMWORD PTR [rdi+0x10],xmm2
 14f:	f3 44 0f 10 6e 2c    	movss  xmm13,DWORD PTR [rsi+0x2c]
 155:	45 0f c6 ed 00       	shufps xmm13,xmm13,0x0
 15a:	45 0f 59 e8          	mulps  xmm13,xmm8
 15e:	41 0f 58 cd          	addps  xmm1,xmm13
 162:	0f 29 4f 20          	movaps XMMWORD PTR [rdi+0x20],xmm1
 166:	f3 0f 10 7e 3c       	movss  xmm7,DWORD PTR [rsi+0x3c]
 16b:	0f c6 ff 00          	shufps xmm7,xmm7,0x0
 16f:	41 0f 59 f8          	mulps  xmm7,xmm8
 173:	0f 58 c7             	addps  xmm0,xmm7
 176:	0f 29 47 30          	movaps XMMWORD PTR [rdi+0x30],xmm0
 17a:	c3                   	ret    

Disassembly of section .text._ZN3XGK4DATA4MAT412makeTrans128EPvS2_:

0000000000000000 <_ZN3XGK4DATA4MAT412makeTrans128EPvS2_>:
   0:	66 0f 6f 05 00 00 00 	movdqa xmm0,XMMWORD PTR [rip+0x0]        # 8 <_ZN3XGK4DATA4MAT412makeTrans128EPvS2_+0x8>
   7:	00 
   8:	66 0f 6f 0d 00 00 00 	movdqa xmm1,XMMWORD PTR [rip+0x0]        # 10 <_ZN3XGK4DATA4MAT412makeTrans128EPvS2_+0x10>
   f:	00 
  10:	66 0f 6f 15 00 00 00 	movdqa xmm2,XMMWORD PTR [rip+0x0]        # 18 <_ZN3XGK4DATA4MAT412makeTrans128EPvS2_+0x18>
  17:	00 
  18:	0f 11 07             	movups XMMWORD PTR [rdi],xmm0
  1b:	0f 11 4f 10          	movups XMMWORD PTR [rdi+0x10],xmm1
  1f:	0f 11 57 20          	movups XMMWORD PTR [rdi+0x20],xmm2
  23:	f3 0f 6f 1e          	movdqu xmm3,XMMWORD PTR [rsi]
  27:	0f 11 5f 30          	movups XMMWORD PTR [rdi+0x30],xmm3
  2b:	c3                   	ret    

Disassembly of section .text._ZN3XGK4DATA4MAT411preTrans128EPvS2_:

0000000000000000 <_ZN3XGK4DATA4MAT411preTrans128EPvS2_>:
   0:	0f 28 47 30          	movaps xmm0,XMMWORD PTR [rdi+0x30]
   4:	0f 58 06             	addps  xmm0,XMMWORD PTR [rsi]
   7:	0f 29 47 30          	movaps XMMWORD PTR [rdi+0x30],xmm0
   b:	c3                   	ret    

Disassembly of section .text._ZN3XGK4DATA4MAT412postTrans128EPvS2_:

0000000000000000 <_ZN3XGK4DATA4MAT412postTrans128EPvS2_>:
   0:	0f 28 06             	movaps xmm0,XMMWORD PTR [rsi]
   3:	0f c6 c0 00          	shufps xmm0,xmm0,0x0
   7:	0f 28 57 30          	movaps xmm2,XMMWORD PTR [rdi+0x30]
   b:	0f 59 07             	mulps  xmm0,XMMWORD PTR [rdi]
   e:	0f 28 5f 10          	movaps xmm3,XMMWORD PTR [rdi+0x10]
  12:	0f 58 d0             	addps  xmm2,xmm0
  15:	0f 29 57 30          	movaps XMMWORD PTR [rdi+0x30],xmm2
  19:	0f 28 0e             	movaps xmm1,XMMWORD PTR [rsi]
  1c:	0f c6 c9 55          	shufps xmm1,xmm1,0x55
  20:	0f 59 d9             	mulps  xmm3,xmm1
  23:	0f 58 da             	addps  xmm3,xmm2
  26:	0f 29 5f 30          	movaps XMMWORD PTR [rdi+0x30],xmm3
  2a:	0f 28 26             	movaps xmm4,XMMWORD PTR [rsi]
  2d:	0f c6 e4 aa          	shufps xmm4,xmm4,0xaa
  31:	0f 59 67 20          	mulps  xmm4,XMMWORD PTR [rdi+0x20]
  35:	0f 58 dc             	addps  xmm3,xmm4
  38:	0f 29 5f 30          	movaps XMMWORD PTR [rdi+0x30],xmm3
  3c:	c3                   	ret    

Disassembly of section .text._ZN3XGK4DATA4MAT417makeTransValue128EPvS2_f:

0000000000000000 <_ZN3XGK4DATA4MAT417makeTransValue128EPvS2_f>:
   0:	66 0f 6f 0d 00 00 00 	movdqa xmm1,XMMWORD PTR [rip+0x0]        # 8 <_ZN3XGK4DATA4MAT417makeTransValue128EPvS2_f+0x8>
   7:	00 
   8:	0f c6 c0 00          	shufps xmm0,xmm0,0x0
   c:	66 0f 6f 15 00 00 00 	movdqa xmm2,XMMWORD PTR [rip+0x0]        # 14 <_ZN3XGK4DATA4MAT417makeTransValue128EPvS2_f+0x14>
  13:	00 
  14:	66 0f 6f 1d 00 00 00 	movdqa xmm3,XMMWORD PTR [rip+0x0]        # 1c <_ZN3XGK4DATA4MAT417makeTransValue128EPvS2_f+0x1c>
  1b:	00 
  1c:	0f 11 0f             	movups XMMWORD PTR [rdi],xmm1
  1f:	0f 11 57 10          	movups XMMWORD PTR [rdi+0x10],xmm2
  23:	0f 11 5f 20          	movups XMMWORD PTR [rdi+0x20],xmm3
  27:	0f 59 06             	mulps  xmm0,XMMWORD PTR [rsi]
  2a:	0f 29 47 30          	movaps XMMWORD PTR [rdi+0x30],xmm0
  2e:	c7 47 3c 00 00 80 3f 	mov    DWORD PTR [rdi+0x3c],0x3f800000
  35:	c3                   	ret    

Disassembly of section .text._ZN3XGK4DATA4MAT416preTransValue128EPvS2_f:

0000000000000000 <_ZN3XGK4DATA4MAT416preTransValue128EPvS2_f>:
   0:	44 0f 28 e0          	movaps xmm12,xmm0
   4:	48 83 ec 58          	sub    rsp,0x58
   8:	f3 44 0f 10 1f       	movss  xmm11,DWORD PTR [rdi]
   d:	45 0f c6 e4 00       	shufps xmm12,xmm12,0x0
  12:	f3 0f 10 47 04       	movss  xmm0,DWORD PTR [rdi+0x4]
  17:	45 0f c6 db 00       	shufps xmm11,xmm11,0x0
  1c:	0f c6 c0 00          	shufps xmm0,xmm0,0x0
  20:	44 0f 28 3d 00 00 00 	movaps xmm15,XMMWORD PTR [rip+0x0]        # 28 <_ZN3XGK4DATA4MAT416preTransValue128EPvS2_f+0x28>
  27:	00 
  28:	44 0f 59 26          	mulps  xmm12,XMMWORD PTR [rsi]
  2c:	44 0f 28 35 00 00 00 	movaps xmm14,XMMWORD PTR [rip+0x0]        # 34 <_ZN3XGK4DATA4MAT416preTransValue128EPvS2_f+0x34>
  33:	00 
  34:	45 0f 59 df          	mulps  xmm11,xmm15
  38:	f3 0f 10 5f 08       	movss  xmm3,DWORD PTR [rdi+0x8]
  3d:	41 0f 59 c6          	mulps  xmm0,xmm14
  41:	44 0f 28 2d 00 00 00 	movaps xmm13,XMMWORD PTR [rip+0x0]        # 49 <_ZN3XGK4DATA4MAT416preTransValue128EPvS2_f+0x49>
  48:	00 
  49:	64 48 8b 04 25 28 00 	mov    rax,QWORD PTR fs:0x28
  50:	00 00 
  52:	48 89 44 24 48       	mov    QWORD PTR [rsp+0x48],rax
  57:	31 c0                	xor    eax,eax
  59:	0f c6 db 00          	shufps xmm3,xmm3,0x0
  5d:	44 0f 29 64 24 30    	movaps XMMWORD PTR [rsp+0x30],xmm12
  63:	c7 44 24 3c 00 00 80 	mov    DWORD PTR [rsp+0x3c],0x3f800000
  6a:	3f 
  6b:	41 0f 59 dd          	mulps  xmm3,xmm13
  6f:	41 0f 58 c3          	addps  xmm0,xmm11
  73:	48 8b 44 24 48       	mov    rax,QWORD PTR [rsp+0x48]
  78:	64 48 33 04 25 28 00 	xor    rax,QWORD PTR fs:0x28
  7f:	00 00 
  81:	f3 44 0f 10 57 0c    	movss  xmm10,DWORD PTR [rdi+0xc]
  87:	45 0f c6 d2 00       	shufps xmm10,xmm10,0x0
  8c:	44 0f 28 64 24 30    	movaps xmm12,XMMWORD PTR [rsp+0x30]
  92:	0f 58 c3             	addps  xmm0,xmm3
  95:	45 0f 59 d4          	mulps  xmm10,xmm12
  99:	f3 0f 10 57 10       	movss  xmm2,DWORD PTR [rdi+0x10]
  9e:	f3 44 0f 10 4f 14    	movss  xmm9,DWORD PTR [rdi+0x14]
  a4:	f3 0f 10 4f 20       	movss  xmm1,DWORD PTR [rdi+0x20]
  a9:	0f c6 d2 00          	shufps xmm2,xmm2,0x0
  ad:	f3 0f 10 77 24       	movss  xmm6,DWORD PTR [rdi+0x24]
  b2:	f3 44 0f 10 5f 30    	movss  xmm11,DWORD PTR [rdi+0x30]
  b8:	45 0f c6 c9 00       	shufps xmm9,xmm9,0x0
  bd:	41 0f 58 c2          	addps  xmm0,xmm10
  c1:	0f c6 c9 00          	shufps xmm1,xmm1,0x0
  c5:	f3 44 0f 10 47 18    	movss  xmm8,DWORD PTR [rdi+0x18]
  cb:	0f c6 f6 00          	shufps xmm6,xmm6,0x0
  cf:	45 0f c6 db 00       	shufps xmm11,xmm11,0x0
  d4:	f3 0f 10 6f 28       	movss  xmm5,DWORD PTR [rdi+0x28]
  d9:	41 0f 59 d7          	mulps  xmm2,xmm15
  dd:	0f 29 07             	movaps XMMWORD PTR [rdi],xmm0
  e0:	45 0f 59 ce          	mulps  xmm9,xmm14
  e4:	41 0f 59 cf          	mulps  xmm1,xmm15
  e8:	f3 0f 10 47 34       	movss  xmm0,DWORD PTR [rdi+0x34]
  ed:	0f c6 c0 00          	shufps xmm0,xmm0,0x0
  f1:	f3 0f 10 5f 38       	movss  xmm3,DWORD PTR [rdi+0x38]
  f6:	41 0f 59 f6          	mulps  xmm6,xmm14
  fa:	44 0f 58 ca          	addps  xmm9,xmm2
  fe:	f3 0f 10 7f 1c       	movss  xmm7,DWORD PTR [rdi+0x1c]
 103:	45 0f 59 fb          	mulps  xmm15,xmm11
 107:	f3 0f 10 67 2c       	movss  xmm4,DWORD PTR [rdi+0x2c]
 10c:	44 0f 59 f0          	mulps  xmm14,xmm0
 110:	f3 0f 10 57 3c       	movss  xmm2,DWORD PTR [rdi+0x3c]
 115:	0f 58 f1             	addps  xmm6,xmm1
 118:	45 0f c6 c0 00       	shufps xmm8,xmm8,0x0
 11d:	0f c6 ed 00          	shufps xmm5,xmm5,0x0
 121:	0f c6 db 00          	shufps xmm3,xmm3,0x0
 125:	45 0f 59 c5          	mulps  xmm8,xmm13
 129:	45 0f 58 f7          	addps  xmm14,xmm15
 12d:	41 0f 59 ed          	mulps  xmm5,xmm13
 131:	44 0f 59 eb          	mulps  xmm13,xmm3
 135:	45 0f 58 c1          	addps  xmm8,xmm9
 139:	0f c6 ff 00          	shufps xmm7,xmm7,0x0
 13d:	0f c6 e4 00          	shufps xmm4,xmm4,0x0
 141:	0f 58 ee             	addps  xmm5,xmm6
 144:	0f c6 d2 00          	shufps xmm2,xmm2,0x0
 148:	41 0f 59 fc          	mulps  xmm7,xmm12
 14c:	45 0f 58 ee          	addps  xmm13,xmm14
 150:	41 0f 59 e4          	mulps  xmm4,xmm12
 154:	44 0f 59 e2          	mulps  xmm12,xmm2
 158:	41 0f 58 f8          	addps  xmm7,xmm8
 15c:	0f 58 e5             	addps  xmm4,xmm5
 15f:	45 0f 58 e5          	addps  xmm12,xmm13
 163:	0f 29 7f 10          	movaps XMMWORD PTR [rdi+0x10],xmm7
 167:	0f 29 67 20          	movaps XMMWORD PTR [rdi+0x20],xmm4
 16b:	44 0f 29 67 30       	movaps XMMWORD PTR [rdi+0x30],xmm12
 170:	75 05                	jne    177 <_ZN3XGK4DATA4MAT416preTransValue128EPvS2_f+0x177>
 172:	48 83 c4 58          	add    rsp,0x58
 176:	c3                   	ret    
 177:	e8 00 00 00 00       	call   17c <_ZN3XGK4DATA4MAT47simd128Ev+0x9c>

Disassembly of section .text._ZN3XGK4DATA4MAT417postTransValue128EPvS2_f:

0000000000000000 <_ZN3XGK4DATA4MAT417postTransValue128EPvS2_f>:
   0:	0f c6 c0 00          	shufps xmm0,xmm0,0x0
   4:	0f 59 06             	mulps  xmm0,XMMWORD PTR [rsi]
   7:	0f 28 c8             	movaps xmm1,xmm0
   a:	0f 28 d0             	movaps xmm2,xmm0
   d:	0f c6 c8 00          	shufps xmm1,xmm0,0x0
  11:	0f c6 d0 55          	shufps xmm2,xmm0,0x55
  15:	0f c6 c0 aa          	shufps xmm0,xmm0,0xaa
  19:	0f 59 0f             	mulps  xmm1,XMMWORD PTR [rdi]
  1c:	0f 59 57 10          	mulps  xmm2,XMMWORD PTR [rdi+0x10]
  20:	0f 59 47 20          	mulps  xmm0,XMMWORD PTR [rdi+0x20]
  24:	0f 58 ca             	addps  xmm1,xmm2
  27:	0f 58 4f 30          	addps  xmm1,XMMWORD PTR [rdi+0x30]
  2b:	0f 58 c1             	addps  xmm0,xmm1
  2e:	0f 29 47 30          	movaps XMMWORD PTR [rdi+0x30],xmm0
  32:	c3                   	ret    

Disassembly of section .text._ZN3XGK4DATA4MAT414makeRotQuat128EPvS2_:

0000000000000000 <_ZN3XGK4DATA4MAT414makeRotQuat128EPvS2_>:
   0:	0f 28 06             	movaps xmm0,XMMWORD PTR [rsi]
   3:	0f 28 c8             	movaps xmm1,xmm0
   6:	0f 28 d8             	movaps xmm3,xmm0
   9:	0f 28 d0             	movaps xmm2,xmm0
   c:	0f 28 e0             	movaps xmm4,xmm0
   f:	0f c6 c8 10          	shufps xmm1,xmm0,0x10
  13:	0f 28 2d 00 00 00 00 	movaps xmm5,XMMWORD PTR [rip+0x0]        # 1a <_ZN3XGK4DATA4MAT414makeRotQuat128EPvS2_+0x1a>
  1a:	0f c6 d8 29          	shufps xmm3,xmm0,0x29
  1e:	0f c6 d0 06          	shufps xmm2,xmm0,0x6
  22:	44 0f 28 05 00 00 00 	movaps xmm8,XMMWORD PTR [rip+0x0]        # 2a <_ZN3XGK4DATA4MAT414makeRotQuat128EPvS2_+0x2a>
  29:	00 
  2a:	0f c6 e0 3f          	shufps xmm4,xmm0,0x3f
  2e:	0f 59 c0             	mulps  xmm0,xmm0
  31:	44 0f 28 35 00 00 00 	movaps xmm14,XMMWORD PTR [rip+0x0]        # 39 <_ZN3XGK4DATA4MAT414makeRotQuat128EPvS2_+0x39>
  38:	00 
  39:	0f 59 cb             	mulps  xmm1,xmm3
  3c:	44 0f 29 77 30       	movaps XMMWORD PTR [rdi+0x30],xmm14
  41:	0f 59 d4             	mulps  xmm2,xmm4
  44:	0f 59 c5             	mulps  xmm0,xmm5
  47:	0f 59 cd             	mulps  xmm1,xmm5
  4a:	0f 59 d5             	mulps  xmm2,xmm5
  4d:	0f 28 f8             	movaps xmm7,xmm0
  50:	0f c6 f8 c1          	shufps xmm7,xmm0,0xc1
  54:	0f c6 c0 da          	shufps xmm0,xmm0,0xda
  58:	0f 28 f1             	movaps xmm6,xmm1
  5b:	0f 5c ca             	subps  xmm1,xmm2
  5e:	0f 58 f8             	addps  xmm7,xmm0
  61:	0f 58 f2             	addps  xmm6,xmm2
  64:	0f 28 c1             	movaps xmm0,xmm1
  67:	44 0f 5c c7          	subps  xmm8,xmm7
  6b:	44 0f 28 ce          	movaps xmm9,xmm6
  6f:	0f c6 c6 68          	shufps xmm0,xmm6,0x68
  73:	45 0f 28 d0          	movaps xmm10,xmm8
  77:	45 0f c6 c8 21       	shufps xmm9,xmm8,0x21
  7c:	44 0f c6 d1 14       	shufps xmm10,xmm1,0x14
  81:	41 0f c6 c0 e7       	shufps xmm0,xmm8,0xe7
  86:	44 0f c6 c9 d7       	shufps xmm9,xmm1,0xd7
  8b:	44 0f c6 d6 e7       	shufps xmm10,xmm6,0xe7
  90:	0f 29 47 20          	movaps XMMWORD PTR [rdi+0x20],xmm0
  94:	44 0f 29 0f          	movaps XMMWORD PTR [rdi],xmm9
  98:	44 0f 29 57 10       	movaps XMMWORD PTR [rdi+0x10],xmm10
  9d:	c3                   	ret    

Disassembly of section .text._ZN3XGK4DATA4MAT413preRotQuat128EPvS2_:

0000000000000000 <_ZN3XGK4DATA4MAT413preRotQuat128EPvS2_>:
   0:	0f 28 06             	movaps xmm0,XMMWORD PTR [rsi]
   3:	0f 28 f8             	movaps xmm7,xmm0
   6:	0f 28 e8             	movaps xmm5,xmm0
   9:	44 0f 28 c0          	movaps xmm8,xmm0
   d:	0f 28 f0             	movaps xmm6,xmm0
  10:	0f c6 f8 10          	shufps xmm7,xmm0,0x10
  14:	44 0f 28 15 00 00 00 	movaps xmm10,XMMWORD PTR [rip+0x0]        # 1c <_ZN3XGK4DATA4MAT413preRotQuat128EPvS2_+0x1c>
  1b:	00 
  1c:	44 0f c6 c0 06       	shufps xmm8,xmm0,0x6
  21:	0f c6 e8 29          	shufps xmm5,xmm0,0x29
  25:	44 0f 28 25 00 00 00 	movaps xmm12,XMMWORD PTR [rip+0x0]        # 2d <_ZN3XGK4DATA4MAT413preRotQuat128EPvS2_+0x2d>
  2c:	00 
  2d:	0f c6 f0 3f          	shufps xmm6,xmm0,0x3f
  31:	0f 59 c0             	mulps  xmm0,xmm0
  34:	0f 10 4f 30          	movups xmm1,XMMWORD PTR [rdi+0x30]
  38:	0f 59 ef             	mulps  xmm5,xmm7
  3b:	0f 10 27             	movups xmm4,XMMWORD PTR [rdi]
  3e:	0f 28 f9             	movaps xmm7,xmm1
  41:	41 0f 59 f0          	mulps  xmm6,xmm8
  45:	0f 10 5f 10          	movups xmm3,XMMWORD PTR [rdi+0x10]
  49:	44 0f 28 f4          	movaps xmm14,xmm4
  4d:	41 0f 59 c2          	mulps  xmm0,xmm10
  51:	0f 10 57 20          	movups xmm2,XMMWORD PTR [rdi+0x20]
  55:	41 0f 59 ea          	mulps  xmm5,xmm10
  59:	41 0f 59 f2          	mulps  xmm6,xmm10
  5d:	44 0f 28 d8          	movaps xmm11,xmm0
  61:	44 0f 28 d2          	movaps xmm10,xmm2
  65:	44 0f c6 f4 00       	shufps xmm14,xmm4,0x0
  6a:	44 0f c6 d8 c1       	shufps xmm11,xmm0,0xc1
  6f:	0f c6 c0 da          	shufps xmm0,xmm0,0xda
  73:	44 0f 28 cd          	movaps xmm9,xmm5
  77:	0f 5c ee             	subps  xmm5,xmm6
  7a:	44 0f c6 d2 00       	shufps xmm10,xmm2,0x0
  7f:	41 0f 58 c3          	addps  xmm0,xmm11
  83:	44 0f 28 db          	movaps xmm11,xmm3
  87:	0f c6 f9 00          	shufps xmm7,xmm1,0x0
  8b:	44 0f 58 ce          	addps  xmm9,xmm6
  8f:	44 0f c6 db 55       	shufps xmm11,xmm3,0x55
  94:	44 0f 28 ed          	movaps xmm13,xmm5
  98:	44 0f 5c e0          	subps  xmm12,xmm0
  9c:	0f 28 c1             	movaps xmm0,xmm1
  9f:	45 0f 28 f9          	movaps xmm15,xmm9
  a3:	45 0f c6 e9 68       	shufps xmm13,xmm9,0x68
  a8:	0f c6 c1 55          	shufps xmm0,xmm1,0x55
  ac:	0f c6 c9 aa          	shufps xmm1,xmm1,0xaa
  b0:	45 0f 28 c4          	movaps xmm8,xmm12
  b4:	45 0f c6 fc 21       	shufps xmm15,xmm12,0x21
  b9:	44 0f c6 c5 14       	shufps xmm8,xmm5,0x14
  be:	44 0f c6 fd d7       	shufps xmm15,xmm5,0xd7
  c3:	41 0f 28 ed          	movaps xmm5,xmm13
  c7:	45 0f c6 c1 e7       	shufps xmm8,xmm9,0xe7
  cc:	41 0f c6 ec e7       	shufps xmm5,xmm12,0xe7
  d1:	44 0f 28 ca          	movaps xmm9,xmm2
  d5:	44 0f 28 e4          	movaps xmm12,xmm4
  d9:	41 0f 28 f0          	movaps xmm6,xmm8
  dd:	44 0f 28 c3          	movaps xmm8,xmm3
  e1:	44 0f c6 e4 55       	shufps xmm12,xmm4,0x55
  e6:	44 0f c6 c3 00       	shufps xmm8,xmm3,0x0
  eb:	44 0f c6 ca 55       	shufps xmm9,xmm2,0x55
  f0:	45 0f 59 f7          	mulps  xmm14,xmm15
  f4:	45 0f 59 c7          	mulps  xmm8,xmm15
  f8:	45 0f 59 d7          	mulps  xmm10,xmm15
  fc:	44 0f 59 e6          	mulps  xmm12,xmm6
 100:	44 0f 59 de          	mulps  xmm11,xmm6
 104:	44 0f 59 ce          	mulps  xmm9,xmm6
 108:	45 0f 58 e6          	addps  xmm12,xmm14
 10c:	0f 59 c6             	mulps  xmm0,xmm6
 10f:	45 0f 58 d8          	addps  xmm11,xmm8
 113:	44 0f 59 ff          	mulps  xmm15,xmm7
 117:	45 0f 58 ca          	addps  xmm9,xmm10
 11b:	0f c6 e4 aa          	shufps xmm4,xmm4,0xaa
 11f:	0f c6 db aa          	shufps xmm3,xmm3,0xaa
 123:	0f c6 d2 aa          	shufps xmm2,xmm2,0xaa
 127:	0f 59 e5             	mulps  xmm4,xmm5
 12a:	41 0f 58 c7          	addps  xmm0,xmm15
 12e:	0f 59 dd             	mulps  xmm3,xmm5
 131:	0f 59 d5             	mulps  xmm2,xmm5
 134:	44 0f 58 e4          	addps  xmm12,xmm4
 138:	0f 59 cd             	mulps  xmm1,xmm5
 13b:	41 0f 58 db          	addps  xmm3,xmm11
 13f:	41 0f 58 d1          	addps  xmm2,xmm9
 143:	44 0f 29 27          	movaps XMMWORD PTR [rdi],xmm12
 147:	0f 58 c8             	addps  xmm1,xmm0
 14a:	0f 29 5f 10          	movaps XMMWORD PTR [rdi+0x10],xmm3
 14e:	0f 29 57 20          	movaps XMMWORD PTR [rdi+0x20],xmm2
 152:	0f 29 4f 30          	movaps XMMWORD PTR [rdi+0x30],xmm1
 156:	c7 47 3c 00 00 80 3f 	mov    DWORD PTR [rdi+0x3c],0x3f800000
 15d:	c3                   	ret    

Disassembly of section .text._ZN3XGK4DATA4MAT414postRotQuat128EPvS2_:

0000000000000000 <_ZN3XGK4DATA4MAT414postRotQuat128EPvS2_>:
   0:	0f 28 06             	movaps xmm0,XMMWORD PTR [rsi]
   3:	0f 28 d0             	movaps xmm2,xmm0
   6:	0f 28 d8             	movaps xmm3,xmm0
   9:	0f 28 e0             	movaps xmm4,xmm0
   c:	0f 28 c8             	movaps xmm1,xmm0
   f:	0f c6 d0 10          	shufps xmm2,xmm0,0x10
  13:	0f 28 35 00 00 00 00 	movaps xmm6,XMMWORD PTR [rip+0x0]        # 1a <_ZN3XGK4DATA4MAT414postRotQuat128EPvS2_+0x1a>
  1a:	0f c6 e0 06          	shufps xmm4,xmm0,0x6
  1e:	0f c6 d8 29          	shufps xmm3,xmm0,0x29
  22:	44 0f 28 05 00 00 00 	movaps xmm8,XMMWORD PTR [rip+0x0]        # 2a <_ZN3XGK4DATA4MAT414postRotQuat128EPvS2_+0x2a>
  29:	00 
  2a:	0f c6 c8 3f          	shufps xmm1,xmm0,0x3f
  2e:	0f 59 c0             	mulps  xmm0,xmm0
  31:	44 0f 28 3f          	movaps xmm15,XMMWORD PTR [rdi]
  35:	0f 59 da             	mulps  xmm3,xmm2
  38:	0f 59 cc             	mulps  xmm1,xmm4
  3b:	0f 28 67 20          	movaps xmm4,XMMWORD PTR [rdi+0x20]
  3f:	0f 59 c6             	mulps  xmm0,xmm6
  42:	0f 59 de             	mulps  xmm3,xmm6
  45:	0f 59 ce             	mulps  xmm1,xmm6
  48:	0f 28 f8             	movaps xmm7,xmm0
  4b:	0f c6 f8 c1          	shufps xmm7,xmm0,0xc1
  4f:	0f c6 c0 da          	shufps xmm0,xmm0,0xda
  53:	0f 28 eb             	movaps xmm5,xmm3
  56:	0f 5c d9             	subps  xmm3,xmm1
  59:	0f 58 c7             	addps  xmm0,xmm7
  5c:	0f 58 e9             	addps  xmm5,xmm1
  5f:	44 0f 28 f3          	movaps xmm14,xmm3
  63:	44 0f 5c c0          	subps  xmm8,xmm0
  67:	0f 28 47 10          	movaps xmm0,XMMWORD PTR [rdi+0x10]
  6b:	44 0f 28 e5          	movaps xmm12,xmm5
  6f:	44 0f c6 f5 68       	shufps xmm14,xmm5,0x68
  74:	45 0f 28 e8          	movaps xmm13,xmm8
  78:	45 0f c6 e0 21       	shufps xmm12,xmm8,0x21
  7d:	44 0f c6 eb 14       	shufps xmm13,xmm3,0x14
  82:	45 0f c6 f0 e7       	shufps xmm14,xmm8,0xe7
  87:	44 0f c6 e3 d7       	shufps xmm12,xmm3,0xd7
  8c:	44 0f c6 ed e7       	shufps xmm13,xmm5,0xe7
  91:	41 0f 28 ce          	movaps xmm1,xmm14
  95:	41 0f 28 f6          	movaps xmm6,xmm14
  99:	45 0f 28 dc          	movaps xmm11,xmm12
  9d:	41 0f 28 d5          	movaps xmm2,xmm13
  a1:	45 0f 28 d5          	movaps xmm10,xmm13
  a5:	45 0f 28 cc          	movaps xmm9,xmm12
  a9:	41 0f c6 d5 55       	shufps xmm2,xmm13,0x55
  ae:	41 0f c6 ce 55       	shufps xmm1,xmm14,0x55
  b3:	45 0f c6 dc 00       	shufps xmm11,xmm12,0x0
  b8:	45 0f c6 d5 00       	shufps xmm10,xmm13,0x0
  bd:	0f 28 da             	movaps xmm3,xmm2
  c0:	41 0f c6 f6 00       	shufps xmm6,xmm14,0x0
  c5:	45 0f c6 cc 55       	shufps xmm9,xmm12,0x55
  ca:	0f 59 c8             	mulps  xmm1,xmm0
  cd:	44 0f 59 c8          	mulps  xmm9,xmm0
  d1:	45 0f 59 df          	mulps  xmm11,xmm15
  d5:	0f 28 e9             	movaps xmm5,xmm1
  d8:	0f 59 d8             	mulps  xmm3,xmm0
  db:	45 0f 59 d7          	mulps  xmm10,xmm15
  df:	45 0f 58 cb          	addps  xmm9,xmm11
  e3:	41 0f 59 f7          	mulps  xmm6,xmm15
  e7:	45 0f c6 e4 aa       	shufps xmm12,xmm12,0xaa
  ec:	45 0f c6 ed aa       	shufps xmm13,xmm13,0xaa
  f1:	41 0f 58 da          	addps  xmm3,xmm10
  f5:	45 0f c6 f6 aa       	shufps xmm14,xmm14,0xaa
  fa:	44 0f 59 e4          	mulps  xmm12,xmm4
  fe:	0f 58 ee             	addps  xmm5,xmm6
 101:	44 0f 59 ec          	mulps  xmm13,xmm4
 105:	44 0f 59 f4          	mulps  xmm14,xmm4
 109:	45 0f 58 e1          	addps  xmm12,xmm9
 10d:	44 0f 58 eb          	addps  xmm13,xmm3
 111:	44 0f 58 f5          	addps  xmm14,xmm5
 115:	44 0f 29 27          	movaps XMMWORD PTR [rdi],xmm12
 119:	44 0f 29 6f 10       	movaps XMMWORD PTR [rdi+0x10],xmm13
 11e:	44 0f 29 77 20       	movaps XMMWORD PTR [rdi+0x20],xmm14
 123:	c3                   	ret    

Disassembly of section .text._ZN3XGK4DATA4MAT49transp128EPv:

0000000000000000 <_ZN3XGK4DATA4MAT49transp128EPv>:
   0:	0f 28 07             	movaps xmm0,XMMWORD PTR [rdi]
   3:	0f 28 6f 10          	movaps xmm5,XMMWORD PTR [rdi+0x10]
   7:	0f 28 d0             	movaps xmm2,xmm0
   a:	0f 28 4f 20          	movaps xmm1,XMMWORD PTR [rdi+0x20]
   e:	0f c6 c5 ee          	shufps xmm0,xmm5,0xee
  12:	0f 16 d5             	movlhps xmm2,xmm5
  15:	0f 28 67 30          	movaps xmm4,XMMWORD PTR [rdi+0x30]
  19:	0f 28 d9             	movaps xmm3,xmm1
  1c:	0f 28 f2             	movaps xmm6,xmm2
  1f:	0f c6 cc ee          	shufps xmm1,xmm4,0xee
  23:	0f 16 dc             	movlhps xmm3,xmm4
  26:	0f 28 f8             	movaps xmm7,xmm0
  29:	0f c6 f3 88          	shufps xmm6,xmm3,0x88
  2d:	0f c6 d3 dd          	shufps xmm2,xmm3,0xdd
  31:	0f c6 f9 88          	shufps xmm7,xmm1,0x88
  35:	0f c6 c1 dd          	shufps xmm0,xmm1,0xdd
  39:	0f 29 37             	movaps XMMWORD PTR [rdi],xmm6
  3c:	0f 29 57 10          	movaps XMMWORD PTR [rdi+0x10],xmm2
  40:	0f 29 7f 20          	movaps XMMWORD PTR [rdi+0x20],xmm7
  44:	0f 29 47 30          	movaps XMMWORD PTR [rdi+0x30],xmm0
  48:	c3                   	ret    

Disassembly of section .text._ZN3XGK4DATA4MAT48invns128EPv:

0000000000000000 <_ZN3XGK4DATA4MAT48invns128EPv>:
   0:	0f 28 17             	movaps xmm2,XMMWORD PTR [rdi]
   3:	0f 28 6f 10          	movaps xmm5,XMMWORD PTR [rdi+0x10]
   7:	0f 28 da             	movaps xmm3,xmm2
   a:	0f 28 67 20          	movaps xmm4,XMMWORD PTR [rdi+0x20]
   e:	0f c6 d5 ee          	shufps xmm2,xmm5,0xee
  12:	0f 16 dd             	movlhps xmm3,xmm5
  15:	0f 28 47 30          	movaps xmm0,XMMWORD PTR [rdi+0x30]
  19:	44 0f 28 c4          	movaps xmm8,xmm4
  1d:	0f 28 fb             	movaps xmm7,xmm3
  20:	0f 28 0d 00 00 00 00 	movaps xmm1,XMMWORD PTR [rip+0x0]        # 27 <_ZN3XGK4DATA4MAT48invns128EPv+0x27>
  27:	0f 28 f0             	movaps xmm6,xmm0
  2a:	44 0f 28 c8          	movaps xmm9,xmm0
  2e:	44 0f 16 c1          	movlhps xmm8,xmm1
  32:	0f c6 f0 00          	shufps xmm6,xmm0,0x0
  36:	44 0f c6 c8 55       	shufps xmm9,xmm0,0x55
  3b:	41 0f c6 f8 88       	shufps xmm7,xmm8,0x88
  40:	41 0f c6 d8 dd       	shufps xmm3,xmm8,0xdd
  45:	0f c6 e1 ee          	shufps xmm4,xmm1,0xee
  49:	0f 59 f7             	mulps  xmm6,xmm7
  4c:	0f 29 5f 10          	movaps XMMWORD PTR [rdi+0x10],xmm3
  50:	41 0f 59 d9          	mulps  xmm3,xmm9
  54:	0f 29 3f             	movaps XMMWORD PTR [rdi],xmm7
  57:	0f c6 d4 88          	shufps xmm2,xmm4,0x88
  5b:	0f 5c ce             	subps  xmm1,xmm6
  5e:	0f c6 c0 aa          	shufps xmm0,xmm0,0xaa
  62:	0f 29 57 20          	movaps XMMWORD PTR [rdi+0x20],xmm2
  66:	0f 59 c2             	mulps  xmm0,xmm2
  69:	0f 5c cb             	subps  xmm1,xmm3
  6c:	0f 5c c8             	subps  xmm1,xmm0
  6f:	0f 29 4f 30          	movaps XMMWORD PTR [rdi+0x30],xmm1
  73:	c3                   	ret    

Disassembly of section .text._ZN3XGK4DATA4MAT416makeProjPersp128EPvfffff:

0000000000000000 <_ZN3XGK4DATA4MAT416makeProjPersp128EPvfffff>:
   0:	53                   	push   rbx
   1:	48 89 fb             	mov    rbx,rdi
   4:	48 83 ec 10          	sub    rsp,0x10
   8:	f3 0f 59 05 00 00 00 	mulss  xmm0,DWORD PTR [rip+0x0]        # 10 <_ZN3XGK4DATA4MAT416makeProjPersp128EPvfffff+0x10>
   f:	00 
  10:	f3 0f 11 4c 24 0c    	movss  DWORD PTR [rsp+0xc],xmm1
  16:	f3 0f 11 54 24 08    	movss  DWORD PTR [rsp+0x8],xmm2
  1c:	f3 0f 11 5c 24 04    	movss  DWORD PTR [rsp+0x4],xmm3
  22:	f3 0f 11 24 24       	movss  DWORD PTR [rsp],xmm4
  27:	f3 0f 5a c0          	cvtss2sd xmm0,xmm0
  2b:	e8 00 00 00 00       	call   30 <_ZN3XGK4DATA4MAT416makeProjPersp128EPvfffff+0x30>
  30:	66 0f ef ed          	pxor   xmm5,xmm5
  34:	b8 00 00 80 bf       	mov    eax,0xbf800000
  39:	f3 0f 10 54 24 08    	movss  xmm2,DWORD PTR [rsp+0x8]
  3f:	c7 43 20 00 00 00 00 	mov    DWORD PTR [rbx+0x20],0x0
  46:	66 0f ef c9          	pxor   xmm1,xmm1
  4a:	c7 43 24 00 00 00 00 	mov    DWORD PTR [rbx+0x24],0x0
  51:	f3 0f 5a ea          	cvtss2sd xmm5,xmm2
  55:	44 0f 28 c2          	movaps xmm8,xmm2
  59:	f3 0f 10 24 24       	movss  xmm4,DWORD PTR [rsp]
  5e:	48 c7 43 04 00 00 00 	mov    QWORD PTR [rbx+0x4],0x0
  65:	00 
  66:	f2 0f 59 c5          	mulsd  xmm0,xmm5
  6a:	f3 0f 5a cc          	cvtss2sd xmm1,xmm4
  6e:	48 c7 43 0c 00 00 00 	mov    QWORD PTR [rbx+0xc],0x0
  75:	00 
  76:	44 0f 28 d2          	movaps xmm10,xmm2
  7a:	48 c7 43 18 00 00 00 	mov    QWORD PTR [rbx+0x18],0x0
  81:	00 
  82:	f3 44 0f 10 4c 24 04 	movss  xmm9,DWORD PTR [rsp+0x4]
  89:	48 89 43 2c          	mov    QWORD PTR [rbx+0x2c],rax
  8d:	f3 45 0f 5c c1       	subss  xmm8,xmm9
  92:	0f 28 fa             	movaps xmm7,xmm2
  95:	f2 0f 5e c1          	divsd  xmm0,xmm1
  99:	f3 45 0f 58 d1       	addss  xmm10,xmm9
  9e:	c7 43 34 00 00 00 00 	mov    DWORD PTR [rbx+0x34],0x0
  a5:	f3 45 0f 58 c9       	addss  xmm9,xmm9
  aa:	f3 0f 10 5c 24 0c    	movss  xmm3,DWORD PTR [rsp+0xc]
  b0:	f3 0f 58 fa          	addss  xmm7,xmm2
  b4:	c7 43 3c 00 00 00 00 	mov    DWORD PTR [rbx+0x3c],0x0
  bb:	0f 28 cf             	movaps xmm1,xmm7
  be:	f3 44 0f 59 ca       	mulss  xmm9,xmm2
  c3:	f3 45 0f 5e d0       	divss  xmm10,xmm8
  c8:	f2 0f 5a c0          	cvtsd2ss xmm0,xmm0
  cc:	f3 0f 58 c0          	addss  xmm0,xmm0
  d0:	f3 0f 59 d8          	mulss  xmm3,xmm0
  d4:	f3 0f 5e f8          	divss  xmm7,xmm0
  d8:	f3 44 0f 11 53 28    	movss  DWORD PTR [rbx+0x28],xmm10
  de:	f3 0f 5e cb          	divss  xmm1,xmm3
  e2:	f3 0f 11 7b 14       	movss  DWORD PTR [rbx+0x14],xmm7
  e7:	f3 45 0f 5e c8       	divss  xmm9,xmm8
  ec:	f3 0f 11 0b          	movss  DWORD PTR [rbx],xmm1
  f0:	f3 44 0f 11 4b 38    	movss  DWORD PTR [rbx+0x38],xmm9
  f6:	48 83 c4 10          	add    rsp,0x10
  fa:	5b                   	pop    rbx
  fb:	c3                   	ret    
