
/home/denis/reps/denis-belov/xgk-math/build/gnu-x64/o/vec4.o:     file format elf64-x86-64


Disassembly of section .text:

0000000000000000 <_ZN3XGK4DATA4VEC46simd32Ev>:
   0:	48 8d 05 00 00 00 00 	lea    rax,[rip+0x0]        # 7 <_ZN3XGK4DATA4VEC46simd32Ev+0x7>
   7:	48 8d 15 00 00 00 00 	lea    rdx,[rip+0x0]        # e <_ZN3XGK4DATA4VEC46simd32Ev+0xe>
   e:	48 8d 0d 00 00 00 00 	lea    rcx,[rip+0x0]        # 15 <_ZN3XGK4DATA4VEC46simd32Ev+0x15>
  15:	48 8d 35 00 00 00 00 	lea    rsi,[rip+0x0]        # 1c <_ZN3XGK4DATA4VEC46simd32Ev+0x1c>
  1c:	48 8d 3d 00 00 00 00 	lea    rdi,[rip+0x0]        # 23 <_ZN3XGK4DATA4VEC46simd32Ev+0x23>
  23:	4c 8d 05 00 00 00 00 	lea    r8,[rip+0x0]        # 2a <_ZN3XGK4DATA4VEC46simd32Ev+0x2a>
  2a:	48 89 05 00 00 00 00 	mov    QWORD PTR [rip+0x0],rax        # 31 <_ZN3XGK4DATA4VEC46simd32Ev+0x31>
  31:	4c 8d 0d 00 00 00 00 	lea    r9,[rip+0x0]        # 38 <_ZN3XGK4DATA4VEC46simd32Ev+0x38>
  38:	4c 8d 15 00 00 00 00 	lea    r10,[rip+0x0]        # 3f <_ZN3XGK4DATA4VEC46simd32Ev+0x3f>
  3f:	4c 8d 1d 00 00 00 00 	lea    r11,[rip+0x0]        # 46 <_ZN3XGK4DATA4VEC46simd32Ev+0x46>
  46:	48 8d 05 00 00 00 00 	lea    rax,[rip+0x0]        # 4d <_ZN3XGK4DATA4VEC46simd32Ev+0x4d>
  4d:	48 89 15 00 00 00 00 	mov    QWORD PTR [rip+0x0],rdx        # 54 <_ZN3XGK4DATA4VEC46simd32Ev+0x54>
  54:	48 89 0d 00 00 00 00 	mov    QWORD PTR [rip+0x0],rcx        # 5b <_ZN3XGK4DATA4VEC46simd32Ev+0x5b>
  5b:	48 89 35 00 00 00 00 	mov    QWORD PTR [rip+0x0],rsi        # 62 <_ZN3XGK4DATA4VEC46simd32Ev+0x62>
  62:	48 89 3d 00 00 00 00 	mov    QWORD PTR [rip+0x0],rdi        # 69 <_ZN3XGK4DATA4VEC46simd32Ev+0x69>
  69:	4c 89 05 00 00 00 00 	mov    QWORD PTR [rip+0x0],r8        # 70 <_ZN3XGK4DATA4VEC46simd32Ev+0x70>
  70:	4c 89 0d 00 00 00 00 	mov    QWORD PTR [rip+0x0],r9        # 77 <_ZN3XGK4DATA4VEC46simd32Ev+0x77>
  77:	4c 89 15 00 00 00 00 	mov    QWORD PTR [rip+0x0],r10        # 7e <_ZN3XGK4DATA4VEC46simd32Ev+0x7e>
  7e:	4c 89 1d 00 00 00 00 	mov    QWORD PTR [rip+0x0],r11        # 85 <_ZN3XGK4DATA4VEC46simd32Ev+0x85>
  85:	48 89 05 00 00 00 00 	mov    QWORD PTR [rip+0x0],rax        # 8c <_ZN3XGK4DATA4VEC46simd32Ev+0x8c>
  8c:	c3                   	ret    
  8d:	0f 1f 00             	nop    DWORD PTR [rax]

0000000000000090 <_ZN3XGK4DATA4VEC47simd128Ev>:
  90:	48 8d 05 00 00 00 00 	lea    rax,[rip+0x0]        # 97 <_ZN3XGK4DATA4VEC47simd128Ev+0x7>
  97:	48 8d 15 00 00 00 00 	lea    rdx,[rip+0x0]        # 9e <_ZN3XGK4DATA4VEC47simd128Ev+0xe>
  9e:	48 8d 0d 00 00 00 00 	lea    rcx,[rip+0x0]        # a5 <_ZN3XGK4DATA4VEC47simd128Ev+0x15>
  a5:	48 8d 35 00 00 00 00 	lea    rsi,[rip+0x0]        # ac <_ZN3XGK4DATA4VEC47simd128Ev+0x1c>
  ac:	48 8d 3d 00 00 00 00 	lea    rdi,[rip+0x0]        # b3 <_ZN3XGK4DATA4VEC47simd128Ev+0x23>
  b3:	4c 8d 05 00 00 00 00 	lea    r8,[rip+0x0]        # ba <_ZN3XGK4DATA4VEC47simd128Ev+0x2a>
  ba:	48 89 05 00 00 00 00 	mov    QWORD PTR [rip+0x0],rax        # c1 <_ZN3XGK4DATA4VEC47simd128Ev+0x31>
  c1:	4c 8d 0d 00 00 00 00 	lea    r9,[rip+0x0]        # c8 <_ZN3XGK4DATA4VEC47simd128Ev+0x38>
  c8:	4c 8d 15 00 00 00 00 	lea    r10,[rip+0x0]        # cf <_ZN3XGK4DATA4VEC47simd128Ev+0x3f>
  cf:	4c 8d 1d 00 00 00 00 	lea    r11,[rip+0x0]        # d6 <_ZN3XGK4DATA4VEC47simd128Ev+0x46>
  d6:	48 8d 05 00 00 00 00 	lea    rax,[rip+0x0]        # dd <_ZN3XGK4DATA4VEC47simd128Ev+0x4d>
  dd:	48 89 15 00 00 00 00 	mov    QWORD PTR [rip+0x0],rdx        # e4 <_ZN3XGK4DATA4VEC47simd128Ev+0x54>
  e4:	48 89 0d 00 00 00 00 	mov    QWORD PTR [rip+0x0],rcx        # eb <_ZN3XGK4DATA4VEC47simd128Ev+0x5b>
  eb:	48 89 35 00 00 00 00 	mov    QWORD PTR [rip+0x0],rsi        # f2 <_ZN3XGK4DATA4VEC47simd128Ev+0x62>
  f2:	48 89 3d 00 00 00 00 	mov    QWORD PTR [rip+0x0],rdi        # f9 <_ZN3XGK4DATA4VEC47simd128Ev+0x69>
  f9:	4c 89 05 00 00 00 00 	mov    QWORD PTR [rip+0x0],r8        # 100 <_ZN3XGK4DATA4VEC47simd128Ev+0x70>
 100:	4c 89 0d 00 00 00 00 	mov    QWORD PTR [rip+0x0],r9        # 107 <_ZN3XGK4DATA4VEC47simd128Ev+0x77>
 107:	4c 89 15 00 00 00 00 	mov    QWORD PTR [rip+0x0],r10        # 10e <_ZN3XGK4DATA4VEC47simd128Ev+0x7e>
 10e:	4c 89 1d 00 00 00 00 	mov    QWORD PTR [rip+0x0],r11        # 115 <_ZN3XGK4DATA4VEC47simd128Ev+0x85>
 115:	48 89 05 00 00 00 00 	mov    QWORD PTR [rip+0x0],rax        # 11c <_ZN3XGK4DATA4VEC47simd128Ev+0x8c>
 11c:	c3                   	ret    
 11d:	0f 1f 00             	nop    DWORD PTR [rax]

0000000000000120 <_ZN3XGK4DATA4VEC45printEPv>:
 120:	66 0f ef c0          	pxor   xmm0,xmm0
 124:	48 8d 35 00 00 00 00 	lea    rsi,[rip+0x0]        # 12b <_ZN3XGK4DATA4VEC45printEPv+0xb>
 12b:	66 0f ef db          	pxor   xmm3,xmm3
 12f:	b8 04 00 00 00       	mov    eax,0x4
 134:	66 0f ef d2          	pxor   xmm2,xmm2
 138:	66 0f ef c9          	pxor   xmm1,xmm1
 13c:	f3 0f 5a 07          	cvtss2sd xmm0,DWORD PTR [rdi]
 140:	f3 0f 5a 5f 0c       	cvtss2sd xmm3,DWORD PTR [rdi+0xc]
 145:	f3 0f 5a 57 08       	cvtss2sd xmm2,DWORD PTR [rdi+0x8]
 14a:	f3 0f 5a 4f 04       	cvtss2sd xmm1,DWORD PTR [rdi+0x4]
 14f:	bf 01 00 00 00       	mov    edi,0x1
 154:	e9 00 00 00 00       	jmp    159 <_ZN3XGK4DATA4VEC45printEPv+0x39>

Disassembly of section .text._ZN3XGK4DATA4VEC45set32EPvffff:

0000000000000000 <_ZN3XGK4DATA4VEC45set32EPvffff>:
   0:	f3 0f 11 07          	movss  DWORD PTR [rdi],xmm0
   4:	f3 0f 11 4f 04       	movss  DWORD PTR [rdi+0x4],xmm1
   9:	f3 0f 11 57 08       	movss  DWORD PTR [rdi+0x8],xmm2
   e:	f3 0f 11 5f 0c       	movss  DWORD PTR [rdi+0xc],xmm3
  13:	c3                   	ret    

Disassembly of section .text._ZN3XGK4DATA4VEC45add32EPvS2_:

0000000000000000 <_ZN3XGK4DATA4VEC45add32EPvS2_>:
   0:	f3 0f 10 07          	movss  xmm0,DWORD PTR [rdi]
   4:	f3 0f 58 06          	addss  xmm0,DWORD PTR [rsi]
   8:	f3 0f 10 4f 04       	movss  xmm1,DWORD PTR [rdi+0x4]
   d:	f3 0f 10 57 08       	movss  xmm2,DWORD PTR [rdi+0x8]
  12:	f3 0f 10 5f 0c       	movss  xmm3,DWORD PTR [rdi+0xc]
  17:	f3 0f 11 07          	movss  DWORD PTR [rdi],xmm0
  1b:	f3 0f 58 4e 04       	addss  xmm1,DWORD PTR [rsi+0x4]
  20:	f3 0f 11 4f 04       	movss  DWORD PTR [rdi+0x4],xmm1
  25:	f3 0f 58 56 08       	addss  xmm2,DWORD PTR [rsi+0x8]
  2a:	f3 0f 11 57 08       	movss  DWORD PTR [rdi+0x8],xmm2
  2f:	f3 0f 58 5e 0c       	addss  xmm3,DWORD PTR [rsi+0xc]
  34:	f3 0f 11 5f 0c       	movss  DWORD PTR [rdi+0xc],xmm3
  39:	c3                   	ret    

Disassembly of section .text._ZN3XGK4DATA4VEC46adds32EPvf:

0000000000000000 <_ZN3XGK4DATA4VEC46adds32EPvf>:
   0:	0f c6 c0 00          	shufps xmm0,xmm0,0x0
   4:	0f 10 0f             	movups xmm1,XMMWORD PTR [rdi]
   7:	0f 58 c1             	addps  xmm0,xmm1
   a:	0f 11 07             	movups XMMWORD PTR [rdi],xmm0
   d:	c3                   	ret    

Disassembly of section .text._ZN3XGK4DATA4VEC45sub32EPvS2_:

0000000000000000 <_ZN3XGK4DATA4VEC45sub32EPvS2_>:
   0:	f3 0f 10 07          	movss  xmm0,DWORD PTR [rdi]
   4:	f3 0f 5c 06          	subss  xmm0,DWORD PTR [rsi]
   8:	f3 0f 10 4f 04       	movss  xmm1,DWORD PTR [rdi+0x4]
   d:	f3 0f 10 57 08       	movss  xmm2,DWORD PTR [rdi+0x8]
  12:	f3 0f 10 5f 0c       	movss  xmm3,DWORD PTR [rdi+0xc]
  17:	f3 0f 11 07          	movss  DWORD PTR [rdi],xmm0
  1b:	f3 0f 5c 4e 04       	subss  xmm1,DWORD PTR [rsi+0x4]
  20:	f3 0f 11 4f 04       	movss  DWORD PTR [rdi+0x4],xmm1
  25:	f3 0f 5c 56 08       	subss  xmm2,DWORD PTR [rsi+0x8]
  2a:	f3 0f 11 57 08       	movss  DWORD PTR [rdi+0x8],xmm2
  2f:	f3 0f 5c 5e 0c       	subss  xmm3,DWORD PTR [rsi+0xc]
  34:	f3 0f 11 5f 0c       	movss  DWORD PTR [rdi+0xc],xmm3
  39:	c3                   	ret    

Disassembly of section .text._ZN3XGK4DATA4VEC46subs32EPvf:

0000000000000000 <_ZN3XGK4DATA4VEC46subs32EPvf>:
   0:	0f c6 c0 00          	shufps xmm0,xmm0,0x0
   4:	0f 10 0f             	movups xmm1,XMMWORD PTR [rdi]
   7:	0f 5c c8             	subps  xmm1,xmm0
   a:	0f 11 0f             	movups XMMWORD PTR [rdi],xmm1
   d:	c3                   	ret    

Disassembly of section .text._ZN3XGK4DATA4VEC45mul32EPvS2_:

0000000000000000 <_ZN3XGK4DATA4VEC45mul32EPvS2_>:
   0:	f3 0f 10 07          	movss  xmm0,DWORD PTR [rdi]
   4:	f3 0f 59 06          	mulss  xmm0,DWORD PTR [rsi]
   8:	f3 0f 10 4f 04       	movss  xmm1,DWORD PTR [rdi+0x4]
   d:	f3 0f 10 57 08       	movss  xmm2,DWORD PTR [rdi+0x8]
  12:	f3 0f 10 5f 0c       	movss  xmm3,DWORD PTR [rdi+0xc]
  17:	f3 0f 11 07          	movss  DWORD PTR [rdi],xmm0
  1b:	f3 0f 59 4e 04       	mulss  xmm1,DWORD PTR [rsi+0x4]
  20:	f3 0f 11 4f 04       	movss  DWORD PTR [rdi+0x4],xmm1
  25:	f3 0f 59 56 08       	mulss  xmm2,DWORD PTR [rsi+0x8]
  2a:	f3 0f 11 57 08       	movss  DWORD PTR [rdi+0x8],xmm2
  2f:	f3 0f 59 5e 0c       	mulss  xmm3,DWORD PTR [rsi+0xc]
  34:	f3 0f 11 5f 0c       	movss  DWORD PTR [rdi+0xc],xmm3
  39:	c3                   	ret    

Disassembly of section .text._ZN3XGK4DATA4VEC46muls32EPvf:

0000000000000000 <_ZN3XGK4DATA4VEC46muls32EPvf>:
   0:	0f c6 c0 00          	shufps xmm0,xmm0,0x0
   4:	0f 10 0f             	movups xmm1,XMMWORD PTR [rdi]
   7:	0f 59 c1             	mulps  xmm0,xmm1
   a:	0f 11 07             	movups XMMWORD PTR [rdi],xmm0
   d:	c3                   	ret    

Disassembly of section .text._ZN3XGK4DATA4VEC45div32EPvS2_:

0000000000000000 <_ZN3XGK4DATA4VEC45div32EPvS2_>:
   0:	f3 0f 10 07          	movss  xmm0,DWORD PTR [rdi]
   4:	f3 0f 5e 06          	divss  xmm0,DWORD PTR [rsi]
   8:	f3 0f 10 4f 04       	movss  xmm1,DWORD PTR [rdi+0x4]
   d:	f3 0f 10 57 08       	movss  xmm2,DWORD PTR [rdi+0x8]
  12:	f3 0f 10 5f 0c       	movss  xmm3,DWORD PTR [rdi+0xc]
  17:	f3 0f 11 07          	movss  DWORD PTR [rdi],xmm0
  1b:	f3 0f 5e 4e 04       	divss  xmm1,DWORD PTR [rsi+0x4]
  20:	f3 0f 11 4f 04       	movss  DWORD PTR [rdi+0x4],xmm1
  25:	f3 0f 5e 56 08       	divss  xmm2,DWORD PTR [rsi+0x8]
  2a:	f3 0f 11 57 08       	movss  DWORD PTR [rdi+0x8],xmm2
  2f:	f3 0f 5e 5e 0c       	divss  xmm3,DWORD PTR [rsi+0xc]
  34:	f3 0f 11 5f 0c       	movss  DWORD PTR [rdi+0xc],xmm3
  39:	c3                   	ret    

Disassembly of section .text._ZN3XGK4DATA4VEC46divs32EPvf:

0000000000000000 <_ZN3XGK4DATA4VEC46divs32EPvf>:
   0:	0f c6 c0 00          	shufps xmm0,xmm0,0x0
   4:	0f 10 17             	movups xmm2,XMMWORD PTR [rdi]
   7:	0f 53 c8             	rcpps  xmm1,xmm0
   a:	0f 59 c1             	mulps  xmm0,xmm1
   d:	0f 59 c1             	mulps  xmm0,xmm1
  10:	0f 58 c9             	addps  xmm1,xmm1
  13:	0f 5c c8             	subps  xmm1,xmm0
  16:	0f 59 ca             	mulps  xmm1,xmm2
  19:	0f 11 0f             	movups XMMWORD PTR [rdi],xmm1
  1c:	c3                   	ret    

Disassembly of section .text._ZN3XGK4DATA4VEC46norm32EPv:

0000000000000000 <_ZN3XGK4DATA4VEC46norm32EPv>:
   0:	f3 0f 10 2f          	movss  xmm5,DWORD PTR [rdi]
   4:	f3 0f 10 67 04       	movss  xmm4,DWORD PTR [rdi+0x4]
   9:	0f 28 fd             	movaps xmm7,xmm5
   c:	f3 0f 10 5f 08       	movss  xmm3,DWORD PTR [rdi+0x8]
  11:	f3 0f 10 57 0c       	movss  xmm2,DWORD PTR [rdi+0xc]
  16:	0f 28 cb             	movaps xmm1,xmm3
  19:	0f 28 f4             	movaps xmm6,xmm4
  1c:	f3 0f 59 fd          	mulss  xmm7,xmm5
  20:	0f 28 c2             	movaps xmm0,xmm2
  23:	f3 0f 59 cb          	mulss  xmm1,xmm3
  27:	f3 0f 59 f4          	mulss  xmm6,xmm4
  2b:	f3 0f 59 c2          	mulss  xmm0,xmm2
  2f:	f3 0f 58 fe          	addss  xmm7,xmm6
  33:	f3 0f 58 c8          	addss  xmm1,xmm0
  37:	f3 0f 58 cf          	addss  xmm1,xmm7
  3b:	f3 44 0f 52 c1       	rsqrtss xmm8,xmm1
  40:	f3 41 0f 59 c8       	mulss  xmm1,xmm8
  45:	f3 41 0f 59 c8       	mulss  xmm1,xmm8
  4a:	f3 44 0f 59 05 00 00 	mulss  xmm8,DWORD PTR [rip+0x0]        # 53 <_ZN3XGK4DATA4VEC46norm32EPv+0x53>
  51:	00 00 
  53:	f3 0f 58 0d 00 00 00 	addss  xmm1,DWORD PTR [rip+0x0]        # 5b <_ZN3XGK4DATA4VEC46norm32EPv+0x5b>
  5a:	00 
  5b:	f3 41 0f 59 c8       	mulss  xmm1,xmm8
  60:	f3 0f 59 e9          	mulss  xmm5,xmm1
  64:	f3 0f 59 e1          	mulss  xmm4,xmm1
  68:	f3 0f 59 d9          	mulss  xmm3,xmm1
  6c:	f3 0f 59 ca          	mulss  xmm1,xmm2
  70:	f3 0f 11 2f          	movss  DWORD PTR [rdi],xmm5
  74:	f3 0f 11 67 04       	movss  DWORD PTR [rdi+0x4],xmm4
  79:	f3 0f 11 5f 08       	movss  DWORD PTR [rdi+0x8],xmm3
  7e:	f3 0f 11 4f 0c       	movss  DWORD PTR [rdi+0xc],xmm1
  83:	c3                   	ret    

Disassembly of section .text._ZN3XGK4DATA4VEC46set128EPvffff:

0000000000000000 <_ZN3XGK4DATA4VEC46set128EPvffff>:
   0:	0f 14 d3             	unpcklps xmm2,xmm3
   3:	0f 14 c1             	unpcklps xmm0,xmm1
   6:	0f 16 c2             	movlhps xmm0,xmm2
   9:	0f 29 07             	movaps XMMWORD PTR [rdi],xmm0
   c:	c3                   	ret    

Disassembly of section .text._ZN3XGK4DATA4VEC46add128EPvS2_:

0000000000000000 <_ZN3XGK4DATA4VEC46add128EPvS2_>:
   0:	0f 28 07             	movaps xmm0,XMMWORD PTR [rdi]
   3:	0f 58 06             	addps  xmm0,XMMWORD PTR [rsi]
   6:	0f 29 07             	movaps XMMWORD PTR [rdi],xmm0
   9:	c3                   	ret    

Disassembly of section .text._ZN3XGK4DATA4VEC47adds128EPvf:

0000000000000000 <_ZN3XGK4DATA4VEC47adds128EPvf>:
   0:	0f c6 c0 00          	shufps xmm0,xmm0,0x0
   4:	0f 58 07             	addps  xmm0,XMMWORD PTR [rdi]
   7:	0f 29 07             	movaps XMMWORD PTR [rdi],xmm0
   a:	c3                   	ret    

Disassembly of section .text._ZN3XGK4DATA4VEC46sub128EPvS2_:

0000000000000000 <_ZN3XGK4DATA4VEC46sub128EPvS2_>:
   0:	0f 28 07             	movaps xmm0,XMMWORD PTR [rdi]
   3:	0f 5c 06             	subps  xmm0,XMMWORD PTR [rsi]
   6:	0f 29 07             	movaps XMMWORD PTR [rdi],xmm0
   9:	c3                   	ret    

Disassembly of section .text._ZN3XGK4DATA4VEC47subs128EPvf:

0000000000000000 <_ZN3XGK4DATA4VEC47subs128EPvf>:
   0:	0f 28 c8             	movaps xmm1,xmm0
   3:	0f 28 07             	movaps xmm0,XMMWORD PTR [rdi]
   6:	0f c6 c9 00          	shufps xmm1,xmm1,0x0
   a:	0f 5c c1             	subps  xmm0,xmm1
   d:	0f 29 07             	movaps XMMWORD PTR [rdi],xmm0
  10:	c3                   	ret    

Disassembly of section .text._ZN3XGK4DATA4VEC46mul128EPvS2_:

0000000000000000 <_ZN3XGK4DATA4VEC46mul128EPvS2_>:
   0:	0f 28 07             	movaps xmm0,XMMWORD PTR [rdi]
   3:	0f 59 06             	mulps  xmm0,XMMWORD PTR [rsi]
   6:	0f 29 07             	movaps XMMWORD PTR [rdi],xmm0
   9:	c3                   	ret    

Disassembly of section .text._ZN3XGK4DATA4VEC47muls128EPvf:

0000000000000000 <_ZN3XGK4DATA4VEC47muls128EPvf>:
   0:	0f c6 c0 00          	shufps xmm0,xmm0,0x0
   4:	0f 59 07             	mulps  xmm0,XMMWORD PTR [rdi]
   7:	0f 29 07             	movaps XMMWORD PTR [rdi],xmm0
   a:	c3                   	ret    

Disassembly of section .text._ZN3XGK4DATA4VEC46div128EPvS2_:

0000000000000000 <_ZN3XGK4DATA4VEC46div128EPvS2_>:
   0:	0f 28 0e             	movaps xmm1,XMMWORD PTR [rsi]
   3:	0f 53 c1             	rcpps  xmm0,xmm1
   6:	0f 59 c8             	mulps  xmm1,xmm0
   9:	0f 59 c8             	mulps  xmm1,xmm0
   c:	0f 58 c0             	addps  xmm0,xmm0
   f:	0f 5c c1             	subps  xmm0,xmm1
  12:	0f 59 07             	mulps  xmm0,XMMWORD PTR [rdi]
  15:	0f 29 07             	movaps XMMWORD PTR [rdi],xmm0
  18:	c3                   	ret    

Disassembly of section .text._ZN3XGK4DATA4VEC47divs128EPvf:

0000000000000000 <_ZN3XGK4DATA4VEC47divs128EPvf>:
   0:	0f c6 c0 00          	shufps xmm0,xmm0,0x0
   4:	0f 53 c8             	rcpps  xmm1,xmm0
   7:	0f 59 c1             	mulps  xmm0,xmm1
   a:	0f 59 c1             	mulps  xmm0,xmm1
   d:	0f 58 c9             	addps  xmm1,xmm1
  10:	0f 5c c8             	subps  xmm1,xmm0
  13:	0f 59 0f             	mulps  xmm1,XMMWORD PTR [rdi]
  16:	0f 29 0f             	movaps XMMWORD PTR [rdi],xmm1
  19:	c3                   	ret    

Disassembly of section .text._ZN3XGK4DATA4VEC47norm128EPv:

0000000000000000 <_ZN3XGK4DATA4VEC47norm128EPv>:
   0:	f3 0f 10 17          	movss  xmm2,DWORD PTR [rdi]
   4:	f3 0f 10 5f 04       	movss  xmm3,DWORD PTR [rdi+0x4]
   9:	f3 0f 59 d2          	mulss  xmm2,xmm2
   d:	f3 0f 10 4f 08       	movss  xmm1,DWORD PTR [rdi+0x8]
  12:	f3 0f 59 db          	mulss  xmm3,xmm3
  16:	f3 0f 10 47 0c       	movss  xmm0,DWORD PTR [rdi+0xc]
  1b:	f3 0f 59 c9          	mulss  xmm1,xmm1
  1f:	f3 0f 59 c0          	mulss  xmm0,xmm0
  23:	f3 0f 58 da          	addss  xmm3,xmm2
  27:	f3 0f 58 c8          	addss  xmm1,xmm0
  2b:	f3 0f 58 d9          	addss  xmm3,xmm1
  2f:	f3 0f 51 e3          	sqrtss xmm4,xmm3
  33:	0f c6 e4 00          	shufps xmm4,xmm4,0x0
  37:	0f 53 ec             	rcpps  xmm5,xmm4
  3a:	0f 59 e5             	mulps  xmm4,xmm5
  3d:	0f 59 e5             	mulps  xmm4,xmm5
  40:	0f 58 ed             	addps  xmm5,xmm5
  43:	0f 5c ec             	subps  xmm5,xmm4
  46:	0f 59 2f             	mulps  xmm5,XMMWORD PTR [rdi]
  49:	0f 29 2f             	movaps XMMWORD PTR [rdi],xmm5
  4c:	c3                   	ret    
