
/home/denis/reps/denis-belov/xgk-math/build/gnu-x64/a/xgk-math.a:     file format elf64-x86-64


Disassembly of section .text:

0000000000000000 <_ZN3XGK4DATA4VEC46simd32Ev>:
       0:	48 8d 05 00 00 00 00 	lea    rax,[rip+0x0]        # 7 <_ZN3XGK4DATA4VEC46simd32Ev+0x7>
       7:	48 8d 15 00 00 00 00 	lea    rdx,[rip+0x0]        # e <_ZN3XGK4DATA4VEC46simd32Ev+0xe>
       e:	48 8d 0d 00 00 00 00 	lea    rcx,[rip+0x0]        # 15 <_ZN3XGK4DATA4VEC46simd32Ev+0x15>
      15:	48 8d 35 00 00 00 00 	lea    rsi,[rip+0x0]        # 1c <_ZN3XGK4DATA4VEC46simd32Ev+0x1c>
      1c:	48 8d 3d 00 00 00 00 	lea    rdi,[rip+0x0]        # 23 <_ZN3XGK4DATA4VEC46simd32Ev+0x23>
      23:	4c 8d 05 00 00 00 00 	lea    r8,[rip+0x0]        # 2a <_ZN3XGK4DATA4VEC46simd32Ev+0x2a>
      2a:	48 89 05 00 00 00 00 	mov    QWORD PTR [rip+0x0],rax        # 31 <_ZN3XGK4DATA4VEC46simd32Ev+0x31>
      31:	4c 8d 0d 00 00 00 00 	lea    r9,[rip+0x0]        # 38 <_ZN3XGK4DATA4VEC46simd32Ev+0x38>
      38:	4c 8d 15 00 00 00 00 	lea    r10,[rip+0x0]        # 3f <_ZN3XGK4DATA4VEC46simd32Ev+0x3f>
      3f:	4c 8d 1d 00 00 00 00 	lea    r11,[rip+0x0]        # 46 <_ZN3XGK4DATA4VEC46simd32Ev+0x46>
      46:	48 8d 05 00 00 00 00 	lea    rax,[rip+0x0]        # 4d <_ZN3XGK4DATA4VEC46simd32Ev+0x4d>
      4d:	48 89 15 00 00 00 00 	mov    QWORD PTR [rip+0x0],rdx        # 54 <_ZN3XGK4DATA4VEC46simd32Ev+0x54>
      54:	48 89 0d 00 00 00 00 	mov    QWORD PTR [rip+0x0],rcx        # 5b <_ZN3XGK4DATA4VEC46simd32Ev+0x5b>
      5b:	48 89 35 00 00 00 00 	mov    QWORD PTR [rip+0x0],rsi        # 62 <_ZN3XGK4DATA4VEC46simd32Ev+0x62>
      62:	48 89 3d 00 00 00 00 	mov    QWORD PTR [rip+0x0],rdi        # 69 <_ZN3XGK4DATA4VEC46simd32Ev+0x69>
      69:	4c 89 05 00 00 00 00 	mov    QWORD PTR [rip+0x0],r8        # 70 <_ZN3XGK4DATA4VEC46simd32Ev+0x70>
      70:	4c 89 0d 00 00 00 00 	mov    QWORD PTR [rip+0x0],r9        # 77 <_ZN3XGK4DATA4VEC46simd32Ev+0x77>
      77:	4c 89 15 00 00 00 00 	mov    QWORD PTR [rip+0x0],r10        # 7e <_ZN3XGK4DATA4VEC46simd32Ev+0x7e>
      7e:	4c 89 1d 00 00 00 00 	mov    QWORD PTR [rip+0x0],r11        # 85 <_ZN3XGK4DATA4VEC46simd32Ev+0x85>
      85:	48 89 05 00 00 00 00 	mov    QWORD PTR [rip+0x0],rax        # 8c <_ZN3XGK4DATA4VEC46simd32Ev+0x8c>
      8c:	c3                   	ret    
      8d:	0f 1f 00             	nop    DWORD PTR [rax]

0000000000000090 <_ZN3XGK4DATA4VEC47simd128Ev>:
      90:	48 8d 05 00 00 00 00 	lea    rax,[rip+0x0]        # 97 <_ZN3XGK4DATA4VEC47simd128Ev+0x7>
      97:	48 8d 15 00 00 00 00 	lea    rdx,[rip+0x0]        # 9e <_ZN3XGK4DATA4VEC47simd128Ev+0xe>
      9e:	48 8d 0d 00 00 00 00 	lea    rcx,[rip+0x0]        # a5 <_ZN3XGK4DATA4VEC47simd128Ev+0x15>
      a5:	48 8d 35 00 00 00 00 	lea    rsi,[rip+0x0]        # ac <_ZN3XGK4DATA4VEC47simd128Ev+0x1c>
      ac:	48 8d 3d 00 00 00 00 	lea    rdi,[rip+0x0]        # b3 <_ZN3XGK4DATA4VEC47simd128Ev+0x23>
      b3:	4c 8d 05 00 00 00 00 	lea    r8,[rip+0x0]        # ba <_ZN3XGK4DATA4VEC47simd128Ev+0x2a>
      ba:	48 89 05 00 00 00 00 	mov    QWORD PTR [rip+0x0],rax        # c1 <_ZN3XGK4DATA4VEC47simd128Ev+0x31>
      c1:	4c 8d 0d 00 00 00 00 	lea    r9,[rip+0x0]        # c8 <_ZN3XGK4DATA4VEC47simd128Ev+0x38>
      c8:	4c 8d 15 00 00 00 00 	lea    r10,[rip+0x0]        # cf <_ZN3XGK4DATA4VEC47simd128Ev+0x3f>
      cf:	4c 8d 1d 00 00 00 00 	lea    r11,[rip+0x0]        # d6 <_ZN3XGK4DATA4VEC47simd128Ev+0x46>
      d6:	48 8d 05 00 00 00 00 	lea    rax,[rip+0x0]        # dd <_ZN3XGK4DATA4VEC47simd128Ev+0x4d>
      dd:	48 89 15 00 00 00 00 	mov    QWORD PTR [rip+0x0],rdx        # e4 <_ZN3XGK4DATA4VEC47simd128Ev+0x54>
      e4:	48 89 0d 00 00 00 00 	mov    QWORD PTR [rip+0x0],rcx        # eb <_ZN3XGK4DATA4VEC47simd128Ev+0x5b>
      eb:	48 89 35 00 00 00 00 	mov    QWORD PTR [rip+0x0],rsi        # f2 <_ZN3XGK4DATA4VEC47simd128Ev+0x62>
      f2:	48 89 3d 00 00 00 00 	mov    QWORD PTR [rip+0x0],rdi        # f9 <_ZN3XGK4DATA4VEC47simd128Ev+0x69>
      f9:	4c 89 05 00 00 00 00 	mov    QWORD PTR [rip+0x0],r8        # 100 <_ZN3XGK4DATA4VEC47simd128Ev+0x70>
     100:	4c 89 0d 00 00 00 00 	mov    QWORD PTR [rip+0x0],r9        # 107 <_ZN3XGK4DATA4VEC47simd128Ev+0x77>
     107:	4c 89 15 00 00 00 00 	mov    QWORD PTR [rip+0x0],r10        # 10e <_ZN3XGK4DATA4VEC47simd128Ev+0x7e>
     10e:	4c 89 1d 00 00 00 00 	mov    QWORD PTR [rip+0x0],r11        # 115 <_ZN3XGK4DATA4VEC47simd128Ev+0x85>
     115:	48 89 05 00 00 00 00 	mov    QWORD PTR [rip+0x0],rax        # 11c <_ZN3XGK4DATA4VEC47simd128Ev+0x8c>
     11c:	c3                   	ret    
     11d:	0f 1f 00             	nop    DWORD PTR [rax]

0000000000000120 <_ZN3XGK4DATA4VEC45printEPv>:
     120:	66 0f ef c0          	pxor   xmm0,xmm0
     124:	48 8d 35 00 00 00 00 	lea    rsi,[rip+0x0]        # 12b <_ZN3XGK4DATA4VEC45printEPv+0xb>
     12b:	66 0f ef db          	pxor   xmm3,xmm3
     12f:	b8 04 00 00 00       	mov    eax,0x4
     134:	66 0f ef d2          	pxor   xmm2,xmm2
     138:	66 0f ef c9          	pxor   xmm1,xmm1
     13c:	f3 0f 5a 07          	cvtss2sd xmm0,DWORD PTR [rdi]
     140:	f3 0f 5a 5f 0c       	cvtss2sd xmm3,DWORD PTR [rdi+0xc]
     145:	f3 0f 5a 57 08       	cvtss2sd xmm2,DWORD PTR [rdi+0x8]
     14a:	f3 0f 5a 4f 04       	cvtss2sd xmm1,DWORD PTR [rdi+0x4]
     14f:	bf 01 00 00 00       	mov    edi,0x1
     154:	e9 00 00 00 00       	jmp    159 <_ZN3XGK4DATA4VEC45printEPv+0x39>
     159:	0f 1f 80 00 00 00 00 	nop    DWORD PTR [rax+0x0]

0000000000000160 <_ZN3XGK4DATA4QUAT6simd32Ev>:
     160:	48 8d 05 00 00 00 00 	lea    rax,[rip+0x0]        # 167 <_ZN3XGK4DATA4QUAT6simd32Ev+0x7>
     167:	48 8d 15 00 00 00 00 	lea    rdx,[rip+0x0]        # 16e <_ZN3XGK4DATA4QUAT6simd32Ev+0xe>
     16e:	48 8d 0d 00 00 00 00 	lea    rcx,[rip+0x0]        # 175 <_ZN3XGK4DATA4QUAT6simd32Ev+0x15>
     175:	48 8d 35 00 00 00 00 	lea    rsi,[rip+0x0]        # 17c <_ZN3XGK4DATA4QUAT6simd32Ev+0x1c>
     17c:	48 8d 3d 00 00 00 00 	lea    rdi,[rip+0x0]        # 183 <_ZN3XGK4DATA4QUAT6simd32Ev+0x23>
     183:	4c 8d 05 00 00 00 00 	lea    r8,[rip+0x0]        # 18a <_ZN3XGK4DATA4QUAT6simd32Ev+0x2a>
     18a:	48 89 05 00 00 00 00 	mov    QWORD PTR [rip+0x0],rax        # 191 <_ZN3XGK4DATA4QUAT6simd32Ev+0x31>
     191:	48 89 15 00 00 00 00 	mov    QWORD PTR [rip+0x0],rdx        # 198 <_ZN3XGK4DATA4QUAT6simd32Ev+0x38>
     198:	4c 8d 0d 00 00 00 00 	lea    r9,[rip+0x0]        # 19f <_ZN3XGK4DATA4QUAT6simd32Ev+0x3f>
     19f:	48 89 0d 00 00 00 00 	mov    QWORD PTR [rip+0x0],rcx        # 1a6 <_ZN3XGK4DATA4QUAT6simd32Ev+0x46>
     1a6:	48 89 35 00 00 00 00 	mov    QWORD PTR [rip+0x0],rsi        # 1ad <_ZN3XGK4DATA4QUAT6simd32Ev+0x4d>
     1ad:	4c 8d 15 00 00 00 00 	lea    r10,[rip+0x0]        # 1b4 <_ZN3XGK4DATA4QUAT6simd32Ev+0x54>
     1b4:	48 89 3d 00 00 00 00 	mov    QWORD PTR [rip+0x0],rdi        # 1bb <_ZN3XGK4DATA4QUAT6simd32Ev+0x5b>
     1bb:	4c 8d 1d 00 00 00 00 	lea    r11,[rip+0x0]        # 1c2 <_ZN3XGK4DATA4QUAT6simd32Ev+0x62>
     1c2:	48 8d 05 00 00 00 00 	lea    rax,[rip+0x0]        # 1c9 <_ZN3XGK4DATA4QUAT6simd32Ev+0x69>
     1c9:	48 8d 15 00 00 00 00 	lea    rdx,[rip+0x0]        # 1d0 <_ZN3XGK4DATA4QUAT6simd32Ev+0x70>
     1d0:	48 8d 0d 00 00 00 00 	lea    rcx,[rip+0x0]        # 1d7 <_ZN3XGK4DATA4QUAT6simd32Ev+0x77>
     1d7:	48 8d 35 00 00 00 00 	lea    rsi,[rip+0x0]        # 1de <_ZN3XGK4DATA4QUAT6simd32Ev+0x7e>
     1de:	48 8d 3d 00 00 00 00 	lea    rdi,[rip+0x0]        # 1e5 <_ZN3XGK4DATA4QUAT6simd32Ev+0x85>
     1e5:	4c 89 05 00 00 00 00 	mov    QWORD PTR [rip+0x0],r8        # 1ec <_ZN3XGK4DATA4QUAT6simd32Ev+0x8c>
     1ec:	4c 89 0d 00 00 00 00 	mov    QWORD PTR [rip+0x0],r9        # 1f3 <_ZN3XGK4DATA4QUAT6simd32Ev+0x93>
     1f3:	4c 89 15 00 00 00 00 	mov    QWORD PTR [rip+0x0],r10        # 1fa <_ZN3XGK4DATA4QUAT6simd32Ev+0x9a>
     1fa:	4c 89 1d 00 00 00 00 	mov    QWORD PTR [rip+0x0],r11        # 201 <_ZN3XGK4DATA4QUAT6simd32Ev+0xa1>
     201:	48 89 05 00 00 00 00 	mov    QWORD PTR [rip+0x0],rax        # 208 <_ZN3XGK4DATA4QUAT6simd32Ev+0xa8>
     208:	48 89 15 00 00 00 00 	mov    QWORD PTR [rip+0x0],rdx        # 20f <_ZN3XGK4DATA4QUAT6simd32Ev+0xaf>
     20f:	48 89 0d 00 00 00 00 	mov    QWORD PTR [rip+0x0],rcx        # 216 <_ZN3XGK4DATA4QUAT6simd32Ev+0xb6>
     216:	48 89 35 00 00 00 00 	mov    QWORD PTR [rip+0x0],rsi        # 21d <_ZN3XGK4DATA4QUAT6simd32Ev+0xbd>
     21d:	48 89 3d 00 00 00 00 	mov    QWORD PTR [rip+0x0],rdi        # 224 <_ZN3XGK4DATA4QUAT6simd32Ev+0xc4>
     224:	c3                   	ret    
     225:	90                   	nop
     226:	66 2e 0f 1f 84 00 00 	nop    WORD PTR cs:[rax+rax*1+0x0]
     22d:	00 00 00 

0000000000000230 <_ZN3XGK4DATA4QUAT7simd128Ev>:
     230:	48 8d 05 00 00 00 00 	lea    rax,[rip+0x0]        # 237 <_ZN3XGK4DATA4QUAT7simd128Ev+0x7>
     237:	48 8d 15 00 00 00 00 	lea    rdx,[rip+0x0]        # 23e <_ZN3XGK4DATA4QUAT7simd128Ev+0xe>
     23e:	48 8d 0d 00 00 00 00 	lea    rcx,[rip+0x0]        # 245 <_ZN3XGK4DATA4QUAT7simd128Ev+0x15>
     245:	48 8d 35 00 00 00 00 	lea    rsi,[rip+0x0]        # 24c <_ZN3XGK4DATA4QUAT7simd128Ev+0x1c>
     24c:	48 8d 3d 00 00 00 00 	lea    rdi,[rip+0x0]        # 253 <_ZN3XGK4DATA4QUAT7simd128Ev+0x23>
     253:	4c 8d 05 00 00 00 00 	lea    r8,[rip+0x0]        # 25a <_ZN3XGK4DATA4QUAT7simd128Ev+0x2a>
     25a:	48 89 05 00 00 00 00 	mov    QWORD PTR [rip+0x0],rax        # 261 <_ZN3XGK4DATA4QUAT7simd128Ev+0x31>
     261:	48 89 15 00 00 00 00 	mov    QWORD PTR [rip+0x0],rdx        # 268 <_ZN3XGK4DATA4QUAT7simd128Ev+0x38>
     268:	4c 8d 0d 00 00 00 00 	lea    r9,[rip+0x0]        # 26f <_ZN3XGK4DATA4QUAT7simd128Ev+0x3f>
     26f:	48 89 0d 00 00 00 00 	mov    QWORD PTR [rip+0x0],rcx        # 276 <_ZN3XGK4DATA4QUAT7simd128Ev+0x46>
     276:	48 89 35 00 00 00 00 	mov    QWORD PTR [rip+0x0],rsi        # 27d <_ZN3XGK4DATA4QUAT7simd128Ev+0x4d>
     27d:	4c 8d 15 00 00 00 00 	lea    r10,[rip+0x0]        # 284 <_ZN3XGK4DATA4QUAT7simd128Ev+0x54>
     284:	48 89 3d 00 00 00 00 	mov    QWORD PTR [rip+0x0],rdi        # 28b <_ZN3XGK4DATA4QUAT7simd128Ev+0x5b>
     28b:	4c 8d 1d 00 00 00 00 	lea    r11,[rip+0x0]        # 292 <_ZN3XGK4DATA4QUAT7simd128Ev+0x62>
     292:	48 8d 05 00 00 00 00 	lea    rax,[rip+0x0]        # 299 <_ZN3XGK4DATA4QUAT7simd128Ev+0x69>
     299:	48 8d 15 00 00 00 00 	lea    rdx,[rip+0x0]        # 2a0 <_ZN3XGK4DATA4QUAT7simd128Ev+0x70>
     2a0:	48 8d 0d 00 00 00 00 	lea    rcx,[rip+0x0]        # 2a7 <_ZN3XGK4DATA4QUAT7simd128Ev+0x77>
     2a7:	48 8d 35 00 00 00 00 	lea    rsi,[rip+0x0]        # 2ae <_ZN3XGK4DATA4QUAT7simd128Ev+0x7e>
     2ae:	48 8d 3d 00 00 00 00 	lea    rdi,[rip+0x0]        # 2b5 <_ZN3XGK4DATA4QUAT7simd128Ev+0x85>
     2b5:	4c 89 05 00 00 00 00 	mov    QWORD PTR [rip+0x0],r8        # 2bc <_ZN3XGK4DATA4QUAT7simd128Ev+0x8c>
     2bc:	4c 89 0d 00 00 00 00 	mov    QWORD PTR [rip+0x0],r9        # 2c3 <_ZN3XGK4DATA4QUAT7simd128Ev+0x93>
     2c3:	4c 89 15 00 00 00 00 	mov    QWORD PTR [rip+0x0],r10        # 2ca <_ZN3XGK4DATA4QUAT7simd128Ev+0x9a>
     2ca:	4c 89 1d 00 00 00 00 	mov    QWORD PTR [rip+0x0],r11        # 2d1 <_ZN3XGK4DATA4QUAT7simd128Ev+0xa1>
     2d1:	48 89 05 00 00 00 00 	mov    QWORD PTR [rip+0x0],rax        # 2d8 <_ZN3XGK4DATA4QUAT7simd128Ev+0xa8>
     2d8:	48 89 15 00 00 00 00 	mov    QWORD PTR [rip+0x0],rdx        # 2df <_ZN3XGK4DATA4QUAT7simd128Ev+0xaf>
     2df:	48 89 0d 00 00 00 00 	mov    QWORD PTR [rip+0x0],rcx        # 2e6 <_ZN3XGK4DATA4QUAT7simd128Ev+0xb6>
     2e6:	48 89 35 00 00 00 00 	mov    QWORD PTR [rip+0x0],rsi        # 2ed <_ZN3XGK4DATA4QUAT7simd128Ev+0xbd>
     2ed:	48 89 3d 00 00 00 00 	mov    QWORD PTR [rip+0x0],rdi        # 2f4 <_ZN3XGK4DATA4QUAT7simd128Ev+0xc4>
     2f4:	c3                   	ret    
     2f5:	66 2e 0f 1f 84 00 00 	nop    WORD PTR cs:[rax+rax*1+0x0]
     2fc:	00 00 00 
     2ff:	90                   	nop

0000000000000300 <_ZN3XGK4DATA4MAT46simd32Ev>:
     300:	48 8d 05 00 00 00 00 	lea    rax,[rip+0x0]        # 307 <_ZN3XGK4DATA4MAT46simd32Ev+0x7>
     307:	48 8d 15 00 00 00 00 	lea    rdx,[rip+0x0]        # 30e <_ZN3XGK4DATA4MAT46simd32Ev+0xe>
     30e:	48 8d 0d 00 00 00 00 	lea    rcx,[rip+0x0]        # 315 <_ZN3XGK4DATA4MAT46simd32Ev+0x15>
     315:	48 8d 35 00 00 00 00 	lea    rsi,[rip+0x0]        # 31c <_ZN3XGK4DATA4MAT46simd32Ev+0x1c>
     31c:	48 8d 3d 00 00 00 00 	lea    rdi,[rip+0x0]        # 323 <_ZN3XGK4DATA4MAT46simd32Ev+0x23>
     323:	4c 8d 05 00 00 00 00 	lea    r8,[rip+0x0]        # 32a <_ZN3XGK4DATA4MAT46simd32Ev+0x2a>
     32a:	48 89 05 00 00 00 00 	mov    QWORD PTR [rip+0x0],rax        # 331 <_ZN3XGK4DATA4MAT46simd32Ev+0x31>
     331:	48 89 15 00 00 00 00 	mov    QWORD PTR [rip+0x0],rdx        # 338 <_ZN3XGK4DATA4MAT46simd32Ev+0x38>
     338:	4c 8d 0d 00 00 00 00 	lea    r9,[rip+0x0]        # 33f <_ZN3XGK4DATA4MAT46simd32Ev+0x3f>
     33f:	48 89 0d 00 00 00 00 	mov    QWORD PTR [rip+0x0],rcx        # 346 <_ZN3XGK4DATA4MAT46simd32Ev+0x46>
     346:	48 89 35 00 00 00 00 	mov    QWORD PTR [rip+0x0],rsi        # 34d <_ZN3XGK4DATA4MAT46simd32Ev+0x4d>
     34d:	4c 8d 15 00 00 00 00 	lea    r10,[rip+0x0]        # 354 <_ZN3XGK4DATA4MAT46simd32Ev+0x54>
     354:	48 89 3d 00 00 00 00 	mov    QWORD PTR [rip+0x0],rdi        # 35b <_ZN3XGK4DATA4MAT46simd32Ev+0x5b>
     35b:	4c 89 05 00 00 00 00 	mov    QWORD PTR [rip+0x0],r8        # 362 <_ZN3XGK4DATA4MAT46simd32Ev+0x62>
     362:	4c 8d 1d 00 00 00 00 	lea    r11,[rip+0x0]        # 369 <_ZN3XGK4DATA4MAT46simd32Ev+0x69>
     369:	48 8d 05 00 00 00 00 	lea    rax,[rip+0x0]        # 370 <_ZN3XGK4DATA4MAT46simd32Ev+0x70>
     370:	48 8d 15 00 00 00 00 	lea    rdx,[rip+0x0]        # 377 <_ZN3XGK4DATA4MAT46simd32Ev+0x77>
     377:	48 8d 0d 00 00 00 00 	lea    rcx,[rip+0x0]        # 37e <_ZN3XGK4DATA4MAT46simd32Ev+0x7e>
     37e:	48 8d 35 00 00 00 00 	lea    rsi,[rip+0x0]        # 385 <_ZN3XGK4DATA4MAT46simd32Ev+0x85>
     385:	48 8d 3d 00 00 00 00 	lea    rdi,[rip+0x0]        # 38c <_ZN3XGK4DATA4MAT46simd32Ev+0x8c>
     38c:	4c 8d 05 00 00 00 00 	lea    r8,[rip+0x0]        # 393 <_ZN3XGK4DATA4MAT46simd32Ev+0x93>
     393:	4c 89 0d 00 00 00 00 	mov    QWORD PTR [rip+0x0],r9        # 39a <_ZN3XGK4DATA4MAT46simd32Ev+0x9a>
     39a:	4c 89 15 00 00 00 00 	mov    QWORD PTR [rip+0x0],r10        # 3a1 <_ZN3XGK4DATA4MAT46simd32Ev+0xa1>
     3a1:	4c 89 1d 00 00 00 00 	mov    QWORD PTR [rip+0x0],r11        # 3a8 <_ZN3XGK4DATA4MAT46simd32Ev+0xa8>
     3a8:	48 89 05 00 00 00 00 	mov    QWORD PTR [rip+0x0],rax        # 3af <_ZN3XGK4DATA4MAT46simd32Ev+0xaf>
     3af:	48 89 15 00 00 00 00 	mov    QWORD PTR [rip+0x0],rdx        # 3b6 <_ZN3XGK4DATA4MAT46simd32Ev+0xb6>
     3b6:	48 89 0d 00 00 00 00 	mov    QWORD PTR [rip+0x0],rcx        # 3bd <_ZN3XGK4DATA4MAT46simd32Ev+0xbd>
     3bd:	48 89 35 00 00 00 00 	mov    QWORD PTR [rip+0x0],rsi        # 3c4 <_ZN3XGK4DATA4MAT46simd32Ev+0xc4>
     3c4:	48 89 3d 00 00 00 00 	mov    QWORD PTR [rip+0x0],rdi        # 3cb <_ZN3XGK4DATA4MAT46simd32Ev+0xcb>
     3cb:	4c 89 05 00 00 00 00 	mov    QWORD PTR [rip+0x0],r8        # 3d2 <_ZN3XGK4DATA4MAT46simd32Ev+0xd2>
     3d2:	c3                   	ret    
     3d3:	0f 1f 00             	nop    DWORD PTR [rax]
     3d6:	66 2e 0f 1f 84 00 00 	nop    WORD PTR cs:[rax+rax*1+0x0]
     3dd:	00 00 00 

00000000000003e0 <_ZN3XGK4DATA4MAT47simd128Ev>:
     3e0:	48 8d 05 00 00 00 00 	lea    rax,[rip+0x0]        # 3e7 <_ZN3XGK4DATA4MAT47simd128Ev+0x7>
     3e7:	48 8d 15 00 00 00 00 	lea    rdx,[rip+0x0]        # 3ee <_ZN3XGK4DATA4MAT47simd128Ev+0xe>
     3ee:	48 8d 0d 00 00 00 00 	lea    rcx,[rip+0x0]        # 3f5 <_ZN3XGK4DATA4MAT47simd128Ev+0x15>
     3f5:	48 8d 35 00 00 00 00 	lea    rsi,[rip+0x0]        # 3fc <_ZN3XGK4DATA4MAT47simd128Ev+0x1c>
     3fc:	48 8d 3d 00 00 00 00 	lea    rdi,[rip+0x0]        # 403 <_ZN3XGK4DATA4MAT47simd128Ev+0x23>
     403:	4c 8d 05 00 00 00 00 	lea    r8,[rip+0x0]        # 40a <_ZN3XGK4DATA4MAT47simd128Ev+0x2a>
     40a:	48 89 05 00 00 00 00 	mov    QWORD PTR [rip+0x0],rax        # 411 <_ZN3XGK4DATA4MAT47simd128Ev+0x31>
     411:	48 89 15 00 00 00 00 	mov    QWORD PTR [rip+0x0],rdx        # 418 <_ZN3XGK4DATA4MAT47simd128Ev+0x38>
     418:	4c 8d 0d 00 00 00 00 	lea    r9,[rip+0x0]        # 41f <_ZN3XGK4DATA4MAT47simd128Ev+0x3f>
     41f:	48 89 0d 00 00 00 00 	mov    QWORD PTR [rip+0x0],rcx        # 426 <_ZN3XGK4DATA4MAT47simd128Ev+0x46>
     426:	48 89 35 00 00 00 00 	mov    QWORD PTR [rip+0x0],rsi        # 42d <_ZN3XGK4DATA4MAT47simd128Ev+0x4d>
     42d:	4c 8d 15 00 00 00 00 	lea    r10,[rip+0x0]        # 434 <_ZN3XGK4DATA4MAT47simd128Ev+0x54>
     434:	48 89 3d 00 00 00 00 	mov    QWORD PTR [rip+0x0],rdi        # 43b <_ZN3XGK4DATA4MAT47simd128Ev+0x5b>
     43b:	4c 89 05 00 00 00 00 	mov    QWORD PTR [rip+0x0],r8        # 442 <_ZN3XGK4DATA4MAT47simd128Ev+0x62>
     442:	4c 8d 1d 00 00 00 00 	lea    r11,[rip+0x0]        # 449 <_ZN3XGK4DATA4MAT47simd128Ev+0x69>
     449:	48 8d 05 00 00 00 00 	lea    rax,[rip+0x0]        # 450 <_ZN3XGK4DATA4MAT47simd128Ev+0x70>
     450:	48 8d 15 00 00 00 00 	lea    rdx,[rip+0x0]        # 457 <_ZN3XGK4DATA4MAT47simd128Ev+0x77>
     457:	48 8d 0d 00 00 00 00 	lea    rcx,[rip+0x0]        # 45e <_ZN3XGK4DATA4MAT47simd128Ev+0x7e>
     45e:	48 8d 35 00 00 00 00 	lea    rsi,[rip+0x0]        # 465 <_ZN3XGK4DATA4MAT47simd128Ev+0x85>
     465:	48 8d 3d 00 00 00 00 	lea    rdi,[rip+0x0]        # 46c <_ZN3XGK4DATA4MAT47simd128Ev+0x8c>
     46c:	4c 8d 05 00 00 00 00 	lea    r8,[rip+0x0]        # 473 <_ZN3XGK4DATA4MAT47simd128Ev+0x93>
     473:	4c 89 0d 00 00 00 00 	mov    QWORD PTR [rip+0x0],r9        # 47a <_ZN3XGK4DATA4MAT47simd128Ev+0x9a>
     47a:	4c 89 15 00 00 00 00 	mov    QWORD PTR [rip+0x0],r10        # 481 <_ZN3XGK4DATA4MAT47simd128Ev+0xa1>
     481:	4c 89 1d 00 00 00 00 	mov    QWORD PTR [rip+0x0],r11        # 488 <_ZN3XGK4DATA4MAT47simd128Ev+0xa8>
     488:	48 89 05 00 00 00 00 	mov    QWORD PTR [rip+0x0],rax        # 48f <_ZN3XGK4DATA4MAT47simd128Ev+0xaf>
     48f:	48 89 15 00 00 00 00 	mov    QWORD PTR [rip+0x0],rdx        # 496 <_ZN3XGK4DATA4MAT47simd128Ev+0xb6>
     496:	48 89 0d 00 00 00 00 	mov    QWORD PTR [rip+0x0],rcx        # 49d <_ZN3XGK4DATA4MAT47simd128Ev+0xbd>
     49d:	48 89 35 00 00 00 00 	mov    QWORD PTR [rip+0x0],rsi        # 4a4 <_ZN3XGK4DATA4MAT47simd128Ev+0xc4>
     4a4:	48 89 3d 00 00 00 00 	mov    QWORD PTR [rip+0x0],rdi        # 4ab <_ZN3XGK4DATA4MAT47simd128Ev+0xcb>
     4ab:	4c 89 05 00 00 00 00 	mov    QWORD PTR [rip+0x0],r8        # 4b2 <_ZN3XGK4DATA4MAT47simd128Ev+0xd2>
     4b2:	c3                   	ret    
     4b3:	0f 1f 00             	nop    DWORD PTR [rax]
     4b6:	66 2e 0f 1f 84 00 00 	nop    WORD PTR cs:[rax+rax*1+0x0]
     4bd:	00 00 00 

00000000000004c0 <_ZN3XGK4DATA4MAT45printEPv>:
     4c0:	66 0f ef c0          	pxor   xmm0,xmm0
     4c4:	53                   	push   rbx
     4c5:	66 0f ef db          	pxor   xmm3,xmm3
     4c9:	48 8d 35 00 00 00 00 	lea    rsi,[rip+0x0]        # 4d0 <_ZN3XGK4DATA4MAT45printEPv+0x10>
     4d0:	66 0f ef d2          	pxor   xmm2,xmm2
     4d4:	48 89 fb             	mov    rbx,rdi
     4d7:	66 0f ef c9          	pxor   xmm1,xmm1
     4db:	f3 0f 5a 07          	cvtss2sd xmm0,DWORD PTR [rdi]
     4df:	f3 0f 5a 5f 30       	cvtss2sd xmm3,DWORD PTR [rdi+0x30]
     4e4:	b8 04 00 00 00       	mov    eax,0x4
     4e9:	f3 0f 5a 57 20       	cvtss2sd xmm2,DWORD PTR [rdi+0x20]
     4ee:	f3 0f 5a 4f 10       	cvtss2sd xmm1,DWORD PTR [rdi+0x10]
     4f3:	bf 01 00 00 00       	mov    edi,0x1
     4f8:	e8 00 00 00 00       	call   4fd <_ZN3XGK4DATA4MAT45printEPv+0x3d>
     4fd:	66 0f ef c0          	pxor   xmm0,xmm0
     501:	48 8d 35 00 00 00 00 	lea    rsi,[rip+0x0]        # 508 <_ZN3XGK4DATA4MAT45printEPv+0x48>
     508:	66 0f ef db          	pxor   xmm3,xmm3
     50c:	bf 01 00 00 00       	mov    edi,0x1
     511:	66 0f ef d2          	pxor   xmm2,xmm2
     515:	b8 04 00 00 00       	mov    eax,0x4
     51a:	66 0f ef c9          	pxor   xmm1,xmm1
     51e:	f3 0f 5a 43 04       	cvtss2sd xmm0,DWORD PTR [rbx+0x4]
     523:	f3 0f 5a 5b 34       	cvtss2sd xmm3,DWORD PTR [rbx+0x34]
     528:	f3 0f 5a 53 24       	cvtss2sd xmm2,DWORD PTR [rbx+0x24]
     52d:	f3 0f 5a 4b 14       	cvtss2sd xmm1,DWORD PTR [rbx+0x14]
     532:	e8 00 00 00 00       	call   537 <_ZN3XGK4DATA4MAT45printEPv+0x77>
     537:	66 0f ef c0          	pxor   xmm0,xmm0
     53b:	48 8d 35 00 00 00 00 	lea    rsi,[rip+0x0]        # 542 <_ZN3XGK4DATA4MAT45printEPv+0x82>
     542:	66 0f ef db          	pxor   xmm3,xmm3
     546:	bf 01 00 00 00       	mov    edi,0x1
     54b:	66 0f ef d2          	pxor   xmm2,xmm2
     54f:	b8 04 00 00 00       	mov    eax,0x4
     554:	66 0f ef c9          	pxor   xmm1,xmm1
     558:	f3 0f 5a 43 08       	cvtss2sd xmm0,DWORD PTR [rbx+0x8]
     55d:	f3 0f 5a 5b 38       	cvtss2sd xmm3,DWORD PTR [rbx+0x38]
     562:	f3 0f 5a 53 28       	cvtss2sd xmm2,DWORD PTR [rbx+0x28]
     567:	f3 0f 5a 4b 18       	cvtss2sd xmm1,DWORD PTR [rbx+0x18]
     56c:	e8 00 00 00 00       	call   571 <_ZN3XGK4DATA4MAT45printEPv+0xb1>
     571:	66 0f ef c0          	pxor   xmm0,xmm0
     575:	48 8d 35 00 00 00 00 	lea    rsi,[rip+0x0]        # 57c <_ZN3XGK4DATA4MAT45printEPv+0xbc>
     57c:	66 0f ef db          	pxor   xmm3,xmm3
     580:	bf 01 00 00 00       	mov    edi,0x1
     585:	66 0f ef d2          	pxor   xmm2,xmm2
     589:	b8 04 00 00 00       	mov    eax,0x4
     58e:	66 0f ef c9          	pxor   xmm1,xmm1
     592:	f3 0f 5a 43 0c       	cvtss2sd xmm0,DWORD PTR [rbx+0xc]
     597:	f3 0f 5a 5b 3c       	cvtss2sd xmm3,DWORD PTR [rbx+0x3c]
     59c:	f3 0f 5a 53 2c       	cvtss2sd xmm2,DWORD PTR [rbx+0x2c]
     5a1:	f3 0f 5a 4b 1c       	cvtss2sd xmm1,DWORD PTR [rbx+0x1c]
     5a6:	5b                   	pop    rbx
     5a7:	e9 00 00 00 00       	jmp    5ac <_ZN3XGK4DATA4MAT45printEPv+0xec>
     5ac:	0f 1f 40 00          	nop    DWORD PTR [rax+0x0]

00000000000005b0 <_ZN3XGK6OBJECT4initEPNS_6ObjectE>:
     5b0:	66 0f ef ed          	pxor   xmm5,xmm5
     5b4:	66 0f 6f 05 00 00 00 	movdqa xmm0,XMMWORD PTR [rip+0x0]        # 5bc <_ZN3XGK6OBJECT4initEPNS_6ObjectE+0xc>
     5bb:	00 
     5bc:	66 0f 6f 0d 00 00 00 	movdqa xmm1,XMMWORD PTR [rip+0x0]        # 5c4 <_ZN3XGK6OBJECT4initEPNS_6ObjectE+0x14>
     5c3:	00 
     5c4:	66 0f 6f 15 00 00 00 	movdqa xmm2,XMMWORD PTR [rip+0x0]        # 5cc <_ZN3XGK6OBJECT4initEPNS_6ObjectE+0x1c>
     5cb:	00 
     5cc:	66 0f 6f 1d 00 00 00 	movdqa xmm3,XMMWORD PTR [rip+0x0]        # 5d4 <_ZN3XGK6OBJECT4initEPNS_6ObjectE+0x24>
     5d3:	00 
     5d4:	66 0f 6f 25 00 00 00 	movdqa xmm4,XMMWORD PTR [rip+0x0]        # 5dc <_ZN3XGK6OBJECT4initEPNS_6ObjectE+0x2c>
     5db:	00 
     5dc:	0f 11 07             	movups XMMWORD PTR [rdi],xmm0
     5df:	0f 11 4f 10          	movups XMMWORD PTR [rdi+0x10],xmm1
     5e3:	0f 11 57 20          	movups XMMWORD PTR [rdi+0x20],xmm2
     5e7:	0f 11 5f 30          	movups XMMWORD PTR [rdi+0x30],xmm3
     5eb:	0f 11 67 40          	movups XMMWORD PTR [rdi+0x40],xmm4
     5ef:	0f 11 6f 50          	movups XMMWORD PTR [rdi+0x50],xmm5
     5f3:	c3                   	ret    
     5f4:	66 90                	xchg   ax,ax
     5f6:	66 2e 0f 1f 84 00 00 	nop    WORD PTR cs:[rax+rax*1+0x0]
     5fd:	00 00 00 

0000000000000600 <_ZN3XGK6OBJECT6setRotEPNS_6ObjectEPvf>:
     600:	48 83 c7 40          	add    rdi,0x40
     604:	ff 25 00 00 00 00    	jmp    QWORD PTR [rip+0x0]        # 60a <_ZN3XGK6OBJECT6setRotEPNS_6ObjectEPvf+0xa>
     60a:	66 0f 1f 44 00 00    	nop    WORD PTR [rax+rax*1+0x0]

0000000000000610 <_ZN3XGK6OBJECT6preRotEPNS_6ObjectEPvf>:
     610:	48 83 c7 40          	add    rdi,0x40
     614:	ff 25 00 00 00 00    	jmp    QWORD PTR [rip+0x0]        # 61a <_ZN3XGK6OBJECT6preRotEPNS_6ObjectEPvf+0xa>
     61a:	66 0f 1f 44 00 00    	nop    WORD PTR [rax+rax*1+0x0]

0000000000000620 <_ZN3XGK6OBJECT7postRotEPNS_6ObjectEPvf>:
     620:	48 83 c7 40          	add    rdi,0x40
     624:	ff 25 00 00 00 00    	jmp    QWORD PTR [rip+0x0]        # 62a <_ZN3XGK6OBJECT7postRotEPNS_6ObjectEPvf+0xa>
     62a:	66 0f 1f 44 00 00    	nop    WORD PTR [rax+rax*1+0x0]

0000000000000630 <_ZN3XGK6OBJECT7setRotXEPNS_6ObjectEf>:
     630:	48 83 c7 40          	add    rdi,0x40
     634:	ff 25 00 00 00 00    	jmp    QWORD PTR [rip+0x0]        # 63a <_ZN3XGK6OBJECT7setRotXEPNS_6ObjectEf+0xa>
     63a:	66 0f 1f 44 00 00    	nop    WORD PTR [rax+rax*1+0x0]

0000000000000640 <_ZN3XGK6OBJECT7preRotXEPNS_6ObjectEf>:
     640:	48 83 c7 40          	add    rdi,0x40
     644:	ff 25 00 00 00 00    	jmp    QWORD PTR [rip+0x0]        # 64a <_ZN3XGK6OBJECT7preRotXEPNS_6ObjectEf+0xa>
     64a:	66 0f 1f 44 00 00    	nop    WORD PTR [rax+rax*1+0x0]

0000000000000650 <_ZN3XGK6OBJECT8postRotXEPNS_6ObjectEf>:
     650:	48 83 c7 40          	add    rdi,0x40
     654:	ff 25 00 00 00 00    	jmp    QWORD PTR [rip+0x0]        # 65a <_ZN3XGK6OBJECT8postRotXEPNS_6ObjectEf+0xa>
     65a:	66 0f 1f 44 00 00    	nop    WORD PTR [rax+rax*1+0x0]

0000000000000660 <_ZN3XGK6OBJECT7setRotYEPNS_6ObjectEf>:
     660:	48 83 c7 40          	add    rdi,0x40
     664:	ff 25 00 00 00 00    	jmp    QWORD PTR [rip+0x0]        # 66a <_ZN3XGK6OBJECT7setRotYEPNS_6ObjectEf+0xa>
     66a:	66 0f 1f 44 00 00    	nop    WORD PTR [rax+rax*1+0x0]

0000000000000670 <_ZN3XGK6OBJECT7preRotYEPNS_6ObjectEf>:
     670:	48 83 c7 40          	add    rdi,0x40
     674:	ff 25 00 00 00 00    	jmp    QWORD PTR [rip+0x0]        # 67a <_ZN3XGK6OBJECT7preRotYEPNS_6ObjectEf+0xa>
     67a:	66 0f 1f 44 00 00    	nop    WORD PTR [rax+rax*1+0x0]

0000000000000680 <_ZN3XGK6OBJECT8postRotYEPNS_6ObjectEf>:
     680:	48 83 c7 40          	add    rdi,0x40
     684:	ff 25 00 00 00 00    	jmp    QWORD PTR [rip+0x0]        # 68a <_ZN3XGK6OBJECT8postRotYEPNS_6ObjectEf+0xa>
     68a:	66 0f 1f 44 00 00    	nop    WORD PTR [rax+rax*1+0x0]

0000000000000690 <_ZN3XGK6OBJECT7setRotZEPNS_6ObjectEf>:
     690:	48 83 c7 40          	add    rdi,0x40
     694:	ff 25 00 00 00 00    	jmp    QWORD PTR [rip+0x0]        # 69a <_ZN3XGK6OBJECT7setRotZEPNS_6ObjectEf+0xa>
     69a:	66 0f 1f 44 00 00    	nop    WORD PTR [rax+rax*1+0x0]

00000000000006a0 <_ZN3XGK6OBJECT7preRotZEPNS_6ObjectEf>:
     6a0:	48 83 c7 40          	add    rdi,0x40
     6a4:	ff 25 00 00 00 00    	jmp    QWORD PTR [rip+0x0]        # 6aa <_ZN3XGK6OBJECT7preRotZEPNS_6ObjectEf+0xa>
     6aa:	66 0f 1f 44 00 00    	nop    WORD PTR [rax+rax*1+0x0]

00000000000006b0 <_ZN3XGK6OBJECT8postRotZEPNS_6ObjectEf>:
     6b0:	48 83 c7 40          	add    rdi,0x40
     6b4:	ff 25 00 00 00 00    	jmp    QWORD PTR [rip+0x0]        # 6ba <_ZN3XGK6OBJECT8postRotZEPNS_6ObjectEf+0xa>
     6ba:	66 0f 1f 44 00 00    	nop    WORD PTR [rax+rax*1+0x0]

00000000000006c0 <_ZN3XGK6OBJECT8setTransEPNS_6ObjectEPv>:
     6c0:	f3 0f 6f 06          	movdqu xmm0,XMMWORD PTR [rsi]
     6c4:	0f 11 47 50          	movups XMMWORD PTR [rdi+0x50],xmm0
     6c8:	c3                   	ret    
     6c9:	0f 1f 80 00 00 00 00 	nop    DWORD PTR [rax+0x0]

00000000000006d0 <_ZN3XGK6OBJECT5transEPNS_6ObjectEPvf>:
     6d0:	55                   	push   rbp
     6d1:	53                   	push   rbx
     6d2:	48 8d 6f 70          	lea    rbp,[rdi+0x70]
     6d6:	48 89 fb             	mov    rbx,rdi
     6d9:	48 83 ec 08          	sub    rsp,0x8
     6dd:	f3 0f 6f 0e          	movdqu xmm1,XMMWORD PTR [rsi]
     6e1:	0f 11 4f 70          	movups XMMWORD PTR [rdi+0x70],xmm1
     6e5:	48 89 ef             	mov    rdi,rbp
     6e8:	ff 15 00 00 00 00    	call   QWORD PTR [rip+0x0]        # 6ee <_ZN3XGK6OBJECT5transEPNS_6ObjectEPvf+0x1e>
     6ee:	48 83 c4 08          	add    rsp,0x8
     6f2:	48 8d 7b 50          	lea    rdi,[rbx+0x50]
     6f6:	48 89 ee             	mov    rsi,rbp
     6f9:	5b                   	pop    rbx
     6fa:	5d                   	pop    rbp
     6fb:	ff 25 00 00 00 00    	jmp    QWORD PTR [rip+0x0]        # 701 <_ZN3XGK6OBJECT5transEPNS_6ObjectEPvf+0x31>
     701:	0f 1f 44 00 00       	nop    DWORD PTR [rax+rax*1+0x0]
     706:	66 2e 0f 1f 84 00 00 	nop    WORD PTR cs:[rax+rax*1+0x0]
     70d:	00 00 00 

0000000000000710 <_ZN3XGK6OBJECT9setTransXEPNS_6ObjectEf>:
     710:	f3 0f 11 47 50       	movss  DWORD PTR [rdi+0x50],xmm0
     715:	c3                   	ret    
     716:	66 2e 0f 1f 84 00 00 	nop    WORD PTR cs:[rax+rax*1+0x0]
     71d:	00 00 00 

0000000000000720 <_ZN3XGK6OBJECT6transXEPNS_6ObjectEf>:
     720:	f3 0f 58 47 50       	addss  xmm0,DWORD PTR [rdi+0x50]
     725:	f3 0f 11 47 50       	movss  DWORD PTR [rdi+0x50],xmm0
     72a:	c3                   	ret    
     72b:	0f 1f 44 00 00       	nop    DWORD PTR [rax+rax*1+0x0]

0000000000000730 <_ZN3XGK6OBJECT9setTransYEPNS_6ObjectEf>:
     730:	f3 0f 11 47 54       	movss  DWORD PTR [rdi+0x54],xmm0
     735:	c3                   	ret    
     736:	66 2e 0f 1f 84 00 00 	nop    WORD PTR cs:[rax+rax*1+0x0]
     73d:	00 00 00 

0000000000000740 <_ZN3XGK6OBJECT6transYEPNS_6ObjectEf>:
     740:	f3 0f 58 47 54       	addss  xmm0,DWORD PTR [rdi+0x54]
     745:	f3 0f 11 47 54       	movss  DWORD PTR [rdi+0x54],xmm0
     74a:	c3                   	ret    
     74b:	0f 1f 44 00 00       	nop    DWORD PTR [rax+rax*1+0x0]

0000000000000750 <_ZN3XGK6OBJECT9setTransZEPNS_6ObjectEf>:
     750:	f3 0f 11 47 58       	movss  DWORD PTR [rdi+0x58],xmm0
     755:	c3                   	ret    
     756:	66 2e 0f 1f 84 00 00 	nop    WORD PTR cs:[rax+rax*1+0x0]
     75d:	00 00 00 

0000000000000760 <_ZN3XGK6OBJECT6transZEPNS_6ObjectEf>:
     760:	f3 0f 58 47 58       	addss  xmm0,DWORD PTR [rdi+0x58]
     765:	f3 0f 11 47 58       	movss  DWORD PTR [rdi+0x58],xmm0
     76a:	c3                   	ret    
     76b:	0f 1f 44 00 00       	nop    DWORD PTR [rax+rax*1+0x0]

0000000000000770 <_ZN3XGK6OBJECT6updateEPNS_6ObjectE>:
     770:	55                   	push   rbp
     771:	53                   	push   rbx
     772:	48 8d 6f 40          	lea    rbp,[rdi+0x40]
     776:	48 89 fb             	mov    rbx,rdi
     779:	48 83 ec 08          	sub    rsp,0x8
     77d:	48 89 ef             	mov    rdi,rbp
     780:	ff 15 00 00 00 00    	call   QWORD PTR [rip+0x0]        # 786 <_ZN3XGK6OBJECT6updateEPNS_6ObjectE+0x16>
     786:	48 89 ee             	mov    rsi,rbp
     789:	48 89 df             	mov    rdi,rbx
     78c:	ff 15 00 00 00 00    	call   QWORD PTR [rip+0x0]        # 792 <_ZN3XGK6OBJECT6updateEPNS_6ObjectE+0x22>
     792:	48 83 c4 08          	add    rsp,0x8
     796:	48 8d 73 50          	lea    rsi,[rbx+0x50]
     79a:	48 89 df             	mov    rdi,rbx
     79d:	5b                   	pop    rbx
     79e:	5d                   	pop    rbp
     79f:	ff 25 00 00 00 00    	jmp    QWORD PTR [rip+0x0]        # 7a5 <_ZN3XGK6OBJECT6updateEPNS_6ObjectE+0x35>
     7a5:	90                   	nop
     7a6:	66 2e 0f 1f 84 00 00 	nop    WORD PTR cs:[rax+rax*1+0x0]
     7ad:	00 00 00 

00000000000007b0 <_ZN3XGK6OBJECT7update2EPNS_6ObjectE>:
     7b0:	55                   	push   rbp
     7b1:	53                   	push   rbx
     7b2:	48 8d 6f 40          	lea    rbp,[rdi+0x40]
     7b6:	48 89 fb             	mov    rbx,rdi
     7b9:	48 83 ec 08          	sub    rsp,0x8
     7bd:	48 89 ef             	mov    rdi,rbp
     7c0:	ff 15 00 00 00 00    	call   QWORD PTR [rip+0x0]        # 7c6 <_ZN3XGK6OBJECT7update2EPNS_6ObjectE+0x16>
     7c6:	48 8d 73 50          	lea    rsi,[rbx+0x50]
     7ca:	48 89 df             	mov    rdi,rbx
     7cd:	ff 15 00 00 00 00    	call   QWORD PTR [rip+0x0]        # 7d3 <_ZN3XGK6OBJECT7update2EPNS_6ObjectE+0x23>
     7d3:	48 83 c4 08          	add    rsp,0x8
     7d7:	48 89 ee             	mov    rsi,rbp
     7da:	48 89 df             	mov    rdi,rbx
     7dd:	5b                   	pop    rbx
     7de:	5d                   	pop    rbp
     7df:	ff 25 00 00 00 00    	jmp    QWORD PTR [rip+0x0]        # 7e5 <_ZN3XGK6OBJECT7update2EPNS_6ObjectE+0x35>
     7e5:	90                   	nop
     7e6:	66 2e 0f 1f 84 00 00 	nop    WORD PTR cs:[rax+rax*1+0x0]
     7ed:	00 00 00 

00000000000007f0 <_ZN3XGK6OBJECT7update3EPNS_6ObjectE>:
     7f0:	55                   	push   rbp
     7f1:	53                   	push   rbx
     7f2:	48 8d 6f 60          	lea    rbp,[rdi+0x60]
     7f6:	48 89 fb             	mov    rbx,rdi
     7f9:	48 83 ec 08          	sub    rsp,0x8
     7fd:	48 89 ee             	mov    rsi,rbp
     800:	f3 0f 10 05 00 00 00 	movss  xmm0,DWORD PTR [rip+0x0]        # 808 <_ZN3XGK6OBJECT7update3EPNS_6ObjectE+0x18>
     807:	00 
     808:	ff 15 00 00 00 00    	call   QWORD PTR [rip+0x0]        # 80e <_ZN3XGK6OBJECT7update3EPNS_6ObjectE+0x1e>
     80e:	48 8d 73 40          	lea    rsi,[rbx+0x40]
     812:	48 89 df             	mov    rdi,rbx
     815:	ff 15 00 00 00 00    	call   QWORD PTR [rip+0x0]        # 81b <_ZN3XGK6OBJECT7update3EPNS_6ObjectE+0x2b>
     81b:	48 89 ee             	mov    rsi,rbp
     81e:	48 89 df             	mov    rdi,rbx
     821:	f3 0f 10 05 00 00 00 	movss  xmm0,DWORD PTR [rip+0x0]        # 829 <_ZN3XGK6OBJECT7update3EPNS_6ObjectE+0x39>
     828:	00 
     829:	ff 15 00 00 00 00    	call   QWORD PTR [rip+0x0]        # 82f <_ZN3XGK6OBJECT7update3EPNS_6ObjectE+0x3f>
     82f:	48 83 c4 08          	add    rsp,0x8
     833:	48 8d 73 50          	lea    rsi,[rbx+0x50]
     837:	48 89 df             	mov    rdi,rbx
     83a:	5b                   	pop    rbx
     83b:	5d                   	pop    rbp
     83c:	ff 25 00 00 00 00    	jmp    QWORD PTR [rip+0x0]        # 842 <clock64>

0000000000000842 <clock64>:
     842:	52                   	push   rdx
     843:	0f 31                	rdtsc  
     845:	89 54 24 04          	mov    DWORD PTR [rsp+0x4],edx
     849:	89 04 24             	mov    DWORD PTR [rsp],eax
     84c:	48 8b 04 24          	mov    rax,QWORD PTR [rsp]
     850:	5a                   	pop    rdx
     851:	c3                   	ret    
     852:	66 2e 0f 1f 84 00 00 	nop    WORD PTR cs:[rax+rax*1+0x0]
     859:	00 00 00 
     85c:	0f 1f 40 00          	nop    DWORD PTR [rax+0x0]

0000000000000860 <_ZN3XGK4MATH4UTIL21makeBezierCurve3PointEPffffffffff>:
     860:	f3 44 0f 10 5c 24 08 	movss  xmm11,DWORD PTR [rsp+0x8]
     867:	f3 44 0f 10 05 00 00 	movss  xmm8,DWORD PTR [rip+0x0]        # 870 <_ZN3XGK4MATH4UTIL21makeBezierCurve3PointEPffffffffff+0x10>
     86e:	00 00 
     870:	45 0f 28 e3          	movaps xmm12,xmm11
     874:	f3 45 0f 5c c3       	subss  xmm8,xmm11
     879:	45 0f 28 f3          	movaps xmm14,xmm11
     87d:	f3 45 0f 59 e3       	mulss  xmm12,xmm11
     882:	f3 44 0f 10 2d 00 00 	movss  xmm13,DWORD PTR [rip+0x0]        # 88b <_ZN3XGK4MATH4UTIL21makeBezierCurve3PointEPffffffffff+0x2b>
     889:	00 00 
     88b:	f3 45 0f 59 f5       	mulss  xmm14,xmm13
     890:	45 0f 28 d0          	movaps xmm10,xmm8
     894:	45 0f 28 c8          	movaps xmm9,xmm8
     898:	f3 45 0f 59 dc       	mulss  xmm11,xmm12
     89d:	f3 45 0f 59 d0       	mulss  xmm10,xmm8
     8a2:	f3 45 0f 59 c4       	mulss  xmm8,xmm12
     8a7:	f3 41 0f 59 f3       	mulss  xmm6,xmm11
     8ac:	f3 45 0f 59 ca       	mulss  xmm9,xmm10
     8b1:	f3 45 0f 59 c5       	mulss  xmm8,xmm13
     8b6:	f3 45 0f 59 d6       	mulss  xmm10,xmm14
     8bb:	f3 44 0f 59 df       	mulss  xmm11,xmm7
     8c0:	f3 41 0f 59 c1       	mulss  xmm0,xmm9
     8c5:	f3 41 0f 59 e0       	mulss  xmm4,xmm8
     8ca:	f3 41 0f 59 d2       	mulss  xmm2,xmm10
     8cf:	f3 41 0f 59 e8       	mulss  xmm5,xmm8
     8d4:	f3 41 0f 59 c9       	mulss  xmm1,xmm9
     8d9:	f3 41 0f 59 da       	mulss  xmm3,xmm10
     8de:	f3 0f 58 e6          	addss  xmm4,xmm6
     8e2:	f3 0f 58 c2          	addss  xmm0,xmm2
     8e6:	f3 41 0f 58 eb       	addss  xmm5,xmm11
     8eb:	f3 0f 58 cb          	addss  xmm1,xmm3
     8ef:	f3 0f 58 c4          	addss  xmm0,xmm4
     8f3:	f3 0f 58 e9          	addss  xmm5,xmm1
     8f7:	f3 0f 11 07          	movss  DWORD PTR [rdi],xmm0
     8fb:	f3 0f 11 6f 04       	movss  DWORD PTR [rdi+0x4],xmm5
     900:	c3                   	ret    
     901:	0f 1f 44 00 00       	nop    DWORD PTR [rax+rax*1+0x0]
     906:	66 2e 0f 1f 84 00 00 	nop    WORD PTR cs:[rax+rax*1+0x0]
     90d:	00 00 00 

0000000000000910 <_ZN3XGK4MATH4UTIL24makeBezierCurve3SequenceEPfffffffffm>:
     910:	48 85 f6             	test   rsi,rsi
     913:	f3 0f 10 15 00 00 00 	movss  xmm2,DWORD PTR [rip+0x0]        # 91b <_ZN3XGK4MATH4UTIL24makeBezierCurve3SequenceEPfffffffffm+0xb>
     91a:	00 
     91b:	0f 84 ea 02 00 00    	je     c0b <_ZN3XGK4MATH4UTIL24makeBezierCurve3SequenceEPfffffffffm+0x2fb>
     921:	66 0f ef c0          	pxor   xmm0,xmm0
     925:	f3 48 0f 2a c6       	cvtsi2ss xmm0,rsi
     92a:	79 1c                	jns    948 <_ZN3XGK4MATH4UTIL24makeBezierCurve3SequenceEPfffffffffm+0x38>
     92c:	48 89 f0             	mov    rax,rsi
     92f:	48 89 f2             	mov    rdx,rsi
     932:	66 0f ef c0          	pxor   xmm0,xmm0
     936:	48 d1 e8             	shr    rax,1
     939:	83 e2 01             	and    edx,0x1
     93c:	48 09 d0             	or     rax,rdx
     93f:	f3 48 0f 2a c0       	cvtsi2ss xmm0,rax
     944:	f3 0f 58 c0          	addss  xmm0,xmm0
     948:	f3 0f 10 15 00 00 00 	movss  xmm2,DWORD PTR [rip+0x0]        # 950 <_ZN3XGK4MATH4UTIL24makeBezierCurve3SequenceEPfffffffffm+0x40>
     94f:	00 
     950:	48 89 f1             	mov    rcx,rsi
     953:	45 31 c0             	xor    r8d,r8d
     956:	0f 28 e2             	movaps xmm4,xmm2
     959:	83 e1 03             	and    ecx,0x3
     95c:	f3 0f 10 35 00 00 00 	movss  xmm6,DWORD PTR [rip+0x0]        # 964 <_ZN3XGK4MATH4UTIL24makeBezierCurve3SequenceEPfffffffffm+0x54>
     963:	00 
     964:	f3 0f 5e e0          	divss  xmm4,xmm0
     968:	f3 0f 59 de          	mulss  xmm3,xmm6
     96c:	f3 0f 59 ee          	mulss  xmm5,xmm6
     970:	0f 84 ee 00 00 00    	je     a64 <_ZN3XGK4MATH4UTIL24makeBezierCurve3SequenceEPfffffffffm+0x154>
     976:	48 83 f9 01          	cmp    rcx,0x1
     97a:	74 79                	je     9f5 <_ZN3XGK4MATH4UTIL24makeBezierCurve3SequenceEPfffffffffm+0xe5>
     97c:	48 83 f9 02          	cmp    rcx,0x2
     980:	74 0a                	je     98c <_ZN3XGK4MATH4UTIL24makeBezierCurve3SequenceEPfffffffffm+0x7c>
     982:	f3 0f 11 0f          	movss  DWORD PTR [rdi],xmm1
     986:	41 b8 01 00 00 00    	mov    r8d,0x1
     98c:	66 45 0f ef c0       	pxor   xmm8,xmm8
     991:	44 0f 28 d2          	movaps xmm10,xmm2
     995:	44 0f 28 d9          	movaps xmm11,xmm1
     999:	f3 4d 0f 2a c0       	cvtsi2ss xmm8,r8
     99e:	f3 44 0f 59 c4       	mulss  xmm8,xmm4
     9a3:	f3 45 0f 5c d0       	subss  xmm10,xmm8
     9a8:	45 0f 28 c8          	movaps xmm9,xmm8
     9ac:	f3 45 0f 59 c8       	mulss  xmm9,xmm8
     9b1:	45 0f 28 ea          	movaps xmm13,xmm10
     9b5:	f3 45 0f 59 ea       	mulss  xmm13,xmm10
     9ba:	45 0f 28 f1          	movaps xmm14,xmm9
     9be:	f3 44 0f 59 cf       	mulss  xmm9,xmm7
     9c3:	f3 44 0f 59 f5       	mulss  xmm14,xmm5
     9c8:	f3 45 0f 59 dd       	mulss  xmm11,xmm13
     9cd:	f3 44 0f 59 eb       	mulss  xmm13,xmm3
     9d2:	f3 45 0f 58 f3       	addss  xmm14,xmm11
     9d7:	f3 45 0f 58 e9       	addss  xmm13,xmm9
     9dc:	f3 45 0f 59 f2       	mulss  xmm14,xmm10
     9e1:	f3 45 0f 59 e8       	mulss  xmm13,xmm8
     9e6:	f3 45 0f 58 ee       	addss  xmm13,xmm14
     9eb:	f3 46 0f 11 2c 87    	movss  DWORD PTR [rdi+r8*4],xmm13
     9f1:	49 83 c0 01          	add    r8,0x1
     9f5:	66 45 0f ef c0       	pxor   xmm8,xmm8
     9fa:	44 0f 28 e2          	movaps xmm12,xmm2
     9fe:	44 0f 28 e9          	movaps xmm13,xmm1
     a02:	f3 4d 0f 2a c0       	cvtsi2ss xmm8,r8
     a07:	f3 44 0f 59 c4       	mulss  xmm8,xmm4
     a0c:	f3 45 0f 5c e0       	subss  xmm12,xmm8
     a11:	45 0f 28 d0          	movaps xmm10,xmm8
     a15:	f3 45 0f 59 d0       	mulss  xmm10,xmm8
     a1a:	41 0f 28 c4          	movaps xmm0,xmm12
     a1e:	f3 41 0f 59 c4       	mulss  xmm0,xmm12
     a23:	41 0f 28 f2          	movaps xmm6,xmm10
     a27:	f3 44 0f 59 d7       	mulss  xmm10,xmm7
     a2c:	f3 0f 59 f5          	mulss  xmm6,xmm5
     a30:	f3 44 0f 59 e8       	mulss  xmm13,xmm0
     a35:	f3 0f 59 c3          	mulss  xmm0,xmm3
     a39:	f3 41 0f 58 f5       	addss  xmm6,xmm13
     a3e:	f3 41 0f 58 c2       	addss  xmm0,xmm10
     a43:	f3 41 0f 59 f4       	mulss  xmm6,xmm12
     a48:	f3 41 0f 59 c0       	mulss  xmm0,xmm8
     a4d:	f3 0f 58 c6          	addss  xmm0,xmm6
     a51:	f3 42 0f 11 04 87    	movss  DWORD PTR [rdi+r8*4],xmm0
     a57:	49 83 c0 01          	add    r8,0x1
     a5b:	4c 39 c6             	cmp    rsi,r8
     a5e:	0f 84 a7 01 00 00    	je     c0b <_ZN3XGK4MATH4UTIL24makeBezierCurve3SequenceEPfffffffffm+0x2fb>
     a64:	66 45 0f ef c0       	pxor   xmm8,xmm8
     a69:	44 0f 28 fa          	movaps xmm15,xmm2
     a6d:	44 0f 28 d9          	movaps xmm11,xmm1
     a71:	4d 8d 48 01          	lea    r9,[r8+0x1]
     a75:	44 0f 28 d2          	movaps xmm10,xmm2
     a79:	4d 8d 50 02          	lea    r10,[r8+0x2]
     a7d:	f3 4d 0f 2a c0       	cvtsi2ss xmm8,r8
     a82:	4d 8d 58 03          	lea    r11,[r8+0x3]
     a86:	f3 44 0f 59 c4       	mulss  xmm8,xmm4
     a8b:	f3 45 0f 5c f8       	subss  xmm15,xmm8
     a90:	45 0f 28 c8          	movaps xmm9,xmm8
     a94:	f3 45 0f 59 c8       	mulss  xmm9,xmm8
     a99:	45 0f 28 e7          	movaps xmm12,xmm15
     a9d:	f3 45 0f 59 e7       	mulss  xmm12,xmm15
     aa2:	41 0f 28 c1          	movaps xmm0,xmm9
     aa6:	f3 44 0f 59 cf       	mulss  xmm9,xmm7
     aab:	f3 0f 59 c5          	mulss  xmm0,xmm5
     aaf:	f3 45 0f 59 dc       	mulss  xmm11,xmm12
     ab4:	f3 44 0f 59 e3       	mulss  xmm12,xmm3
     ab9:	f3 41 0f 58 c3       	addss  xmm0,xmm11
     abe:	44 0f 28 d9          	movaps xmm11,xmm1
     ac2:	f3 45 0f 58 e1       	addss  xmm12,xmm9
     ac7:	f3 41 0f 59 c7       	mulss  xmm0,xmm15
     acc:	f3 45 0f 59 e0       	mulss  xmm12,xmm8
     ad1:	66 45 0f ef c0       	pxor   xmm8,xmm8
     ad6:	f3 4d 0f 2a c1       	cvtsi2ss xmm8,r9
     adb:	f3 44 0f 58 e0       	addss  xmm12,xmm0
     ae0:	f3 46 0f 11 24 87    	movss  DWORD PTR [rdi+r8*4],xmm12
     ae6:	44 0f 28 e1          	movaps xmm12,xmm1
     aea:	49 83 c0 04          	add    r8,0x4
     aee:	4c 39 c6             	cmp    rsi,r8
     af1:	f3 44 0f 59 c4       	mulss  xmm8,xmm4
     af6:	f3 45 0f 5c d0       	subss  xmm10,xmm8
     afb:	45 0f 28 f8          	movaps xmm15,xmm8
     aff:	f3 45 0f 59 f8       	mulss  xmm15,xmm8
     b04:	45 0f 28 f2          	movaps xmm14,xmm10
     b08:	f3 45 0f 59 f2       	mulss  xmm14,xmm10
     b0d:	41 0f 28 f7          	movaps xmm6,xmm15
     b11:	f3 44 0f 59 ff       	mulss  xmm15,xmm7
     b16:	f3 0f 59 f5          	mulss  xmm6,xmm5
     b1a:	f3 45 0f 59 e6       	mulss  xmm12,xmm14
     b1f:	f3 44 0f 59 f3       	mulss  xmm14,xmm3
     b24:	f3 41 0f 58 f4       	addss  xmm6,xmm12
     b29:	44 0f 28 e2          	movaps xmm12,xmm2
     b2d:	f3 45 0f 58 f7       	addss  xmm14,xmm15
     b32:	f3 41 0f 59 f2       	mulss  xmm6,xmm10
     b37:	44 0f 28 d2          	movaps xmm10,xmm2
     b3b:	f3 45 0f 59 f0       	mulss  xmm14,xmm8
     b40:	66 45 0f ef c0       	pxor   xmm8,xmm8
     b45:	f3 4d 0f 2a c2       	cvtsi2ss xmm8,r10
     b4a:	f3 44 0f 58 f6       	addss  xmm14,xmm6
     b4f:	f3 46 0f 11 34 8f    	movss  DWORD PTR [rdi+r9*4],xmm14
     b55:	f3 44 0f 59 c4       	mulss  xmm8,xmm4
     b5a:	f3 45 0f 5c d0       	subss  xmm10,xmm8
     b5f:	45 0f 28 c8          	movaps xmm9,xmm8
     b63:	f3 45 0f 59 c8       	mulss  xmm9,xmm8
     b68:	41 0f 28 c2          	movaps xmm0,xmm10
     b6c:	f3 41 0f 59 c2       	mulss  xmm0,xmm10
     b71:	45 0f 28 f1          	movaps xmm14,xmm9
     b75:	f3 44 0f 59 cf       	mulss  xmm9,xmm7
     b7a:	f3 44 0f 59 f5       	mulss  xmm14,xmm5
     b7f:	f3 44 0f 59 d8       	mulss  xmm11,xmm0
     b84:	f3 0f 59 c3          	mulss  xmm0,xmm3
     b88:	f3 45 0f 58 f3       	addss  xmm14,xmm11
     b8d:	f3 41 0f 58 c1       	addss  xmm0,xmm9
     b92:	f3 45 0f 59 f2       	mulss  xmm14,xmm10
     b97:	f3 41 0f 59 c0       	mulss  xmm0,xmm8
     b9c:	66 45 0f ef c0       	pxor   xmm8,xmm8
     ba1:	f3 4d 0f 2a c3       	cvtsi2ss xmm8,r11
     ba6:	f3 41 0f 58 c6       	addss  xmm0,xmm14
     bab:	f3 42 0f 11 04 97    	movss  DWORD PTR [rdi+r10*4],xmm0
     bb1:	0f 28 c1             	movaps xmm0,xmm1
     bb4:	f3 44 0f 59 c4       	mulss  xmm8,xmm4
     bb9:	f3 45 0f 5c e0       	subss  xmm12,xmm8
     bbe:	45 0f 28 d0          	movaps xmm10,xmm8
     bc2:	f3 45 0f 59 d0       	mulss  xmm10,xmm8
     bc7:	45 0f 28 ec          	movaps xmm13,xmm12
     bcb:	f3 45 0f 59 ec       	mulss  xmm13,xmm12
     bd0:	41 0f 28 f2          	movaps xmm6,xmm10
     bd4:	f3 44 0f 59 d7       	mulss  xmm10,xmm7
     bd9:	f3 0f 59 f5          	mulss  xmm6,xmm5
     bdd:	f3 41 0f 59 c5       	mulss  xmm0,xmm13
     be2:	f3 44 0f 59 eb       	mulss  xmm13,xmm3
     be7:	f3 0f 58 f0          	addss  xmm6,xmm0
     beb:	f3 45 0f 58 ea       	addss  xmm13,xmm10
     bf0:	f3 41 0f 59 f4       	mulss  xmm6,xmm12
     bf5:	f3 45 0f 59 e8       	mulss  xmm13,xmm8
     bfa:	f3 44 0f 58 ee       	addss  xmm13,xmm6
     bff:	f3 46 0f 11 2c 9f    	movss  DWORD PTR [rdi+r11*4],xmm13
     c05:	0f 85 59 fe ff ff    	jne    a64 <_ZN3XGK4MATH4UTIL24makeBezierCurve3SequenceEPfffffffffm+0x154>
     c0b:	f3 0f 11 54 b7 fc    	movss  DWORD PTR [rdi+rsi*4-0x4],xmm2
     c11:	c3                   	ret    
     c12:	0f 1f 40 00          	nop    DWORD PTR [rax+0x0]
     c16:	66 2e 0f 1f 84 00 00 	nop    WORD PTR cs:[rax+rax*1+0x0]
     c1d:	00 00 00 

0000000000000c20 <_ZN3XGK4MATH4UTIL25makeBezierCurve3Sequence2EPfffffm>:
     c20:	f3 0f 10 15 00 00 00 	movss  xmm2,DWORD PTR [rip+0x0]        # c28 <_ZN3XGK4MATH4UTIL25makeBezierCurve3Sequence2EPfffffm+0x8>
     c27:	00 
     c28:	48 85 f6             	test   rsi,rsi
     c2b:	f3 0f 59 ca          	mulss  xmm1,xmm2
     c2f:	f3 0f 10 25 00 00 00 	movss  xmm4,DWORD PTR [rip+0x0]        # c37 <_ZN3XGK4MATH4UTIL25makeBezierCurve3Sequence2EPfffffm+0x17>
     c36:	00 
     c37:	0f 84 68 02 00 00    	je     ea5 <_ZN3XGK4MATH4UTIL25makeBezierCurve3Sequence2EPfffffm+0x285>
     c3d:	66 0f ef c0          	pxor   xmm0,xmm0
     c41:	f3 48 0f 2a c6       	cvtsi2ss xmm0,rsi
     c46:	79 1c                	jns    c64 <_ZN3XGK4MATH4UTIL25makeBezierCurve3Sequence2EPfffffm+0x44>
     c48:	48 89 f0             	mov    rax,rsi
     c4b:	48 89 f2             	mov    rdx,rsi
     c4e:	66 0f ef c0          	pxor   xmm0,xmm0
     c52:	48 d1 e8             	shr    rax,1
     c55:	83 e2 01             	and    edx,0x1
     c58:	48 09 d0             	or     rax,rdx
     c5b:	f3 48 0f 2a c0       	cvtsi2ss xmm0,rax
     c60:	f3 0f 58 c0          	addss  xmm0,xmm0
     c64:	f3 0f 10 25 00 00 00 	movss  xmm4,DWORD PTR [rip+0x0]        # c6c <_ZN3XGK4MATH4UTIL25makeBezierCurve3Sequence2EPfffffm+0x4c>
     c6b:	00 
     c6c:	48 89 f1             	mov    rcx,rsi
     c6f:	45 31 c0             	xor    r8d,r8d
     c72:	0f 28 ec             	movaps xmm5,xmm4
     c75:	83 e1 03             	and    ecx,0x3
     c78:	f3 0f 59 da          	mulss  xmm3,xmm2
     c7c:	f3 0f 5e e8          	divss  xmm5,xmm0
     c80:	0f 84 cc 00 00 00    	je     d52 <_ZN3XGK4MATH4UTIL25makeBezierCurve3Sequence2EPfffffm+0x132>
     c86:	48 83 f9 01          	cmp    rcx,0x1
     c8a:	74 67                	je     cf3 <_ZN3XGK4MATH4UTIL25makeBezierCurve3Sequence2EPfffffm+0xd3>
     c8c:	48 83 f9 02          	cmp    rcx,0x2
     c90:	74 0c                	je     c9e <_ZN3XGK4MATH4UTIL25makeBezierCurve3Sequence2EPfffffm+0x7e>
     c92:	c7 07 00 00 00 00    	mov    DWORD PTR [rdi],0x0
     c98:	41 b8 01 00 00 00    	mov    r8d,0x1
     c9e:	0f 28 fc             	movaps xmm7,xmm4
     ca1:	66 45 0f ef c9       	pxor   xmm9,xmm9
     ca6:	f3 4d 0f 2a c8       	cvtsi2ss xmm9,r8
     cab:	f3 44 0f 59 cd       	mulss  xmm9,xmm5
     cb0:	41 0f 28 f1          	movaps xmm6,xmm9
     cb4:	45 0f 28 d1          	movaps xmm10,xmm9
     cb8:	f3 41 0f 59 f1       	mulss  xmm6,xmm9
     cbd:	f3 41 0f 5c f9       	subss  xmm7,xmm9
     cc2:	f3 44 0f 59 d1       	mulss  xmm10,xmm1
     cc7:	44 0f 28 c6          	movaps xmm8,xmm6
     ccb:	f3 44 0f 59 ce       	mulss  xmm9,xmm6
     cd0:	f3 44 0f 59 d7       	mulss  xmm10,xmm7
     cd5:	f3 44 0f 59 c3       	mulss  xmm8,xmm3
     cda:	f3 45 0f 58 d0       	addss  xmm10,xmm8
     cdf:	f3 44 0f 59 d7       	mulss  xmm10,xmm7
     ce4:	f3 45 0f 58 d1       	addss  xmm10,xmm9
     ce9:	f3 46 0f 11 14 87    	movss  DWORD PTR [rdi+r8*4],xmm10
     cef:	49 83 c0 01          	add    r8,0x1
     cf3:	66 45 0f ef db       	pxor   xmm11,xmm11
     cf8:	44 0f 28 e4          	movaps xmm12,xmm4
     cfc:	f3 4d 0f 2a d8       	cvtsi2ss xmm11,r8
     d01:	f3 44 0f 59 dd       	mulss  xmm11,xmm5
     d06:	45 0f 28 eb          	movaps xmm13,xmm11
     d0a:	45 0f 28 f3          	movaps xmm14,xmm11
     d0e:	f3 45 0f 59 eb       	mulss  xmm13,xmm11
     d13:	f3 45 0f 5c e3       	subss  xmm12,xmm11
     d18:	f3 44 0f 59 f1       	mulss  xmm14,xmm1
     d1d:	45 0f 28 fd          	movaps xmm15,xmm13
     d21:	f3 45 0f 59 dd       	mulss  xmm11,xmm13
     d26:	f3 45 0f 59 f4       	mulss  xmm14,xmm12
     d2b:	f3 44 0f 59 fb       	mulss  xmm15,xmm3
     d30:	f3 45 0f 58 f7       	addss  xmm14,xmm15
     d35:	f3 45 0f 59 f4       	mulss  xmm14,xmm12
     d3a:	f3 45 0f 58 f3       	addss  xmm14,xmm11
     d3f:	f3 46 0f 11 34 87    	movss  DWORD PTR [rdi+r8*4],xmm14
     d45:	49 83 c0 01          	add    r8,0x1
     d49:	4c 39 c6             	cmp    rsi,r8
     d4c:	0f 84 53 01 00 00    	je     ea5 <_ZN3XGK4MATH4UTIL25makeBezierCurve3Sequence2EPfffffm+0x285>
     d52:	66 45 0f ef d2       	pxor   xmm10,xmm10
     d57:	4d 8d 48 01          	lea    r9,[r8+0x1]
     d5b:	4d 8d 50 02          	lea    r10,[r8+0x2]
     d5f:	66 0f ef d2          	pxor   xmm2,xmm2
     d63:	4d 8d 58 03          	lea    r11,[r8+0x3]
     d67:	44 0f 28 dc          	movaps xmm11,xmm4
     d6b:	f3 4d 0f 2a d1       	cvtsi2ss xmm10,r9
     d70:	f3 49 0f 2a d0       	cvtsi2ss xmm2,r8
     d75:	66 45 0f ef f6       	pxor   xmm14,xmm14
     d7a:	44 0f 28 cc          	movaps xmm9,xmm4
     d7e:	44 0f 28 fc          	movaps xmm15,xmm4
     d82:	f3 4d 0f 2a f2       	cvtsi2ss xmm14,r10
     d87:	f3 44 0f 59 d5       	mulss  xmm10,xmm5
     d8c:	f3 0f 59 d5          	mulss  xmm2,xmm5
     d90:	45 0f 28 e2          	movaps xmm12,xmm10
     d94:	45 0f 28 ea          	movaps xmm13,xmm10
     d98:	f3 45 0f 59 e2       	mulss  xmm12,xmm10
     d9d:	f3 45 0f 5c da       	subss  xmm11,xmm10
     da2:	f3 44 0f 59 e9       	mulss  xmm13,xmm1
     da7:	0f 28 fa             	movaps xmm7,xmm2
     daa:	0f 28 c2             	movaps xmm0,xmm2
     dad:	f3 44 0f 59 f5       	mulss  xmm14,xmm5
     db2:	f3 0f 59 fa          	mulss  xmm7,xmm2
     db6:	f3 44 0f 5c ca       	subss  xmm9,xmm2
     dbb:	45 0f 28 c4          	movaps xmm8,xmm12
     dbf:	f3 45 0f 59 d4       	mulss  xmm10,xmm12
     dc4:	f3 45 0f 59 eb       	mulss  xmm13,xmm11
     dc9:	f3 44 0f 59 c3       	mulss  xmm8,xmm3
     dce:	f3 45 0f 5c fe       	subss  xmm15,xmm14
     dd3:	f3 0f 59 c1          	mulss  xmm0,xmm1
     dd7:	0f 28 f7             	movaps xmm6,xmm7
     dda:	f3 0f 59 d7          	mulss  xmm2,xmm7
     dde:	f3 0f 59 f3          	mulss  xmm6,xmm3
     de2:	f3 45 0f 58 e8       	addss  xmm13,xmm8
     de7:	f3 41 0f 59 c1       	mulss  xmm0,xmm9
     dec:	f3 45 0f 59 eb       	mulss  xmm13,xmm11
     df1:	44 0f 28 dc          	movaps xmm11,xmm4
     df5:	f3 0f 58 c6          	addss  xmm0,xmm6
     df9:	f3 45 0f 58 ea       	addss  xmm13,xmm10
     dfe:	66 45 0f ef d2       	pxor   xmm10,xmm10
     e03:	f3 41 0f 59 c1       	mulss  xmm0,xmm9
     e08:	45 0f 28 ce          	movaps xmm9,xmm14
     e0c:	f3 4d 0f 2a d3       	cvtsi2ss xmm10,r11
     e11:	f3 0f 58 c2          	addss  xmm0,xmm2
     e15:	41 0f 28 d6          	movaps xmm2,xmm14
     e19:	f3 44 0f 59 c9       	mulss  xmm9,xmm1
     e1e:	f3 41 0f 59 d6       	mulss  xmm2,xmm14
     e23:	f3 42 0f 11 04 87    	movss  DWORD PTR [rdi+r8*4],xmm0
     e29:	49 83 c0 04          	add    r8,0x4
     e2d:	f3 45 0f 59 cf       	mulss  xmm9,xmm15
     e32:	4c 39 c6             	cmp    rsi,r8
     e35:	f3 46 0f 11 2c 8f    	movss  DWORD PTR [rdi+r9*4],xmm13
     e3b:	0f 28 fa             	movaps xmm7,xmm2
     e3e:	f3 44 0f 59 f2       	mulss  xmm14,xmm2
     e43:	f3 0f 59 fb          	mulss  xmm7,xmm3
     e47:	f3 44 0f 59 d5       	mulss  xmm10,xmm5
     e4c:	f3 44 0f 58 cf       	addss  xmm9,xmm7
     e51:	41 0f 28 f2          	movaps xmm6,xmm10
     e55:	f3 45 0f 59 cf       	mulss  xmm9,xmm15
     e5a:	41 0f 28 c2          	movaps xmm0,xmm10
     e5e:	f3 41 0f 59 f2       	mulss  xmm6,xmm10
     e63:	f3 45 0f 5c da       	subss  xmm11,xmm10
     e68:	f3 0f 59 c1          	mulss  xmm0,xmm1
     e6c:	f3 45 0f 58 ce       	addss  xmm9,xmm14
     e71:	44 0f 28 e6          	movaps xmm12,xmm6
     e75:	f3 44 0f 59 d6       	mulss  xmm10,xmm6
     e7a:	f3 41 0f 59 c3       	mulss  xmm0,xmm11
     e7f:	f3 44 0f 59 e3       	mulss  xmm12,xmm3
     e84:	f3 46 0f 11 0c 97    	movss  DWORD PTR [rdi+r10*4],xmm9
     e8a:	f3 41 0f 58 c4       	addss  xmm0,xmm12
     e8f:	f3 41 0f 59 c3       	mulss  xmm0,xmm11
     e94:	f3 41 0f 58 c2       	addss  xmm0,xmm10
     e99:	f3 42 0f 11 04 9f    	movss  DWORD PTR [rdi+r11*4],xmm0
     e9f:	0f 85 ad fe ff ff    	jne    d52 <_ZN3XGK4MATH4UTIL25makeBezierCurve3Sequence2EPfffffm+0x132>
     ea5:	f3 0f 11 64 b7 fc    	movss  DWORD PTR [rdi+rsi*4-0x4],xmm4
     eab:	c3                   	ret    
     eac:	0f 1f 40 00          	nop    DWORD PTR [rax+0x0]

0000000000000eb0 <_ZN3XGK4MATH4UTIL23makeBezierCurve2Point3DEPfS2_S2_S2_f>:
     eb0:	f3 0f 10 1d 00 00 00 	movss  xmm3,DWORD PTR [rip+0x0]        # eb8 <_ZN3XGK4MATH4UTIL23makeBezierCurve2Point3DEPfS2_S2_S2_f+0x8>
     eb7:	00 
     eb8:	66 0f ef ed          	pxor   xmm5,xmm5
     ebc:	f3 0f 5c d8          	subss  xmm3,xmm0
     ec0:	66 0f ef c9          	pxor   xmm1,xmm1
     ec4:	66 0f ef e4          	pxor   xmm4,xmm4
     ec8:	0f 11 2f             	movups XMMWORD PTR [rdi],xmm5
     ecb:	4c 8b 06             	mov    r8,QWORD PTR [rsi]
     ece:	48 8b 46 08          	mov    rax,QWORD PTR [rsi+0x8]
     ed2:	0f 28 d3             	movaps xmm2,xmm3
     ed5:	f3 0f 5a c8          	cvtss2sd xmm1,xmm0
     ed9:	f3 0f 59 c0          	mulss  xmm0,xmm0
     edd:	f3 0f 5a e3          	cvtss2sd xmm4,xmm3
     ee1:	66 45 0f ef c9       	pxor   xmm9,xmm9
     ee6:	49 c1 e8 20          	shr    r8,0x20
     eea:	f3 0f 59 d3          	mulss  xmm2,xmm3
     eee:	f2 0f 58 c9          	addsd  xmm1,xmm1
     ef2:	4c 89 44 24 f0       	mov    QWORD PTR [rsp-0x10],r8
     ef7:	f3 44 0f 10 06       	movss  xmm8,DWORD PTR [rsi]
     efc:	f3 0f 10 7c 24 f0    	movss  xmm7,DWORD PTR [rsp-0x10]
     f02:	89 44 24 f0          	mov    DWORD PTR [rsp-0x10],eax
     f06:	66 44 0f 6e 5c 24 f0 	movd   xmm11,DWORD PTR [rsp-0x10]
     f0d:	48 c1 e8 20          	shr    rax,0x20
     f11:	48 89 44 24 f0       	mov    QWORD PTR [rsp-0x10],rax
     f16:	f3 44 0f 59 c2       	mulss  xmm8,xmm2
     f1b:	f3 0f 59 fa          	mulss  xmm7,xmm2
     f1f:	f3 0f 10 77 04       	movss  xmm6,DWORD PTR [rdi+0x4]
     f24:	f3 44 0f 59 da       	mulss  xmm11,xmm2
     f29:	f3 44 0f 10 67 08    	movss  xmm12,DWORD PTR [rdi+0x8]
     f2f:	f3 0f 59 54 24 f0    	mulss  xmm2,DWORD PTR [rsp-0x10]
     f35:	f2 0f 59 e1          	mulsd  xmm4,xmm1
     f39:	f3 44 0f 58 07       	addss  xmm8,DWORD PTR [rdi]
     f3e:	f3 0f 58 f7          	addss  xmm6,xmm7
     f42:	f3 45 0f 58 e3       	addss  xmm12,xmm11
     f47:	f2 44 0f 5a cc       	cvtsd2ss xmm9,xmm4
     f4c:	f3 0f 58 57 0c       	addss  xmm2,DWORD PTR [rdi+0xc]
     f51:	f3 44 0f 11 07       	movss  DWORD PTR [rdi],xmm8
     f56:	f3 0f 11 77 04       	movss  DWORD PTR [rdi+0x4],xmm6
     f5b:	f3 44 0f 11 67 08    	movss  DWORD PTR [rdi+0x8],xmm12
     f61:	f3 0f 11 57 0c       	movss  DWORD PTR [rdi+0xc],xmm2
     f66:	48 8b 32             	mov    rsi,QWORD PTR [rdx]
     f69:	4c 8b 4a 08          	mov    r9,QWORD PTR [rdx+0x8]
     f6d:	f3 44 0f 10 2a       	movss  xmm13,DWORD PTR [rdx]
     f72:	48 c1 ee 20          	shr    rsi,0x20
     f76:	f3 45 0f 59 e9       	mulss  xmm13,xmm9
     f7b:	48 89 74 24 f0       	mov    QWORD PTR [rsp-0x10],rsi
     f80:	f3 44 0f 10 74 24 f0 	movss  xmm14,DWORD PTR [rsp-0x10]
     f87:	44 89 4c 24 f0       	mov    DWORD PTR [rsp-0x10],r9d
     f8c:	49 c1 e9 20          	shr    r9,0x20
     f90:	66 44 0f 6e 7c 24 f0 	movd   xmm15,DWORD PTR [rsp-0x10]
     f97:	4c 89 4c 24 f0       	mov    QWORD PTR [rsp-0x10],r9
     f9c:	f3 45 0f 59 f1       	mulss  xmm14,xmm9
     fa1:	f3 45 0f 58 e8       	addss  xmm13,xmm8
     fa6:	f3 45 0f 59 f9       	mulss  xmm15,xmm9
     fab:	f3 44 0f 59 4c 24 f0 	mulss  xmm9,DWORD PTR [rsp-0x10]
     fb2:	f3 44 0f 58 f6       	addss  xmm14,xmm6
     fb7:	f3 44 0f 11 2f       	movss  DWORD PTR [rdi],xmm13
     fbc:	f3 45 0f 58 fc       	addss  xmm15,xmm12
     fc1:	f3 44 0f 11 77 04    	movss  DWORD PTR [rdi+0x4],xmm14
     fc7:	f3 44 0f 58 ca       	addss  xmm9,xmm2
     fcc:	f3 44 0f 11 7f 08    	movss  DWORD PTR [rdi+0x8],xmm15
     fd2:	f3 44 0f 11 4f 0c    	movss  DWORD PTR [rdi+0xc],xmm9
     fd8:	4c 8b 51 08          	mov    r10,QWORD PTR [rcx+0x8]
     fdc:	48 8b 11             	mov    rdx,QWORD PTR [rcx]
     fdf:	f3 0f 10 19          	movss  xmm3,DWORD PTR [rcx]
     fe3:	f3 0f 59 d8          	mulss  xmm3,xmm0
     fe7:	48 c1 ea 20          	shr    rdx,0x20
     feb:	48 89 54 24 f0       	mov    QWORD PTR [rsp-0x10],rdx
     ff0:	f3 0f 10 54 24 f0    	movss  xmm2,DWORD PTR [rsp-0x10]
     ff6:	44 89 54 24 f0       	mov    DWORD PTR [rsp-0x10],r10d
     ffb:	49 c1 ea 20          	shr    r10,0x20
     fff:	66 0f 6e 4c 24 f0    	movd   xmm1,DWORD PTR [rsp-0x10]
    1005:	4c 89 54 24 f0       	mov    QWORD PTR [rsp-0x10],r10
    100a:	f3 0f 59 d0          	mulss  xmm2,xmm0
    100e:	f3 44 0f 58 eb       	addss  xmm13,xmm3
    1013:	f3 0f 59 c8          	mulss  xmm1,xmm0
    1017:	f3 0f 59 44 24 f0    	mulss  xmm0,DWORD PTR [rsp-0x10]
    101d:	f3 44 0f 58 f2       	addss  xmm14,xmm2
    1022:	f3 44 0f 11 2f       	movss  DWORD PTR [rdi],xmm13
    1027:	f3 44 0f 58 f9       	addss  xmm15,xmm1
    102c:	f3 44 0f 11 77 04    	movss  DWORD PTR [rdi+0x4],xmm14
    1032:	f3 44 0f 58 c8       	addss  xmm9,xmm0
    1037:	f3 44 0f 11 7f 08    	movss  DWORD PTR [rdi+0x8],xmm15
    103d:	f3 44 0f 11 4f 0c    	movss  DWORD PTR [rdi+0xc],xmm9
    1043:	c3                   	ret    
    1044:	66 90                	xchg   ax,ax
    1046:	66 2e 0f 1f 84 00 00 	nop    WORD PTR cs:[rax+rax*1+0x0]
    104d:	00 00 00 

0000000000001050 <_ZN3XGK4MATH4UTIL23makeBezierCurve3Point3DEPfS2_S2_S2_S2_f>:
    1050:	f3 0f 10 25 00 00 00 	movss  xmm4,DWORD PTR [rip+0x0]        # 1058 <_ZN3XGK4MATH4UTIL23makeBezierCurve3Point3DEPfS2_S2_S2_S2_f+0x8>
    1057:	00 
    1058:	f3 0f 5c e0          	subss  xmm4,xmm0
    105c:	66 45 0f ef e4       	pxor   xmm12,xmm12
    1061:	66 0f ef d2          	pxor   xmm2,xmm2
    1065:	66 45 0f ef d2       	pxor   xmm10,xmm10
    106a:	0f 28 f0             	movaps xmm6,xmm0
    106d:	44 0f 11 27          	movups XMMWORD PTR [rdi],xmm12
    1071:	0f 28 ec             	movaps xmm5,xmm4
    1074:	4c 8b 0e             	mov    r9,QWORD PTR [rsi]
    1077:	0f 28 dc             	movaps xmm3,xmm4
    107a:	f3 0f 5a d0          	cvtss2sd xmm2,xmm0
    107e:	f3 0f 59 ec          	mulss  xmm5,xmm4
    1082:	f3 44 0f 5a d4       	cvtss2sd xmm10,xmm4
    1087:	48 8b 46 08          	mov    rax,QWORD PTR [rsi+0x8]
    108b:	49 c1 e9 20          	shr    r9,0x20
    108f:	f3 0f 59 f0          	mulss  xmm6,xmm0
    1093:	4c 89 4c 24 f0       	mov    QWORD PTR [rsp-0x10],r9
    1098:	f2 0f 10 0d 00 00 00 	movsd  xmm1,QWORD PTR [rip+0x0]        # 10a0 <_ZN3XGK4MATH4UTIL23makeBezierCurve3Point3DEPfS2_S2_S2_S2_f+0x50>
    109f:	00 
    10a0:	f3 44 0f 10 7c 24 f0 	movss  xmm15,DWORD PTR [rsp-0x10]
    10a7:	f3 0f 59 dd          	mulss  xmm3,xmm5
    10ab:	89 44 24 f0          	mov    DWORD PTR [rsp-0x10],eax
    10af:	48 c1 e8 20          	shr    rax,0x20
    10b3:	66 0f 6e 64 24 f0    	movd   xmm4,DWORD PTR [rsp-0x10]
    10b9:	66 0f ef ff          	pxor   xmm7,xmm7
    10bd:	f3 44 0f 10 2e       	movss  xmm13,DWORD PTR [rsi]
    10c2:	48 89 44 24 f0       	mov    QWORD PTR [rsp-0x10],rax
    10c7:	f2 0f 59 d1          	mulsd  xmm2,xmm1
    10cb:	f3 44 0f 10 37       	movss  xmm14,DWORD PTR [rdi]
    10d0:	f3 44 0f 59 eb       	mulss  xmm13,xmm3
    10d5:	f3 0f 5a fd          	cvtss2sd xmm7,xmm5
    10d9:	f3 44 0f 59 fb       	mulss  xmm15,xmm3
    10de:	f3 0f 59 e3          	mulss  xmm4,xmm3
    10e2:	f3 0f 59 5c 24 f0    	mulss  xmm3,DWORD PTR [rsp-0x10]
    10e8:	f2 0f 59 d7          	mulsd  xmm2,xmm7
    10ec:	f3 45 0f 58 f5       	addss  xmm14,xmm13
    10f1:	66 45 0f ef c0       	pxor   xmm8,xmm8
    10f6:	f3 44 0f 58 7f 04    	addss  xmm15,DWORD PTR [rdi+0x4]
    10fc:	66 45 0f ef c9       	pxor   xmm9,xmm9
    1101:	f3 0f 59 c6          	mulss  xmm0,xmm6
    1105:	f3 44 0f 5a c6       	cvtss2sd xmm8,xmm6
    110a:	66 45 0f ef db       	pxor   xmm11,xmm11
    110f:	f3 0f 58 5f 0c       	addss  xmm3,DWORD PTR [rdi+0xc]
    1114:	f3 0f 10 77 08       	movss  xmm6,DWORD PTR [rdi+0x8]
    1119:	f2 44 0f 5a ca       	cvtsd2ss xmm9,xmm2
    111e:	f3 0f 58 f4          	addss  xmm6,xmm4
    1122:	f3 44 0f 11 7f 04    	movss  DWORD PTR [rdi+0x4],xmm15
    1128:	f2 45 0f 59 d0       	mulsd  xmm10,xmm8
    112d:	f3 44 0f 11 37       	movss  DWORD PTR [rdi],xmm14
    1132:	f3 0f 11 5f 0c       	movss  DWORD PTR [rdi+0xc],xmm3
    1137:	f3 0f 11 77 08       	movss  DWORD PTR [rdi+0x8],xmm6
    113c:	48 8b 32             	mov    rsi,QWORD PTR [rdx]
    113f:	f2 44 0f 59 d1       	mulsd  xmm10,xmm1
    1144:	4c 8b 52 08          	mov    r10,QWORD PTR [rdx+0x8]
    1148:	f3 0f 10 12          	movss  xmm2,DWORD PTR [rdx]
    114c:	48 c1 ee 20          	shr    rsi,0x20
    1150:	48 89 74 24 f0       	mov    QWORD PTR [rsp-0x10],rsi
    1155:	f3 0f 10 6c 24 f0    	movss  xmm5,DWORD PTR [rsp-0x10]
    115b:	44 89 54 24 f0       	mov    DWORD PTR [rsp-0x10],r10d
    1160:	49 c1 ea 20          	shr    r10,0x20
    1164:	66 0f 6e 4c 24 f0    	movd   xmm1,DWORD PTR [rsp-0x10]
    116a:	4c 89 54 24 f0       	mov    QWORD PTR [rsp-0x10],r10
    116f:	f3 41 0f 59 d1       	mulss  xmm2,xmm9
    1174:	f3 41 0f 59 e9       	mulss  xmm5,xmm9
    1179:	f3 41 0f 59 c9       	mulss  xmm1,xmm9
    117e:	f3 44 0f 59 4c 24 f0 	mulss  xmm9,DWORD PTR [rsp-0x10]
    1185:	f2 45 0f 5a da       	cvtsd2ss xmm11,xmm10
    118a:	f3 41 0f 58 d6       	addss  xmm2,xmm14
    118f:	f3 44 0f 58 fd       	addss  xmm15,xmm5
    1194:	f3 44 0f 58 cb       	addss  xmm9,xmm3
    1199:	f3 0f 58 ce          	addss  xmm1,xmm6
    119d:	f3 0f 11 17          	movss  DWORD PTR [rdi],xmm2
    11a1:	f3 44 0f 11 7f 04    	movss  DWORD PTR [rdi+0x4],xmm15
    11a7:	f3 0f 11 4f 08       	movss  DWORD PTR [rdi+0x8],xmm1
    11ac:	f3 44 0f 11 4f 0c    	movss  DWORD PTR [rdi+0xc],xmm9
    11b2:	48 8b 11             	mov    rdx,QWORD PTR [rcx]
    11b5:	4c 8b 59 08          	mov    r11,QWORD PTR [rcx+0x8]
    11b9:	f3 0f 10 39          	movss  xmm7,DWORD PTR [rcx]
    11bd:	f3 41 0f 59 fb       	mulss  xmm7,xmm11
    11c2:	48 c1 ea 20          	shr    rdx,0x20
    11c6:	48 89 54 24 f0       	mov    QWORD PTR [rsp-0x10],rdx
    11cb:	f3 44 0f 10 44 24 f0 	movss  xmm8,DWORD PTR [rsp-0x10]
    11d2:	44 89 5c 24 f0       	mov    DWORD PTR [rsp-0x10],r11d
    11d7:	49 c1 eb 20          	shr    r11,0x20
    11db:	66 0f 6e 5c 24 f0    	movd   xmm3,DWORD PTR [rsp-0x10]
    11e1:	4c 89 5c 24 f0       	mov    QWORD PTR [rsp-0x10],r11
    11e6:	f3 45 0f 59 c3       	mulss  xmm8,xmm11
    11eb:	f3 0f 58 fa          	addss  xmm7,xmm2
    11ef:	f3 41 0f 59 db       	mulss  xmm3,xmm11
    11f4:	f3 44 0f 59 5c 24 f0 	mulss  xmm11,DWORD PTR [rsp-0x10]
    11fb:	f3 45 0f 58 c7       	addss  xmm8,xmm15
    1200:	f3 0f 11 3f          	movss  DWORD PTR [rdi],xmm7
    1204:	f3 0f 58 d9          	addss  xmm3,xmm1
    1208:	f3 44 0f 11 47 04    	movss  DWORD PTR [rdi+0x4],xmm8
    120e:	f3 45 0f 58 d9       	addss  xmm11,xmm9
    1213:	f3 0f 11 5f 08       	movss  DWORD PTR [rdi+0x8],xmm3
    1218:	f3 44 0f 11 5f 0c    	movss  DWORD PTR [rdi+0xc],xmm11
    121e:	49 8b 00             	mov    rax,QWORD PTR [r8]
    1221:	49 8b 48 08          	mov    rcx,QWORD PTR [r8+0x8]
    1225:	f3 45 0f 10 08       	movss  xmm9,DWORD PTR [r8]
    122a:	48 c1 e8 20          	shr    rax,0x20
    122e:	f3 44 0f 59 c8       	mulss  xmm9,xmm0
    1233:	48 89 44 24 f0       	mov    QWORD PTR [rsp-0x10],rax
    1238:	f3 44 0f 10 54 24 f0 	movss  xmm10,DWORD PTR [rsp-0x10]
    123f:	89 4c 24 f0          	mov    DWORD PTR [rsp-0x10],ecx
    1243:	48 c1 e9 20          	shr    rcx,0x20
    1247:	66 44 0f 6e 64 24 f0 	movd   xmm12,DWORD PTR [rsp-0x10]
    124e:	48 89 4c 24 f0       	mov    QWORD PTR [rsp-0x10],rcx
    1253:	f3 44 0f 59 d0       	mulss  xmm10,xmm0
    1258:	f3 41 0f 58 f9       	addss  xmm7,xmm9
    125d:	f3 44 0f 59 e0       	mulss  xmm12,xmm0
    1262:	f3 0f 59 44 24 f0    	mulss  xmm0,DWORD PTR [rsp-0x10]
    1268:	f3 45 0f 58 c2       	addss  xmm8,xmm10
    126d:	f3 0f 11 3f          	movss  DWORD PTR [rdi],xmm7
    1271:	f3 41 0f 58 dc       	addss  xmm3,xmm12
    1276:	f3 44 0f 11 47 04    	movss  DWORD PTR [rdi+0x4],xmm8
    127c:	f3 44 0f 58 d8       	addss  xmm11,xmm0
    1281:	f3 0f 11 5f 08       	movss  DWORD PTR [rdi+0x8],xmm3
    1286:	f3 44 0f 11 5f 0c    	movss  DWORD PTR [rdi+0xc],xmm11
    128c:	c3                   	ret    
    128d:	0f 1f 00             	nop    DWORD PTR [rax]

0000000000001290 <_ZN3XGK4MATH4UTIL35makeCatmullRomSpline3ControlPoint3DEPfS2_S2_S2_f>:
    1290:	66 0f ef c9          	pxor   xmm1,xmm1
    1294:	0f 11 0f             	movups XMMWORD PTR [rdi],xmm1
    1297:	f3 0f 10 19          	movss  xmm3,DWORD PTR [rcx]
    129b:	f3 0f 11 1f          	movss  DWORD PTR [rdi],xmm3
    129f:	f3 0f 10 57 04       	movss  xmm2,DWORD PTR [rdi+0x4]
    12a4:	f3 0f 58 51 04       	addss  xmm2,DWORD PTR [rcx+0x4]
    12a9:	f3 0f 10 6f 08       	movss  xmm5,DWORD PTR [rdi+0x8]
    12ae:	f3 0f 10 67 0c       	movss  xmm4,DWORD PTR [rdi+0xc]
    12b3:	f3 0f 11 57 04       	movss  DWORD PTR [rdi+0x4],xmm2
    12b8:	f3 0f 58 69 08       	addss  xmm5,DWORD PTR [rcx+0x8]
    12bd:	f3 0f 11 6f 08       	movss  DWORD PTR [rdi+0x8],xmm5
    12c2:	f3 0f 58 61 0c       	addss  xmm4,DWORD PTR [rcx+0xc]
    12c7:	f3 0f 11 67 0c       	movss  DWORD PTR [rdi+0xc],xmm4
    12cc:	f3 0f 5c 1e          	subss  xmm3,DWORD PTR [rsi]
    12d0:	f3 0f 11 1f          	movss  DWORD PTR [rdi],xmm3
    12d4:	f3 0f 59 d8          	mulss  xmm3,xmm0
    12d8:	f3 0f 5c 56 04       	subss  xmm2,DWORD PTR [rsi+0x4]
    12dd:	f3 0f 11 57 04       	movss  DWORD PTR [rdi+0x4],xmm2
    12e2:	f3 0f 59 d0          	mulss  xmm2,xmm0
    12e6:	f3 0f 5c 6e 08       	subss  xmm5,DWORD PTR [rsi+0x8]
    12eb:	f3 0f 11 6f 08       	movss  DWORD PTR [rdi+0x8],xmm5
    12f0:	f3 0f 59 e8          	mulss  xmm5,xmm0
    12f4:	f3 0f 5c 66 0c       	subss  xmm4,DWORD PTR [rsi+0xc]
    12f9:	f3 0f 11 1f          	movss  DWORD PTR [rdi],xmm3
    12fd:	f3 0f 11 57 04       	movss  DWORD PTR [rdi+0x4],xmm2
    1302:	f3 0f 11 6f 08       	movss  DWORD PTR [rdi+0x8],xmm5
    1307:	f3 0f 59 c4          	mulss  xmm0,xmm4
    130b:	f3 0f 11 47 0c       	movss  DWORD PTR [rdi+0xc],xmm0
    1310:	f3 0f 58 1a          	addss  xmm3,DWORD PTR [rdx]
    1314:	f3 0f 11 1f          	movss  DWORD PTR [rdi],xmm3
    1318:	f3 0f 58 52 04       	addss  xmm2,DWORD PTR [rdx+0x4]
    131d:	f3 0f 11 57 04       	movss  DWORD PTR [rdi+0x4],xmm2
    1322:	f3 0f 58 6a 08       	addss  xmm5,DWORD PTR [rdx+0x8]
    1327:	f3 0f 11 6f 08       	movss  DWORD PTR [rdi+0x8],xmm5
    132c:	f3 0f 58 42 0c       	addss  xmm0,DWORD PTR [rdx+0xc]
    1331:	f3 0f 11 47 0c       	movss  DWORD PTR [rdi+0xc],xmm0
    1336:	c3                   	ret    
    1337:	66 0f 1f 84 00 00 00 	nop    WORD PTR [rax+rax*1+0x0]
    133e:	00 00 

0000000000001340 <_ZN3XGK4MATH4UTIL35makeCatmullRomSpline3PointsClosed3DEPSt6vectorIfSaIfEES5_mf>:
    1340:	41 57                	push   r15
    1342:	41 56                	push   r14
    1344:	41 55                	push   r13
    1346:	41 54                	push   r12
    1348:	55                   	push   rbp
    1349:	53                   	push   rbx
    134a:	48 83 ec 78          	sub    rsp,0x78
    134e:	48 8b 0e             	mov    rcx,QWORD PTR [rsi]
    1351:	64 48 8b 04 25 28 00 	mov    rax,QWORD PTR fs:0x28
    1358:	00 00 
    135a:	48 89 44 24 68       	mov    QWORD PTR [rsp+0x68],rax
    135f:	31 c0                	xor    eax,eax
    1361:	48 8b 46 08          	mov    rax,QWORD PTR [rsi+0x8]
    1365:	48 89 54 24 08       	mov    QWORD PTR [rsp+0x8],rdx
    136a:	48 89 4c 24 48       	mov    QWORD PTR [rsp+0x48],rcx
    136f:	48 29 c8             	sub    rax,rcx
    1372:	48 89 c6             	mov    rsi,rax
    1375:	48 c1 fe 02          	sar    rsi,0x2
    1379:	48 85 f6             	test   rsi,rsi
    137c:	48 89 74 24 28       	mov    QWORD PTR [rsp+0x28],rsi
    1381:	0f 84 b3 05 00 00    	je     193a <_ZN3XGK4MATH4UTIL35makeCatmullRomSpline3PointsClosed3DEPSt6vectorIfSaIfEES5_mf+0x5fa>
    1387:	66 0f ef c9          	pxor   xmm1,xmm1
    138b:	48 85 d2             	test   rdx,rdx
    138e:	49 89 fe             	mov    r14,rdi
    1391:	f3 48 0f 2a ca       	cvtsi2ss xmm1,rdx
    1396:	79 1e                	jns    13b6 <_ZN3XGK4MATH4UTIL35makeCatmullRomSpline3PointsClosed3DEPSt6vectorIfSaIfEES5_mf+0x76>
    1398:	48 89 d3             	mov    rbx,rdx
    139b:	66 0f ef c9          	pxor   xmm1,xmm1
    139f:	48 d1 ea             	shr    rdx,1
    13a2:	83 e3 01             	and    ebx,0x1
    13a5:	48 8b 74 24 28       	mov    rsi,QWORD PTR [rsp+0x28]
    13aa:	48 09 da             	or     rdx,rbx
    13ad:	f3 48 0f 2a ca       	cvtsi2ss xmm1,rdx
    13b2:	f3 0f 58 c9          	addss  xmm1,xmm1
    13b6:	f3 0f 10 3d 00 00 00 	movss  xmm7,DWORD PTR [rip+0x0]        # 13be <_ZN3XGK4MATH4UTIL35makeCatmullRomSpline3PointsClosed3DEPSt6vectorIfSaIfEES5_mf+0x7e>
    13bd:	00 
    13be:	0f 28 f0             	movaps xmm6,xmm0
    13c1:	f3 0f 5e f9          	divss  xmm7,xmm1
    13c5:	48 8b 6c 24 48       	mov    rbp,QWORD PTR [rsp+0x48]
    13ca:	48 8d 7e ff          	lea    rdi,[rsi-0x1]
    13ce:	48 f7 de             	neg    rsi
    13d1:	48 c7 44 24 10 00 00 	mov    QWORD PTR [rsp+0x10],0x0
    13d8:	00 00 
    13da:	4c 8b 7c 24 10       	mov    r15,QWORD PTR [rsp+0x10]
    13df:	4c 8d 04 b5 00 00 00 	lea    r8,[rsi*4+0x0]
    13e6:	00 
    13e7:	48 89 7c 24 30       	mov    QWORD PTR [rsp+0x30],rdi
    13ec:	4c 8d 4c 05 fc       	lea    r9,[rbp+rax*1-0x4]
    13f1:	4c 8d 6d fc          	lea    r13,[rbp-0x4]
    13f5:	4c 89 44 24 40       	mov    QWORD PTR [rsp+0x40],r8
    13fa:	4c 89 4c 24 38       	mov    QWORD PTR [rsp+0x38],r9
    13ff:	0f 57 35 00 00 00 00 	xorps  xmm6,XMMWORD PTR [rip+0x0]        # 1406 <_ZN3XGK4MATH4UTIL35makeCatmullRomSpline3PointsClosed3DEPSt6vectorIfSaIfEES5_mf+0xc6>
    1406:	f3 0f 11 7c 24 20    	movss  DWORD PTR [rsp+0x20],xmm7
    140c:	0f 1f 40 00          	nop    DWORD PTR [rax+0x0]
    1410:	48 8b 6c 24 38       	mov    rbp,QWORD PTR [rsp+0x38]
    1415:	4d 85 ff             	test   r15,r15
    1418:	49 0f 45 ed          	cmovne rbp,r13
    141c:	4c 3b 7c 24 30       	cmp    r15,QWORD PTR [rsp+0x30]
    1421:	0f 82 32 05 00 00    	jb     1959 <_ZN3XGK4MATH4UTIL35makeCatmullRomSpline3PointsClosed3DEPSt6vectorIfSaIfEES5_mf+0x619>
    1427:	4c 8b 54 24 40       	mov    r10,QWORD PTR [rsp+0x40]
    142c:	4f 8d 5c 15 0c       	lea    r11,[r13+r10*1+0xc]
    1431:	48 83 7c 24 08 00    	cmp    QWORD PTR [rsp+0x8],0x0
    1437:	0f 84 e3 04 00 00    	je     1920 <_ZN3XGK4MATH4UTIL35makeCatmullRomSpline3PointsClosed3DEPSt6vectorIfSaIfEES5_mf+0x5e0>
    143d:	48 8d 44 24 50       	lea    rax,[rsp+0x50]
    1442:	45 31 ff             	xor    r15d,r15d
    1445:	4d 89 dc             	mov    r12,r11
    1448:	f2 0f 10 3d 00 00 00 	movsd  xmm7,QWORD PTR [rip+0x0]        # 1450 <_ZN3XGK4MATH4UTIL35makeCatmullRomSpline3PointsClosed3DEPSt6vectorIfSaIfEES5_mf+0x110>
    144f:	00 
    1450:	48 89 c3             	mov    rbx,rax
    1453:	e9 8d 00 00 00       	jmp    14e5 <_ZN3XGK4MATH4UTIL35makeCatmullRomSpline3PointsClosed3DEPSt6vectorIfSaIfEES5_mf+0x1a5>
    1458:	0f 1f 84 00 00 00 00 	nop    DWORD PTR [rax+rax*1+0x0]
    145f:	00 
    1460:	4d 85 d2             	test   r10,r10
    1463:	74 05                	je     146a <_ZN3XGK4MATH4UTIL35makeCatmullRomSpline3PointsClosed3DEPSt6vectorIfSaIfEES5_mf+0x12a>
    1465:	f3 41 0f 11 0a       	movss  DWORD PTR [r10],xmm1
    146a:	49 83 c2 04          	add    r10,0x4
    146e:	49 39 f2             	cmp    r10,rsi
    1471:	4d 89 56 08          	mov    QWORD PTR [r14+0x8],r10
    1475:	0f 84 dd 03 00 00    	je     1858 <_ZN3XGK4MATH4UTIL35makeCatmullRomSpline3PointsClosed3DEPSt6vectorIfSaIfEES5_mf+0x518>
    147b:	4d 85 d2             	test   r10,r10
    147e:	74 0c                	je     148c <_ZN3XGK4MATH4UTIL35makeCatmullRomSpline3PointsClosed3DEPSt6vectorIfSaIfEES5_mf+0x14c>
    1480:	f3 44 0f 10 6c 24 54 	movss  xmm13,DWORD PTR [rsp+0x54]
    1487:	f3 45 0f 11 2a       	movss  DWORD PTR [r10],xmm13
    148c:	49 83 c2 04          	add    r10,0x4
    1490:	49 39 f2             	cmp    r10,rsi
    1493:	4d 89 56 08          	mov    QWORD PTR [r14+0x8],r10
    1497:	0f 84 03 04 00 00    	je     18a0 <_ZN3XGK4MATH4UTIL35makeCatmullRomSpline3PointsClosed3DEPSt6vectorIfSaIfEES5_mf+0x560>
    149d:	4d 85 d2             	test   r10,r10
    14a0:	74 0b                	je     14ad <_ZN3XGK4MATH4UTIL35makeCatmullRomSpline3PointsClosed3DEPSt6vectorIfSaIfEES5_mf+0x16d>
    14a2:	f3 0f 10 54 24 58    	movss  xmm2,DWORD PTR [rsp+0x58]
    14a8:	f3 41 0f 11 12       	movss  DWORD PTR [r10],xmm2
    14ad:	49 83 c2 04          	add    r10,0x4
    14b1:	49 39 f2             	cmp    r10,rsi
    14b4:	4d 89 56 08          	mov    QWORD PTR [r14+0x8],r10
    14b8:	0f 84 22 04 00 00    	je     18e0 <_ZN3XGK4MATH4UTIL35makeCatmullRomSpline3PointsClosed3DEPSt6vectorIfSaIfEES5_mf+0x5a0>
    14be:	4d 85 d2             	test   r10,r10
    14c1:	74 0b                	je     14ce <_ZN3XGK4MATH4UTIL35makeCatmullRomSpline3PointsClosed3DEPSt6vectorIfSaIfEES5_mf+0x18e>
    14c3:	f3 0f 10 4c 24 5c    	movss  xmm1,DWORD PTR [rsp+0x5c]
    14c9:	f3 41 0f 11 0a       	movss  DWORD PTR [r10],xmm1
    14ce:	49 83 c2 04          	add    r10,0x4
    14d2:	49 83 c7 01          	add    r15,0x1
    14d6:	4c 39 7c 24 08       	cmp    QWORD PTR [rsp+0x8],r15
    14db:	4d 89 56 08          	mov    QWORD PTR [r14+0x8],r10
    14df:	0f 84 3b 04 00 00    	je     1920 <_ZN3XGK4MATH4UTIL35makeCatmullRomSpline3PointsClosed3DEPSt6vectorIfSaIfEES5_mf+0x5e0>
    14e5:	f3 45 0f 10 4d 0c    	movss  xmm9,DWORD PTR [r13+0xc]
    14eb:	41 0f 28 d9          	movaps xmm3,xmm9
    14ef:	f3 45 0f 10 45 08    	movss  xmm8,DWORD PTR [r13+0x8]
    14f5:	f3 45 0f 10 55 14    	movss  xmm10,DWORD PTR [r13+0x14]
    14fb:	f3 0f 5c 5d 04       	subss  xmm3,DWORD PTR [rbp+0x4]
    1500:	f3 45 0f 10 6d 10    	movss  xmm13,DWORD PTR [r13+0x10]
    1506:	41 0f 28 ea          	movaps xmm5,xmm10
    150a:	41 0f 28 d5          	movaps xmm2,xmm13
    150e:	41 0f 28 e0          	movaps xmm4,xmm8
    1512:	f3 45 0f 10 65 04    	movss  xmm12,DWORD PTR [r13+0x4]
    1518:	f3 0f 5c 6d 0c       	subss  xmm5,DWORD PTR [rbp+0xc]
    151d:	f3 0f 5c 55 08       	subss  xmm2,DWORD PTR [rbp+0x8]
    1522:	f3 45 0f 10 74 24 04 	movss  xmm14,DWORD PTR [r12+0x4]
    1529:	f3 0f 5c 65 00       	subss  xmm4,DWORD PTR [rbp+0x0]
    152e:	f3 45 0f 10 5c 24 0c 	movss  xmm11,DWORD PTR [r12+0xc]
    1535:	f3 0f 59 d8          	mulss  xmm3,xmm0
    1539:	f3 45 0f 5c dd       	subss  xmm11,xmm13
    153e:	f3 45 0f 5c f0       	subss  xmm14,xmm8
    1543:	f3 45 0f 10 7c 24 08 	movss  xmm15,DWORD PTR [r12+0x8]
    154a:	f3 45 0f 5c f9       	subss  xmm15,xmm9
    154f:	f3 0f 59 e8          	mulss  xmm5,xmm0
    1553:	f3 41 0f 58 d8       	addss  xmm3,xmm8
    1558:	f3 44 0f 59 de       	mulss  xmm11,xmm6
    155d:	f3 44 0f 59 f6       	mulss  xmm14,xmm6
    1562:	f3 0f 59 d0          	mulss  xmm2,xmm0
    1566:	f3 0f 59 e0          	mulss  xmm4,xmm0
    156a:	f3 41 0f 58 ed       	addss  xmm5,xmm13
    156f:	66 48 0f 7e da       	movq   rdx,xmm3
    1574:	f3 41 0f 10 1c 24    	movss  xmm3,DWORD PTR [r12]
    157a:	f3 41 0f 5c dc       	subss  xmm3,xmm12
    157f:	f3 44 0f 59 fe       	mulss  xmm15,xmm6
    1584:	f3 45 0f 58 f1       	addss  xmm14,xmm9
    1589:	48 c1 e2 20          	shl    rdx,0x20
    158d:	f3 45 0f 58 d3       	addss  xmm10,xmm11
    1592:	66 48 0f 7e ef       	movq   rdi,xmm5
    1597:	f3 41 0f 58 e4       	addss  xmm4,xmm12
    159c:	f3 0f 59 de          	mulss  xmm3,xmm6
    15a0:	f3 45 0f 58 ef       	addss  xmm13,xmm15
    15a5:	48 c1 e7 20          	shl    rdi,0x20
    15a9:	f3 41 0f 58 d1       	addss  xmm2,xmm9
    15ae:	66 4d 0f 7e f0       	movq   r8,xmm14
    15b3:	66 4d 0f 7e d1       	movq   r9,xmm10
    15b8:	66 0f 7e e1          	movd   ecx,xmm4
    15bc:	49 c1 e0 20          	shl    r8,0x20
    15c0:	0f 28 cb             	movaps xmm1,xmm3
    15c3:	66 45 0f 7e eb       	movd   r11d,xmm13
    15c8:	66 0f 7e d6          	movd   esi,xmm2
    15cc:	49 c1 e1 20          	shl    r9,0x20
    15d0:	f3 41 0f 58 c8       	addss  xmm1,xmm8
    15d5:	66 45 0f ef ed       	pxor   xmm13,xmm13
    15da:	48 09 d1             	or     rcx,rdx
    15dd:	48 09 fe             	or     rsi,rdi
    15e0:	4d 09 cb             	or     r11,r9
    15e3:	f3 4d 0f 2a ef       	cvtsi2ss xmm13,r15
    15e8:	66 41 0f 7e ca       	movd   r10d,xmm1
    15ed:	4d 09 c2             	or     r10,r8
    15f0:	4d 85 ff             	test   r15,r15
    15f3:	79 1e                	jns    1613 <_ZN3XGK4MATH4UTIL35makeCatmullRomSpline3PointsClosed3DEPSt6vectorIfSaIfEES5_mf+0x2d3>
    15f5:	4c 89 f8             	mov    rax,r15
    15f8:	4c 89 fa             	mov    rdx,r15
    15fb:	66 45 0f ef ed       	pxor   xmm13,xmm13
    1600:	48 d1 e8             	shr    rax,1
    1603:	83 e2 01             	and    edx,0x1
    1606:	48 09 d0             	or     rax,rdx
    1609:	f3 4c 0f 2a e8       	cvtsi2ss xmm13,rax
    160e:	f3 45 0f 58 ed       	addss  xmm13,xmm13
    1613:	f3 44 0f 59 6c 24 20 	mulss  xmm13,DWORD PTR [rsp+0x20]
    161a:	f3 44 0f 10 15 00 00 	movss  xmm10,DWORD PTR [rip+0x0]        # 1623 <_ZN3XGK4MATH4UTIL35makeCatmullRomSpline3PointsClosed3DEPSt6vectorIfSaIfEES5_mf+0x2e3>
    1621:	00 00 
    1623:	66 0f ef ed          	pxor   xmm5,xmm5
    1627:	89 0c 24             	mov    DWORD PTR [rsp],ecx
    162a:	66 45 0f ef f6       	pxor   xmm14,xmm14
    162f:	66 0f 6e 0c 24       	movd   xmm1,DWORD PTR [rsp]
    1634:	66 45 0f ef ff       	pxor   xmm15,xmm15
    1639:	44 89 14 24          	mov    DWORD PTR [rsp],r10d
    163d:	66 45 0f ef e4       	pxor   xmm12,xmm12
    1642:	48 c1 e9 20          	shr    rcx,0x20
    1646:	66 0f ef e4          	pxor   xmm4,xmm4
    164a:	49 c1 ea 20          	shr    r10,0x20
    164e:	f3 45 0f 5c d5       	subss  xmm10,xmm13
    1653:	45 0f 28 c5          	movaps xmm8,xmm13
    1657:	f3 41 0f 5a ed       	cvtss2sd xmm5,xmm13
    165c:	66 0f ef db          	pxor   xmm3,xmm3
    1660:	f3 45 0f 59 c5       	mulss  xmm8,xmm13
    1665:	f2 0f 59 ef          	mulsd  xmm5,xmm7
    1669:	45 0f 28 ca          	movaps xmm9,xmm10
    166d:	f3 45 0f 5a fa       	cvtss2sd xmm15,xmm10
    1672:	66 45 0f ef db       	pxor   xmm11,xmm11
    1677:	41 0f 28 d2          	movaps xmm2,xmm10
    167b:	f3 45 0f 59 ca       	mulss  xmm9,xmm10
    1680:	f3 45 0f 5a f0       	cvtss2sd xmm14,xmm8
    1685:	66 44 0f 6e 14 24    	movd   xmm10,DWORD PTR [rsp]
    168b:	48 89 0c 24          	mov    QWORD PTR [rsp],rcx
    168f:	f3 45 0f 59 e8       	mulss  xmm13,xmm8
    1694:	f2 45 0f 59 f7       	mulsd  xmm14,xmm15
    1699:	44 0f 29 1b          	movaps XMMWORD PTR [rbx],xmm11
    169d:	4d 8b 45 04          	mov    r8,QWORD PTR [r13+0x4]
    16a1:	49 8b 7d 0c          	mov    rdi,QWORD PTR [r13+0xc]
    16a5:	f3 41 0f 59 d1       	mulss  xmm2,xmm9
    16aa:	f3 45 0f 5a e1       	cvtss2sd xmm12,xmm9
    16af:	f2 44 0f 59 f7       	mulsd  xmm14,xmm7
    16b4:	f2 44 0f 59 e5       	mulsd  xmm12,xmm5
    16b9:	49 c1 e8 20          	shr    r8,0x20
    16bd:	f3 45 0f 10 4d 04    	movss  xmm9,DWORD PTR [r13+0x4]
    16c3:	f3 44 0f 59 ca       	mulss  xmm9,xmm2
    16c8:	f2 41 0f 5a de       	cvtsd2ss xmm3,xmm14
    16cd:	f2 41 0f 5a e4       	cvtsd2ss xmm4,xmm12
    16d2:	f3 44 0f 10 24 24    	movss  xmm12,DWORD PTR [rsp]
    16d8:	4c 89 14 24          	mov    QWORD PTR [rsp],r10
    16dc:	f3 44 0f 10 04 24    	movss  xmm8,DWORD PTR [rsp]
    16e2:	4c 89 04 24          	mov    QWORD PTR [rsp],r8
    16e6:	f3 0f 10 2c 24       	movss  xmm5,DWORD PTR [rsp]
    16eb:	89 34 24             	mov    DWORD PTR [rsp],esi
    16ee:	66 44 0f 6e 1c 24    	movd   xmm11,DWORD PTR [rsp]
    16f4:	44 89 1c 24          	mov    DWORD PTR [rsp],r11d
    16f8:	48 c1 ee 20          	shr    rsi,0x20
    16fc:	66 44 0f 6e 34 24    	movd   xmm14,DWORD PTR [rsp]
    1702:	89 3c 24             	mov    DWORD PTR [rsp],edi
    1705:	49 c1 eb 20          	shr    r11,0x20
    1709:	48 c1 ef 20          	shr    rdi,0x20
    170d:	f3 0f 59 ea          	mulss  xmm5,xmm2
    1711:	f3 44 0f 59 c3       	mulss  xmm8,xmm3
    1716:	f3 44 0f 59 d3       	mulss  xmm10,xmm3
    171b:	f3 44 0f 59 f3       	mulss  xmm14,xmm3
    1720:	f3 44 0f 59 e4       	mulss  xmm12,xmm4
    1725:	f3 0f 59 cc          	mulss  xmm1,xmm4
    1729:	f3 45 0f 58 e0       	addss  xmm12,xmm8
    172e:	45 0f 28 c3          	movaps xmm8,xmm11
    1732:	f3 41 0f 58 ca       	addss  xmm1,xmm10
    1737:	66 44 0f 6e 14 24    	movd   xmm10,DWORD PTR [rsp]
    173d:	48 89 34 24          	mov    QWORD PTR [rsp],rsi
    1741:	f3 44 0f 59 c4       	mulss  xmm8,xmm4
    1746:	f3 0f 59 24 24       	mulss  xmm4,DWORD PTR [rsp]
    174b:	4c 89 1c 24          	mov    QWORD PTR [rsp],r11
    174f:	f3 0f 59 1c 24       	mulss  xmm3,DWORD PTR [rsp]
    1754:	48 89 3c 24          	mov    QWORD PTR [rsp],rdi
    1758:	f3 44 0f 58 e5       	addss  xmm12,xmm5
    175d:	f3 44 0f 59 d2       	mulss  xmm10,xmm2
    1762:	f3 41 0f 58 c9       	addss  xmm1,xmm9
    1767:	f3 0f 59 14 24       	mulss  xmm2,DWORD PTR [rsp]
    176c:	f3 45 0f 58 c6       	addss  xmm8,xmm14
    1771:	f3 44 0f 11 64 24 54 	movss  DWORD PTR [rsp+0x54],xmm12
    1778:	f3 0f 11 4c 24 50    	movss  DWORD PTR [rsp+0x50],xmm1
    177e:	f3 0f 58 dc          	addss  xmm3,xmm4
    1782:	f3 45 0f 58 d0       	addss  xmm10,xmm8
    1787:	f3 0f 58 d3          	addss  xmm2,xmm3
    178b:	f3 44 0f 11 54 24 58 	movss  DWORD PTR [rsp+0x58],xmm10
    1792:	f3 0f 11 54 24 5c    	movss  DWORD PTR [rsp+0x5c],xmm2
    1798:	49 8b 4d 10          	mov    rcx,QWORD PTR [r13+0x10]
    179c:	49 8b 75 08          	mov    rsi,QWORD PTR [r13+0x8]
    17a0:	f3 41 0f 10 65 08    	movss  xmm4,DWORD PTR [r13+0x8]
    17a6:	4d 8b 56 08          	mov    r10,QWORD PTR [r14+0x8]
    17aa:	f3 41 0f 59 e5       	mulss  xmm4,xmm13
    17af:	48 c1 ee 20          	shr    rsi,0x20
    17b3:	48 89 34 24          	mov    QWORD PTR [rsp],rsi
    17b7:	49 8b 76 10          	mov    rsi,QWORD PTR [r14+0x10]
    17bb:	f3 0f 10 1c 24       	movss  xmm3,DWORD PTR [rsp]
    17c0:	89 0c 24             	mov    DWORD PTR [rsp],ecx
    17c3:	48 c1 e9 20          	shr    rcx,0x20
    17c7:	66 44 0f 6e 0c 24    	movd   xmm9,DWORD PTR [rsp]
    17cd:	48 89 0c 24          	mov    QWORD PTR [rsp],rcx
    17d1:	f3 41 0f 59 dd       	mulss  xmm3,xmm13
    17d6:	f3 0f 58 cc          	addss  xmm1,xmm4
    17da:	49 39 f2             	cmp    r10,rsi
    17dd:	f3 45 0f 59 cd       	mulss  xmm9,xmm13
    17e2:	f3 44 0f 59 2c 24    	mulss  xmm13,DWORD PTR [rsp]
    17e8:	f3 44 0f 58 e3       	addss  xmm12,xmm3
    17ed:	f3 0f 11 4c 24 50    	movss  DWORD PTR [rsp+0x50],xmm1
    17f3:	f3 45 0f 58 d1       	addss  xmm10,xmm9
    17f8:	f3 44 0f 11 64 24 54 	movss  DWORD PTR [rsp+0x54],xmm12
    17ff:	f3 41 0f 58 d5       	addss  xmm2,xmm13
    1804:	f3 44 0f 11 54 24 58 	movss  DWORD PTR [rsp+0x58],xmm10
    180b:	f3 0f 11 54 24 5c    	movss  DWORD PTR [rsp+0x5c],xmm2
    1811:	0f 85 49 fc ff ff    	jne    1460 <_ZN3XGK4MATH4UTIL35makeCatmullRomSpline3PointsClosed3DEPSt6vectorIfSaIfEES5_mf+0x120>
    1817:	48 89 da             	mov    rdx,rbx
    181a:	4c 89 f7             	mov    rdi,r14
    181d:	f3 0f 11 74 24 24    	movss  DWORD PTR [rsp+0x24],xmm6
    1823:	f2 0f 11 7c 24 18    	movsd  QWORD PTR [rsp+0x18],xmm7
    1829:	f3 0f 11 04 24       	movss  DWORD PTR [rsp],xmm0
    182e:	e8 00 00 00 00       	call   1833 <_ZN3XGK4MATH4UTIL35makeCatmullRomSpline3PointsClosed3DEPSt6vectorIfSaIfEES5_mf+0x4f3>
    1833:	4d 8b 56 08          	mov    r10,QWORD PTR [r14+0x8]
    1837:	49 8b 76 10          	mov    rsi,QWORD PTR [r14+0x10]
    183b:	f3 0f 10 74 24 24    	movss  xmm6,DWORD PTR [rsp+0x24]
    1841:	f2 0f 10 7c 24 18    	movsd  xmm7,QWORD PTR [rsp+0x18]
    1847:	f3 0f 10 04 24       	movss  xmm0,DWORD PTR [rsp]
    184c:	49 39 f2             	cmp    r10,rsi
    184f:	0f 85 26 fc ff ff    	jne    147b <_ZN3XGK4MATH4UTIL35makeCatmullRomSpline3PointsClosed3DEPSt6vectorIfSaIfEES5_mf+0x13b>
    1855:	0f 1f 00             	nop    DWORD PTR [rax]
    1858:	48 8d 53 04          	lea    rdx,[rbx+0x4]
    185c:	4c 89 f7             	mov    rdi,r14
    185f:	f3 0f 11 74 24 24    	movss  DWORD PTR [rsp+0x24],xmm6
    1865:	f2 0f 11 7c 24 18    	movsd  QWORD PTR [rsp+0x18],xmm7
    186b:	f3 0f 11 04 24       	movss  DWORD PTR [rsp],xmm0
    1870:	e8 00 00 00 00       	call   1875 <_ZN3XGK4MATH4UTIL35makeCatmullRomSpline3PointsClosed3DEPSt6vectorIfSaIfEES5_mf+0x535>
    1875:	4d 8b 56 08          	mov    r10,QWORD PTR [r14+0x8]
    1879:	49 8b 76 10          	mov    rsi,QWORD PTR [r14+0x10]
    187d:	f3 0f 10 74 24 24    	movss  xmm6,DWORD PTR [rsp+0x24]
    1883:	f2 0f 10 7c 24 18    	movsd  xmm7,QWORD PTR [rsp+0x18]
    1889:	f3 0f 10 04 24       	movss  xmm0,DWORD PTR [rsp]
    188e:	49 39 f2             	cmp    r10,rsi
    1891:	0f 85 06 fc ff ff    	jne    149d <_ZN3XGK4MATH4UTIL35makeCatmullRomSpline3PointsClosed3DEPSt6vectorIfSaIfEES5_mf+0x15d>
    1897:	66 0f 1f 84 00 00 00 	nop    WORD PTR [rax+rax*1+0x0]
    189e:	00 00 
    18a0:	48 8d 53 08          	lea    rdx,[rbx+0x8]
    18a4:	4c 89 f7             	mov    rdi,r14
    18a7:	f3 0f 11 74 24 24    	movss  DWORD PTR [rsp+0x24],xmm6
    18ad:	f2 0f 11 7c 24 18    	movsd  QWORD PTR [rsp+0x18],xmm7
    18b3:	f3 0f 11 04 24       	movss  DWORD PTR [rsp],xmm0
    18b8:	e8 00 00 00 00       	call   18bd <_ZN3XGK4MATH4UTIL35makeCatmullRomSpline3PointsClosed3DEPSt6vectorIfSaIfEES5_mf+0x57d>
    18bd:	4d 8b 56 08          	mov    r10,QWORD PTR [r14+0x8]
    18c1:	49 8b 76 10          	mov    rsi,QWORD PTR [r14+0x10]
    18c5:	f3 0f 10 74 24 24    	movss  xmm6,DWORD PTR [rsp+0x24]
    18cb:	f2 0f 10 7c 24 18    	movsd  xmm7,QWORD PTR [rsp+0x18]
    18d1:	f3 0f 10 04 24       	movss  xmm0,DWORD PTR [rsp]
    18d6:	49 39 f2             	cmp    r10,rsi
    18d9:	0f 85 df fb ff ff    	jne    14be <_ZN3XGK4MATH4UTIL35makeCatmullRomSpline3PointsClosed3DEPSt6vectorIfSaIfEES5_mf+0x17e>
    18df:	90                   	nop
    18e0:	48 8d 53 0c          	lea    rdx,[rbx+0xc]
    18e4:	4c 89 d6             	mov    rsi,r10
    18e7:	4c 89 f7             	mov    rdi,r14
    18ea:	f3 0f 11 74 24 24    	movss  DWORD PTR [rsp+0x24],xmm6
    18f0:	49 83 c7 01          	add    r15,0x1
    18f4:	f2 0f 11 7c 24 18    	movsd  QWORD PTR [rsp+0x18],xmm7
    18fa:	f3 0f 11 04 24       	movss  DWORD PTR [rsp],xmm0
    18ff:	e8 00 00 00 00       	call   1904 <_ZN3XGK4MATH4UTIL35makeCatmullRomSpline3PointsClosed3DEPSt6vectorIfSaIfEES5_mf+0x5c4>
    1904:	4c 39 7c 24 08       	cmp    QWORD PTR [rsp+0x8],r15
    1909:	f3 0f 10 74 24 24    	movss  xmm6,DWORD PTR [rsp+0x24]
    190f:	f2 0f 10 7c 24 18    	movsd  xmm7,QWORD PTR [rsp+0x18]
    1915:	f3 0f 10 04 24       	movss  xmm0,DWORD PTR [rsp]
    191a:	0f 85 c5 fb ff ff    	jne    14e5 <_ZN3XGK4MATH4UTIL35makeCatmullRomSpline3PointsClosed3DEPSt6vectorIfSaIfEES5_mf+0x1a5>
    1920:	48 83 44 24 10 01    	add    QWORD PTR [rsp+0x10],0x1
    1926:	49 83 c5 04          	add    r13,0x4
    192a:	4c 8b 7c 24 10       	mov    r15,QWORD PTR [rsp+0x10]
    192f:	4c 3b 7c 24 28       	cmp    r15,QWORD PTR [rsp+0x28]
    1934:	0f 85 d6 fa ff ff    	jne    1410 <_ZN3XGK4MATH4UTIL35makeCatmullRomSpline3PointsClosed3DEPSt6vectorIfSaIfEES5_mf+0xd0>
    193a:	48 8b 44 24 68       	mov    rax,QWORD PTR [rsp+0x68]
    193f:	64 48 33 04 25 28 00 	xor    rax,QWORD PTR fs:0x28
    1946:	00 00 
    1948:	75 21                	jne    196b <_ZN3XGK4MATH4UTIL35makeCatmullRomSpline3PointsClosed3DEPSt6vectorIfSaIfEES5_mf+0x62b>
    194a:	48 83 c4 78          	add    rsp,0x78
    194e:	5b                   	pop    rbx
    194f:	5d                   	pop    rbp
    1950:	41 5c                	pop    r12
    1952:	41 5d                	pop    r13
    1954:	41 5e                	pop    r14
    1956:	41 5f                	pop    r15
    1958:	c3                   	ret    
    1959:	4d 89 fc             	mov    r12,r15
    195c:	4c 8b 7c 24 48       	mov    r15,QWORD PTR [rsp+0x48]
    1961:	4f 8d 5c a7 08       	lea    r11,[r15+r12*4+0x8]
    1966:	e9 c6 fa ff ff       	jmp    1431 <_ZN3XGK4MATH4UTIL35makeCatmullRomSpline3PointsClosed3DEPSt6vectorIfSaIfEES5_mf+0xf1>
    196b:	e8 00 00 00 00       	call   1970 <_ZN3XGK4MATH4UTIL29makeCatmullRomSpline3Points3DEPSt6vectorIfSaIfEES5_mf>

0000000000001970 <_ZN3XGK4MATH4UTIL29makeCatmullRomSpline3Points3DEPSt6vectorIfSaIfEES5_mf>:
    1970:	41 57                	push   r15
    1972:	41 56                	push   r14
    1974:	41 55                	push   r13
    1976:	41 54                	push   r12
    1978:	55                   	push   rbp
    1979:	53                   	push   rbx
    197a:	48 81 ec 88 00 00 00 	sub    rsp,0x88
    1981:	48 8b 0e             	mov    rcx,QWORD PTR [rsi]
    1984:	48 8b 76 08          	mov    rsi,QWORD PTR [rsi+0x8]
    1988:	64 48 8b 04 25 28 00 	mov    rax,QWORD PTR fs:0x28
    198f:	00 00 
    1991:	48 89 44 24 78       	mov    QWORD PTR [rsp+0x78],rax
    1996:	31 c0                	xor    eax,eax
    1998:	48 89 54 24 08       	mov    QWORD PTR [rsp+0x8],rdx
    199d:	48 29 ce             	sub    rsi,rcx
    19a0:	48 89 4c 24 50       	mov    QWORD PTR [rsp+0x50],rcx
    19a5:	48 89 74 24 58       	mov    QWORD PTR [rsp+0x58],rsi
    19aa:	48 c1 fe 02          	sar    rsi,0x2
    19ae:	48 85 f6             	test   rsi,rsi
    19b1:	48 89 74 24 18       	mov    QWORD PTR [rsp+0x18],rsi
    19b6:	0f 84 fa 05 00 00    	je     1fb6 <_ZN3XGK4MATH4UTIL29makeCatmullRomSpline3Points3DEPSt6vectorIfSaIfEES5_mf+0x646>
    19bc:	66 0f ef c9          	pxor   xmm1,xmm1
    19c0:	48 85 d2             	test   rdx,rdx
    19c3:	49 89 fd             	mov    r13,rdi
    19c6:	f3 48 0f 2a ca       	cvtsi2ss xmm1,rdx
    19cb:	79 1e                	jns    19eb <_ZN3XGK4MATH4UTIL29makeCatmullRomSpline3Points3DEPSt6vectorIfSaIfEES5_mf+0x7b>
    19cd:	48 89 d0             	mov    rax,rdx
    19d0:	66 0f ef c9          	pxor   xmm1,xmm1
    19d4:	48 d1 e8             	shr    rax,1
    19d7:	83 e2 01             	and    edx,0x1
    19da:	48 8b 74 24 18       	mov    rsi,QWORD PTR [rsp+0x18]
    19df:	48 09 d0             	or     rax,rdx
    19e2:	f3 48 0f 2a c8       	cvtsi2ss xmm1,rax
    19e7:	f3 0f 58 c9          	addss  xmm1,xmm1
    19eb:	f3 0f 10 3d 00 00 00 	movss  xmm7,DWORD PTR [rip+0x0]        # 19f3 <_ZN3XGK4MATH4UTIL29makeCatmullRomSpline3Points3DEPSt6vectorIfSaIfEES5_mf+0x83>
    19f2:	00 
    19f3:	48 8b 6c 24 50       	mov    rbp,QWORD PTR [rsp+0x50]
    19f8:	48 8d 7e ff          	lea    rdi,[rsi-0x1]
    19fc:	f3 0f 5e f9          	divss  xmm7,xmm1
    1a00:	48 f7 de             	neg    rsi
    1a03:	45 31 f6             	xor    r14d,r14d
    1a06:	48 c1 e6 02          	shl    rsi,0x2
    1a0a:	48 89 7c 24 40       	mov    QWORD PTR [rsp+0x40],rdi
    1a0f:	48 8d 5d fc          	lea    rbx,[rbp-0x4]
    1a13:	48 89 74 24 48       	mov    QWORD PTR [rsp+0x48],rsi
    1a18:	f2 44 0f 10 05 00 00 	movsd  xmm8,QWORD PTR [rip+0x0]        # 1a21 <_ZN3XGK4MATH4UTIL29makeCatmullRomSpline3Points3DEPSt6vectorIfSaIfEES5_mf+0xb1>
    1a1f:	00 00 
    1a21:	f3 0f 11 7c 24 20    	movss  DWORD PTR [rsp+0x20],xmm7
    1a27:	0f 28 f8             	movaps xmm7,xmm0
    1a2a:	0f 57 3d 00 00 00 00 	xorps  xmm7,XMMWORD PTR [rip+0x0]        # 1a31 <_ZN3XGK4MATH4UTIL29makeCatmullRomSpline3Points3DEPSt6vectorIfSaIfEES5_mf+0xc1>
    1a31:	0f 1f 80 00 00 00 00 	nop    DWORD PTR [rax+0x0]
    1a38:	4d 85 f6             	test   r14,r14
    1a3b:	0f 84 11 08 00 00    	je     2252 <_ZN3XGK4MATH4UTIL29makeCatmullRomSpline3Points3DEPSt6vectorIfSaIfEES5_mf+0x8e2>
    1a41:	49 89 dc             	mov    r12,rbx
    1a44:	4c 3b 74 24 40       	cmp    r14,QWORD PTR [rsp+0x40]
    1a49:	0f 82 f4 07 00 00    	jb     2243 <_ZN3XGK4MATH4UTIL29makeCatmullRomSpline3Points3DEPSt6vectorIfSaIfEES5_mf+0x8d3>
    1a4f:	4c 8b 54 24 48       	mov    r10,QWORD PTR [rsp+0x48]
    1a54:	4e 8d 5c 13 0c       	lea    r11,[rbx+r10*1+0xc]
    1a59:	48 83 7c 24 08 00    	cmp    QWORD PTR [rsp+0x8],0x0
    1a5f:	0f 84 3e 05 00 00    	je     1fa3 <_ZN3XGK4MATH4UTIL29makeCatmullRomSpline3Points3DEPSt6vectorIfSaIfEES5_mf+0x633>
    1a65:	48 8b 4c 24 18       	mov    rcx,QWORD PTR [rsp+0x18]
    1a6a:	48 8d 54 24 64       	lea    rdx,[rsp+0x64]
    1a6f:	4c 89 f0             	mov    rax,r14
    1a72:	45 31 ff             	xor    r15d,r15d
    1a75:	4d 89 e6             	mov    r14,r12
    1a78:	4c 8d 4c 24 60       	lea    r9,[rsp+0x60]
    1a7d:	48 89 54 24 38       	mov    QWORD PTR [rsp+0x38],rdx
    1a82:	4c 89 dd             	mov    rbp,r11
    1a85:	49 89 c4             	mov    r12,rax
    1a88:	48 83 e9 02          	sub    rcx,0x2
    1a8c:	48 89 4c 24 10       	mov    QWORD PTR [rsp+0x10],rcx
    1a91:	e9 90 00 00 00       	jmp    1b26 <_ZN3XGK4MATH4UTIL29makeCatmullRomSpline3Points3DEPSt6vectorIfSaIfEES5_mf+0x1b6>
    1a96:	66 2e 0f 1f 84 00 00 	nop    WORD PTR cs:[rax+rax*1+0x0]
    1a9d:	00 00 00 
    1aa0:	4d 85 db             	test   r11,r11
    1aa3:	74 05                	je     1aaa <_ZN3XGK4MATH4UTIL29makeCatmullRomSpline3Points3DEPSt6vectorIfSaIfEES5_mf+0x13a>
    1aa5:	f3 45 0f 11 0b       	movss  DWORD PTR [r11],xmm9
    1aaa:	49 83 c3 04          	add    r11,0x4
    1aae:	49 39 f3             	cmp    r11,rsi
    1ab1:	4d 89 5d 08          	mov    QWORD PTR [r13+0x8],r11
    1ab5:	0f 84 f5 03 00 00    	je     1eb0 <_ZN3XGK4MATH4UTIL29makeCatmullRomSpline3Points3DEPSt6vectorIfSaIfEES5_mf+0x540>
    1abb:	4d 85 db             	test   r11,r11
    1abe:	74 0c                	je     1acc <_ZN3XGK4MATH4UTIL29makeCatmullRomSpline3Points3DEPSt6vectorIfSaIfEES5_mf+0x15c>
    1ac0:	f3 44 0f 10 4c 24 64 	movss  xmm9,DWORD PTR [rsp+0x64]
    1ac7:	f3 45 0f 11 0b       	movss  DWORD PTR [r11],xmm9
    1acc:	49 83 c3 04          	add    r11,0x4
    1ad0:	49 39 f3             	cmp    r11,rsi
    1ad3:	4d 89 5d 08          	mov    QWORD PTR [r13+0x8],r11
    1ad7:	0f 84 23 04 00 00    	je     1f00 <_ZN3XGK4MATH4UTIL29makeCatmullRomSpline3Points3DEPSt6vectorIfSaIfEES5_mf+0x590>
    1add:	4d 85 db             	test   r11,r11
    1ae0:	74 0b                	je     1aed <_ZN3XGK4MATH4UTIL29makeCatmullRomSpline3Points3DEPSt6vectorIfSaIfEES5_mf+0x17d>
    1ae2:	f3 0f 10 74 24 68    	movss  xmm6,DWORD PTR [rsp+0x68]
    1ae8:	f3 41 0f 11 33       	movss  DWORD PTR [r11],xmm6
    1aed:	49 83 c3 04          	add    r11,0x4
    1af1:	49 39 f3             	cmp    r11,rsi
    1af4:	4d 89 5d 08          	mov    QWORD PTR [r13+0x8],r11
    1af8:	0f 84 52 04 00 00    	je     1f50 <_ZN3XGK4MATH4UTIL29makeCatmullRomSpline3Points3DEPSt6vectorIfSaIfEES5_mf+0x5e0>
    1afe:	4d 85 db             	test   r11,r11
    1b01:	74 0c                	je     1b0f <_ZN3XGK4MATH4UTIL29makeCatmullRomSpline3Points3DEPSt6vectorIfSaIfEES5_mf+0x19f>
    1b03:	f3 44 0f 10 5c 24 6c 	movss  xmm11,DWORD PTR [rsp+0x6c]
    1b0a:	f3 45 0f 11 1b       	movss  DWORD PTR [r11],xmm11
    1b0f:	49 83 c3 04          	add    r11,0x4
    1b13:	49 83 c7 01          	add    r15,0x1
    1b17:	4c 39 7c 24 08       	cmp    QWORD PTR [rsp+0x8],r15
    1b1c:	4d 89 5d 08          	mov    QWORD PTR [r13+0x8],r11
    1b20:	0f 84 7a 04 00 00    	je     1fa0 <_ZN3XGK4MATH4UTIL29makeCatmullRomSpline3Points3DEPSt6vectorIfSaIfEES5_mf+0x630>
    1b26:	f3 44 0f 10 4b 0c    	movss  xmm9,DWORD PTR [rbx+0xc]
    1b2c:	41 0f 28 d9          	movaps xmm3,xmm9
    1b30:	f3 0f 10 73 08       	movss  xmm6,DWORD PTR [rbx+0x8]
    1b35:	f3 44 0f 10 53 14    	movss  xmm10,DWORD PTR [rbx+0x14]
    1b3b:	f3 41 0f 5c 5e 04    	subss  xmm3,DWORD PTR [r14+0x4]
    1b41:	f3 44 0f 10 6b 10    	movss  xmm13,DWORD PTR [rbx+0x10]
    1b47:	41 0f 28 ea          	movaps xmm5,xmm10
    1b4b:	41 0f 28 d5          	movaps xmm2,xmm13
    1b4f:	0f 28 e6             	movaps xmm4,xmm6
    1b52:	f3 41 0f 5c 6e 0c    	subss  xmm5,DWORD PTR [r14+0xc]
    1b58:	f3 44 0f 10 63 04    	movss  xmm12,DWORD PTR [rbx+0x4]
    1b5e:	f3 41 0f 5c 56 08    	subss  xmm2,DWORD PTR [r14+0x8]
    1b64:	f3 44 0f 10 75 04    	movss  xmm14,DWORD PTR [rbp+0x4]
    1b6a:	f3 41 0f 5c 26       	subss  xmm4,DWORD PTR [r14]
    1b6f:	f3 44 0f 10 5d 0c    	movss  xmm11,DWORD PTR [rbp+0xc]
    1b75:	f3 0f 59 d8          	mulss  xmm3,xmm0
    1b79:	f3 45 0f 5c dd       	subss  xmm11,xmm13
    1b7e:	f3 44 0f 5c f6       	subss  xmm14,xmm6
    1b83:	f3 44 0f 10 7d 08    	movss  xmm15,DWORD PTR [rbp+0x8]
    1b89:	f3 45 0f 5c f9       	subss  xmm15,xmm9
    1b8e:	f3 0f 59 e8          	mulss  xmm5,xmm0
    1b92:	f3 0f 58 de          	addss  xmm3,xmm6
    1b96:	f3 0f 59 d0          	mulss  xmm2,xmm0
    1b9a:	f3 0f 59 e0          	mulss  xmm4,xmm0
    1b9e:	f3 44 0f 59 f7       	mulss  xmm14,xmm7
    1ba3:	f3 44 0f 59 df       	mulss  xmm11,xmm7
    1ba8:	f3 41 0f 58 ed       	addss  xmm5,xmm13
    1bad:	66 48 0f 7e de       	movq   rsi,xmm3
    1bb2:	f3 0f 10 5d 00       	movss  xmm3,DWORD PTR [rbp+0x0]
    1bb7:	f3 41 0f 5c dc       	subss  xmm3,xmm12
    1bbc:	f3 44 0f 59 ff       	mulss  xmm15,xmm7
    1bc1:	f3 41 0f 58 e4       	addss  xmm4,xmm12
    1bc6:	48 c1 e6 20          	shl    rsi,0x20
    1bca:	f3 41 0f 58 d1       	addss  xmm2,xmm9
    1bcf:	66 48 0f 7e ef       	movq   rdi,xmm5
    1bd4:	f3 45 0f 58 f1       	addss  xmm14,xmm9
    1bd9:	f3 0f 59 df          	mulss  xmm3,xmm7
    1bdd:	f3 45 0f 58 d3       	addss  xmm10,xmm11
    1be2:	48 c1 e7 20          	shl    rdi,0x20
    1be6:	f3 45 0f 58 ef       	addss  xmm13,xmm15
    1beb:	66 41 0f 7e e0       	movd   r8d,xmm4
    1bf0:	66 0f 7e d1          	movd   ecx,xmm2
    1bf4:	66 4d 0f 7e f2       	movq   r10,xmm14
    1bf9:	49 09 f0             	or     r8,rsi
    1bfc:	0f 28 cb             	movaps xmm1,xmm3
    1bff:	66 4d 0f 7e d3       	movq   r11,xmm10
    1c04:	48 09 f9             	or     rcx,rdi
    1c07:	66 44 0f 7e ee       	movd   esi,xmm13
    1c0c:	49 c1 e2 20          	shl    r10,0x20
    1c10:	f3 0f 58 ce          	addss  xmm1,xmm6
    1c14:	66 45 0f ef ff       	pxor   xmm15,xmm15
    1c19:	49 c1 e3 20          	shl    r11,0x20
    1c1d:	4c 09 de             	or     rsi,r11
    1c20:	f3 4d 0f 2a ff       	cvtsi2ss xmm15,r15
    1c25:	66 0f 7e cf          	movd   edi,xmm1
    1c29:	4c 09 d7             	or     rdi,r10
    1c2c:	4d 85 ff             	test   r15,r15
    1c2f:	79 1e                	jns    1c4f <_ZN3XGK4MATH4UTIL29makeCatmullRomSpline3Points3DEPSt6vectorIfSaIfEES5_mf+0x2df>
    1c31:	4c 89 fa             	mov    rdx,r15
    1c34:	4c 89 f8             	mov    rax,r15
    1c37:	66 45 0f ef ff       	pxor   xmm15,xmm15
    1c3c:	48 d1 ea             	shr    rdx,1
    1c3f:	83 e0 01             	and    eax,0x1
    1c42:	48 09 c2             	or     rdx,rax
    1c45:	f3 4c 0f 2a fa       	cvtsi2ss xmm15,rdx
    1c4a:	f3 45 0f 58 ff       	addss  xmm15,xmm15
    1c4f:	f3 44 0f 59 7c 24 20 	mulss  xmm15,DWORD PTR [rsp+0x20]
    1c56:	f3 0f 10 15 00 00 00 	movss  xmm2,DWORD PTR [rip+0x0]        # 1c5e <_ZN3XGK4MATH4UTIL29makeCatmullRomSpline3Points3DEPSt6vectorIfSaIfEES5_mf+0x2ee>
    1c5d:	00 
    1c5e:	66 45 0f ef d2       	pxor   xmm10,xmm10
    1c63:	4d 85 e4             	test   r12,r12
    1c66:	66 45 0f ef db       	pxor   xmm11,xmm11
    1c6b:	f3 41 0f 5c d7       	subss  xmm2,xmm15
    1c70:	41 0f 28 f7          	movaps xmm6,xmm15
    1c74:	f3 45 0f 5a d7       	cvtss2sd xmm10,xmm15
    1c79:	f3 41 0f 59 f7       	mulss  xmm6,xmm15
    1c7e:	44 0f 28 ca          	movaps xmm9,xmm2
    1c82:	f3 44 0f 5a da       	cvtss2sd xmm11,xmm2
    1c87:	f3 44 0f 59 ca       	mulss  xmm9,xmm2
    1c8c:	0f 84 6b 04 00 00    	je     20fd <_ZN3XGK4MATH4UTIL29makeCatmullRomSpline3Points3DEPSt6vectorIfSaIfEES5_mf+0x78d>
    1c92:	44 89 04 24          	mov    DWORD PTR [rsp],r8d
    1c96:	49 c1 e8 20          	shr    r8,0x20
    1c9a:	66 44 0f 6e 34 24    	movd   xmm14,DWORD PTR [rsp]
    1ca0:	44 89 04 24          	mov    DWORD PTR [rsp],r8d
    1ca4:	f3 44 0f 10 2c 24    	movss  xmm13,DWORD PTR [rsp]
    1caa:	89 0c 24             	mov    DWORD PTR [rsp],ecx
    1cad:	48 c1 e9 20          	shr    rcx,0x20
    1cb1:	4c 39 64 24 10       	cmp    QWORD PTR [rsp+0x10],r12
    1cb6:	66 0f 6e 2c 24       	movd   xmm5,DWORD PTR [rsp]
    1cbb:	89 0c 24             	mov    DWORD PTR [rsp],ecx
    1cbe:	f3 44 0f 10 24 24    	movss  xmm12,DWORD PTR [rsp]
    1cc4:	0f 84 16 03 00 00    	je     1fe0 <_ZN3XGK4MATH4UTIL29makeCatmullRomSpline3Points3DEPSt6vectorIfSaIfEES5_mf+0x670>
    1cca:	66 0f ef e4          	pxor   xmm4,xmm4
    1cce:	89 3c 24             	mov    DWORD PTR [rsp],edi
    1cd1:	48 c1 ef 20          	shr    rdi,0x20
    1cd5:	f2 45 0f 59 d0       	mulsd  xmm10,xmm8
    1cda:	66 0f ef c9          	pxor   xmm1,xmm1
    1cde:	f3 41 0f 5a e1       	cvtss2sd xmm4,xmm9
    1ce3:	66 0f ef db          	pxor   xmm3,xmm3
    1ce7:	f3 44 0f 59 fe       	mulss  xmm15,xmm6
    1cec:	f2 44 0f 59 d4       	mulsd  xmm10,xmm4
    1cf1:	f3 0f 5a de          	cvtss2sd xmm3,xmm6
    1cf5:	f3 41 0f 59 d1       	mulss  xmm2,xmm9
    1cfa:	66 0f 6e 34 24       	movd   xmm6,DWORD PTR [rsp]
    1cff:	48 89 3c 24          	mov    QWORD PTR [rsp],rdi
    1d03:	f2 44 0f 59 db       	mulsd  xmm11,xmm3
    1d08:	f3 0f 10 1c 24       	movss  xmm3,DWORD PTR [rsp]
    1d0d:	f2 41 0f 5a ca       	cvtsd2ss xmm1,xmm10
    1d12:	66 45 0f ef d2       	pxor   xmm10,xmm10
    1d17:	f2 45 0f 59 d8       	mulsd  xmm11,xmm8
    1d1c:	0f 28 e6             	movaps xmm4,xmm6
    1d1f:	45 0f 29 11          	movaps XMMWORD PTR [r9],xmm10
    1d23:	48 8b 4b 04          	mov    rcx,QWORD PTR [rbx+0x4]
    1d27:	4c 8b 43 0c          	mov    r8,QWORD PTR [rbx+0xc]
    1d2b:	f2 45 0f 5a db       	cvtsd2ss xmm11,xmm11
    1d30:	f3 41 0f 59 db       	mulss  xmm3,xmm11
    1d35:	f3 41 0f 59 e3       	mulss  xmm4,xmm11
    1d3a:	48 c1 e9 20          	shr    rcx,0x20
    1d3e:	f3 44 0f 10 4b 04    	movss  xmm9,DWORD PTR [rbx+0x4]
    1d44:	48 89 0c 24          	mov    QWORD PTR [rsp],rcx
    1d48:	f3 44 0f 59 ca       	mulss  xmm9,xmm2
    1d4d:	f3 44 0f 59 e9       	mulss  xmm13,xmm1
    1d52:	f3 0f 10 34 24       	movss  xmm6,DWORD PTR [rsp]
    1d57:	f3 0f 59 f2          	mulss  xmm6,xmm2
    1d5b:	89 34 24             	mov    DWORD PTR [rsp],esi
    1d5e:	48 c1 ee 20          	shr    rsi,0x20
    1d62:	f3 44 0f 59 f1       	mulss  xmm14,xmm1
    1d67:	f3 0f 59 e9          	mulss  xmm5,xmm1
    1d6b:	f3 44 0f 58 eb       	addss  xmm13,xmm3
    1d70:	f3 41 0f 59 cc       	mulss  xmm1,xmm12
    1d75:	f3 44 0f 58 f4       	addss  xmm14,xmm4
    1d7a:	f3 41 0f 58 f5       	addss  xmm6,xmm13
    1d7f:	66 44 0f 6e 2c 24    	movd   xmm13,DWORD PTR [rsp]
    1d85:	44 89 04 24          	mov    DWORD PTR [rsp],r8d
    1d89:	66 44 0f 6e 14 24    	movd   xmm10,DWORD PTR [rsp]
    1d8f:	48 89 34 24          	mov    QWORD PTR [rsp],rsi
    1d93:	49 c1 e8 20          	shr    r8,0x20
    1d97:	f3 45 0f 59 eb       	mulss  xmm13,xmm11
    1d9c:	f3 45 0f 58 ce       	addss  xmm9,xmm14
    1da1:	f3 44 0f 59 1c 24    	mulss  xmm11,DWORD PTR [rsp]
    1da7:	4c 89 04 24          	mov    QWORD PTR [rsp],r8
    1dab:	f3 44 0f 59 d2       	mulss  xmm10,xmm2
    1db0:	f3 0f 11 74 24 64    	movss  DWORD PTR [rsp+0x64],xmm6
    1db6:	f3 0f 59 14 24       	mulss  xmm2,DWORD PTR [rsp]
    1dbb:	f3 41 0f 58 ed       	addss  xmm5,xmm13
    1dc0:	f3 44 0f 11 4c 24 60 	movss  DWORD PTR [rsp+0x60],xmm9
    1dc7:	f3 41 0f 58 cb       	addss  xmm1,xmm11
    1dcc:	f3 41 0f 58 ea       	addss  xmm5,xmm10
    1dd1:	f3 0f 58 d1          	addss  xmm2,xmm1
    1dd5:	f3 0f 11 6c 24 68    	movss  DWORD PTR [rsp+0x68],xmm5
    1ddb:	f3 0f 11 54 24 6c    	movss  DWORD PTR [rsp+0x6c],xmm2
    1de1:	48 8b 7b 08          	mov    rdi,QWORD PTR [rbx+0x8]
    1de5:	4c 8b 53 10          	mov    r10,QWORD PTR [rbx+0x10]
    1de9:	f3 44 0f 10 63 08    	movss  xmm12,DWORD PTR [rbx+0x8]
    1def:	48 c1 ef 20          	shr    rdi,0x20
    1df3:	f3 45 0f 59 e7       	mulss  xmm12,xmm15
    1df8:	48 89 3c 24          	mov    QWORD PTR [rsp],rdi
    1dfc:	f3 0f 10 0c 24       	movss  xmm1,DWORD PTR [rsp]
    1e01:	44 89 14 24          	mov    DWORD PTR [rsp],r10d
    1e05:	49 c1 ea 20          	shr    r10,0x20
    1e09:	66 44 0f 6e 1c 24    	movd   xmm11,DWORD PTR [rsp]
    1e0f:	f3 41 0f 59 cf       	mulss  xmm1,xmm15
    1e14:	f3 45 0f 58 cc       	addss  xmm9,xmm12
    1e19:	f3 45 0f 59 df       	mulss  xmm11,xmm15
    1e1e:	f3 0f 58 f1          	addss  xmm6,xmm1
    1e22:	f3 44 0f 11 4c 24 60 	movss  DWORD PTR [rsp+0x60],xmm9
    1e29:	f3 41 0f 58 eb       	addss  xmm5,xmm11
    1e2e:	f3 0f 11 74 24 64    	movss  DWORD PTR [rsp+0x64],xmm6
    1e34:	f3 0f 11 6c 24 68    	movss  DWORD PTR [rsp+0x68],xmm5
    1e3a:	4c 89 14 24          	mov    QWORD PTR [rsp],r10
    1e3e:	f3 44 0f 59 3c 24    	mulss  xmm15,DWORD PTR [rsp]
    1e44:	f3 41 0f 58 d7       	addss  xmm2,xmm15
    1e49:	f3 0f 11 54 24 6c    	movss  DWORD PTR [rsp+0x6c],xmm2
    1e4f:	4d 8b 5d 08          	mov    r11,QWORD PTR [r13+0x8]
    1e53:	49 8b 75 10          	mov    rsi,QWORD PTR [r13+0x10]
    1e57:	49 39 f3             	cmp    r11,rsi
    1e5a:	0f 85 40 fc ff ff    	jne    1aa0 <_ZN3XGK4MATH4UTIL29makeCatmullRomSpline3Points3DEPSt6vectorIfSaIfEES5_mf+0x130>
    1e60:	4c 89 ca             	mov    rdx,r9
    1e63:	4c 89 ef             	mov    rdi,r13
    1e66:	f2 44 0f 11 44 24 30 	movsd  QWORD PTR [rsp+0x30],xmm8
    1e6d:	f3 0f 11 7c 24 28    	movss  DWORD PTR [rsp+0x28],xmm7
    1e73:	4c 89 0c 24          	mov    QWORD PTR [rsp],r9
    1e77:	f3 0f 11 44 24 24    	movss  DWORD PTR [rsp+0x24],xmm0
    1e7d:	e8 00 00 00 00       	call   1e82 <_ZN3XGK4MATH4UTIL29makeCatmullRomSpline3Points3DEPSt6vectorIfSaIfEES5_mf+0x512>
    1e82:	4d 8b 5d 08          	mov    r11,QWORD PTR [r13+0x8]
    1e86:	49 8b 75 10          	mov    rsi,QWORD PTR [r13+0x10]
    1e8a:	f2 44 0f 10 44 24 30 	movsd  xmm8,QWORD PTR [rsp+0x30]
    1e91:	f3 0f 10 7c 24 28    	movss  xmm7,DWORD PTR [rsp+0x28]
    1e97:	4c 8b 0c 24          	mov    r9,QWORD PTR [rsp]
    1e9b:	f3 0f 10 44 24 24    	movss  xmm0,DWORD PTR [rsp+0x24]
    1ea1:	49 39 f3             	cmp    r11,rsi
    1ea4:	0f 85 11 fc ff ff    	jne    1abb <_ZN3XGK4MATH4UTIL29makeCatmullRomSpline3Points3DEPSt6vectorIfSaIfEES5_mf+0x14b>
    1eaa:	66 0f 1f 44 00 00    	nop    WORD PTR [rax+rax*1+0x0]
    1eb0:	48 8b 54 24 38       	mov    rdx,QWORD PTR [rsp+0x38]
    1eb5:	4c 89 ef             	mov    rdi,r13
    1eb8:	4c 89 4c 24 30       	mov    QWORD PTR [rsp+0x30],r9
    1ebd:	f2 44 0f 11 44 24 28 	movsd  QWORD PTR [rsp+0x28],xmm8
    1ec4:	f3 0f 11 7c 24 24    	movss  DWORD PTR [rsp+0x24],xmm7
    1eca:	f3 0f 11 04 24       	movss  DWORD PTR [rsp],xmm0
    1ecf:	e8 00 00 00 00       	call   1ed4 <_ZN3XGK4MATH4UTIL29makeCatmullRomSpline3Points3DEPSt6vectorIfSaIfEES5_mf+0x564>
    1ed4:	4d 8b 5d 08          	mov    r11,QWORD PTR [r13+0x8]
    1ed8:	49 8b 75 10          	mov    rsi,QWORD PTR [r13+0x10]
    1edc:	4c 8b 4c 24 30       	mov    r9,QWORD PTR [rsp+0x30]
    1ee1:	f2 44 0f 10 44 24 28 	movsd  xmm8,QWORD PTR [rsp+0x28]
    1ee8:	f3 0f 10 7c 24 24    	movss  xmm7,DWORD PTR [rsp+0x24]
    1eee:	49 39 f3             	cmp    r11,rsi
    1ef1:	f3 0f 10 04 24       	movss  xmm0,DWORD PTR [rsp]
    1ef6:	0f 85 e1 fb ff ff    	jne    1add <_ZN3XGK4MATH4UTIL29makeCatmullRomSpline3Points3DEPSt6vectorIfSaIfEES5_mf+0x16d>
    1efc:	0f 1f 40 00          	nop    DWORD PTR [rax+0x0]
    1f00:	49 8d 51 08          	lea    rdx,[r9+0x8]
    1f04:	4c 89 ef             	mov    rdi,r13
    1f07:	f2 44 0f 11 44 24 30 	movsd  QWORD PTR [rsp+0x30],xmm8
    1f0e:	f3 0f 11 7c 24 28    	movss  DWORD PTR [rsp+0x28],xmm7
    1f14:	4c 89 0c 24          	mov    QWORD PTR [rsp],r9
    1f18:	f3 0f 11 44 24 24    	movss  DWORD PTR [rsp+0x24],xmm0
    1f1e:	e8 00 00 00 00       	call   1f23 <_ZN3XGK4MATH4UTIL29makeCatmullRomSpline3Points3DEPSt6vectorIfSaIfEES5_mf+0x5b3>
    1f23:	4d 8b 5d 08          	mov    r11,QWORD PTR [r13+0x8]
    1f27:	49 8b 75 10          	mov    rsi,QWORD PTR [r13+0x10]
    1f2b:	f2 44 0f 10 44 24 30 	movsd  xmm8,QWORD PTR [rsp+0x30]
    1f32:	f3 0f 10 7c 24 28    	movss  xmm7,DWORD PTR [rsp+0x28]
    1f38:	4c 8b 0c 24          	mov    r9,QWORD PTR [rsp]
    1f3c:	f3 0f 10 44 24 24    	movss  xmm0,DWORD PTR [rsp+0x24]
    1f42:	49 39 f3             	cmp    r11,rsi
    1f45:	0f 85 b3 fb ff ff    	jne    1afe <_ZN3XGK4MATH4UTIL29makeCatmullRomSpline3Points3DEPSt6vectorIfSaIfEES5_mf+0x18e>
    1f4b:	0f 1f 44 00 00       	nop    DWORD PTR [rax+rax*1+0x0]
    1f50:	49 8d 51 0c          	lea    rdx,[r9+0xc]
    1f54:	4c 89 de             	mov    rsi,r11
    1f57:	4c 89 ef             	mov    rdi,r13
    1f5a:	f2 44 0f 11 44 24 30 	movsd  QWORD PTR [rsp+0x30],xmm8
    1f61:	4c 89 0c 24          	mov    QWORD PTR [rsp],r9
    1f65:	49 83 c7 01          	add    r15,0x1
    1f69:	f3 0f 11 7c 24 28    	movss  DWORD PTR [rsp+0x28],xmm7
    1f6f:	f3 0f 11 44 24 24    	movss  DWORD PTR [rsp+0x24],xmm0
    1f75:	e8 00 00 00 00       	call   1f7a <_ZN3XGK4MATH4UTIL29makeCatmullRomSpline3Points3DEPSt6vectorIfSaIfEES5_mf+0x60a>
    1f7a:	4c 39 7c 24 08       	cmp    QWORD PTR [rsp+0x8],r15
    1f7f:	f2 44 0f 10 44 24 30 	movsd  xmm8,QWORD PTR [rsp+0x30]
    1f86:	4c 8b 0c 24          	mov    r9,QWORD PTR [rsp]
    1f8a:	f3 0f 10 7c 24 28    	movss  xmm7,DWORD PTR [rsp+0x28]
    1f90:	f3 0f 10 44 24 24    	movss  xmm0,DWORD PTR [rsp+0x24]
    1f96:	0f 85 8a fb ff ff    	jne    1b26 <_ZN3XGK4MATH4UTIL29makeCatmullRomSpline3Points3DEPSt6vectorIfSaIfEES5_mf+0x1b6>
    1f9c:	0f 1f 40 00          	nop    DWORD PTR [rax+0x0]
    1fa0:	4d 89 e6             	mov    r14,r12
    1fa3:	49 83 c6 01          	add    r14,0x1
    1fa7:	48 83 c3 04          	add    rbx,0x4
    1fab:	4c 3b 74 24 18       	cmp    r14,QWORD PTR [rsp+0x18]
    1fb0:	0f 85 82 fa ff ff    	jne    1a38 <_ZN3XGK4MATH4UTIL29makeCatmullRomSpline3Points3DEPSt6vectorIfSaIfEES5_mf+0xc8>
    1fb6:	48 8b 44 24 78       	mov    rax,QWORD PTR [rsp+0x78]
    1fbb:	64 48 33 04 25 28 00 	xor    rax,QWORD PTR fs:0x28
    1fc2:	00 00 
    1fc4:	0f 85 9c 02 00 00    	jne    2266 <_ZN3XGK4MATH4UTIL29makeCatmullRomSpline3Points3DEPSt6vectorIfSaIfEES5_mf+0x8f6>
    1fca:	48 81 c4 88 00 00 00 	add    rsp,0x88
    1fd1:	5b                   	pop    rbx
    1fd2:	5d                   	pop    rbp
    1fd3:	41 5c                	pop    r12
    1fd5:	41 5d                	pop    r13
    1fd7:	41 5e                	pop    r14
    1fd9:	41 5f                	pop    r15
    1fdb:	c3                   	ret    
    1fdc:	0f 1f 40 00          	nop    DWORD PTR [rax+0x0]
    1fe0:	f2 45 0f 58 d2       	addsd  xmm10,xmm10
    1fe5:	66 45 0f ef ff       	pxor   xmm15,xmm15
    1fea:	66 0f ef d2          	pxor   xmm2,xmm2
    1fee:	f2 45 0f 59 da       	mulsd  xmm11,xmm10
    1ff3:	41 0f 29 11          	movaps XMMWORD PTR [r9],xmm2
    1ff7:	48 8b 73 04          	mov    rsi,QWORD PTR [rbx+0x4]
    1ffb:	4c 8b 5b 0c          	mov    r11,QWORD PTR [rbx+0xc]
    1fff:	f2 45 0f 5a fb       	cvtsd2ss xmm15,xmm11
    2004:	48 c1 ee 20          	shr    rsi,0x20
    2008:	48 89 34 24          	mov    QWORD PTR [rsp],rsi
    200c:	f3 0f 10 1c 24       	movss  xmm3,DWORD PTR [rsp]
    2011:	44 89 1c 24          	mov    DWORD PTR [rsp],r11d
    2015:	49 c1 eb 20          	shr    r11,0x20
    2019:	66 44 0f 6e 14 24    	movd   xmm10,DWORD PTR [rsp]
    201f:	4c 89 1c 24          	mov    QWORD PTR [rsp],r11
    2023:	f3 41 0f 59 d9       	mulss  xmm3,xmm9
    2028:	f3 0f 10 63 04       	movss  xmm4,DWORD PTR [rbx+0x4]
    202d:	f3 0f 10 0c 24       	movss  xmm1,DWORD PTR [rsp]
    2032:	f3 41 0f 59 e1       	mulss  xmm4,xmm9
    2037:	f3 45 0f 59 d1       	mulss  xmm10,xmm9
    203c:	f3 41 0f 59 c9       	mulss  xmm1,xmm9
    2041:	f3 45 0f 59 f7       	mulss  xmm14,xmm15
    2046:	f3 45 0f 59 ef       	mulss  xmm13,xmm15
    204b:	f3 41 0f 59 ef       	mulss  xmm5,xmm15
    2050:	f3 45 0f 59 fc       	mulss  xmm15,xmm12
    2055:	f3 44 0f 58 f4       	addss  xmm14,xmm4
    205a:	f3 44 0f 58 eb       	addss  xmm13,xmm3
    205f:	f3 41 0f 58 ea       	addss  xmm5,xmm10
    2064:	f3 44 0f 58 f9       	addss  xmm15,xmm1
    2069:	f3 44 0f 11 74 24 60 	movss  DWORD PTR [rsp+0x60],xmm14
    2070:	f3 44 0f 11 6c 24 64 	movss  DWORD PTR [rsp+0x64],xmm13
    2077:	f3 0f 11 6c 24 68    	movss  DWORD PTR [rsp+0x68],xmm5
    207d:	f3 44 0f 11 7c 24 6c 	movss  DWORD PTR [rsp+0x6c],xmm15
    2084:	48 8b 53 08          	mov    rdx,QWORD PTR [rbx+0x8]
    2088:	48 8b 43 10          	mov    rax,QWORD PTR [rbx+0x10]
    208c:	f3 44 0f 10 4b 08    	movss  xmm9,DWORD PTR [rbx+0x8]
    2092:	f3 44 0f 59 ce       	mulss  xmm9,xmm6
    2097:	48 c1 ea 20          	shr    rdx,0x20
    209b:	48 89 14 24          	mov    QWORD PTR [rsp],rdx
    209f:	f3 45 0f 58 ce       	addss  xmm9,xmm14
    20a4:	f3 44 0f 10 34 24    	movss  xmm14,DWORD PTR [rsp]
    20aa:	f3 44 0f 59 f6       	mulss  xmm14,xmm6
    20af:	89 04 24             	mov    DWORD PTR [rsp],eax
    20b2:	48 c1 e8 20          	shr    rax,0x20
    20b6:	f3 44 0f 11 4c 24 60 	movss  DWORD PTR [rsp+0x60],xmm9
    20bd:	f3 45 0f 58 ee       	addss  xmm13,xmm14
    20c2:	f3 44 0f 11 6c 24 64 	movss  DWORD PTR [rsp+0x64],xmm13
    20c9:	66 44 0f 6e 2c 24    	movd   xmm13,DWORD PTR [rsp]
    20cf:	48 89 04 24          	mov    QWORD PTR [rsp],rax
    20d3:	f3 44 0f 59 ee       	mulss  xmm13,xmm6
    20d8:	f3 41 0f 58 ed       	addss  xmm5,xmm13
    20dd:	f3 0f 11 6c 24 68    	movss  DWORD PTR [rsp+0x68],xmm5
    20e3:	f3 0f 10 2c 24       	movss  xmm5,DWORD PTR [rsp]
    20e8:	f3 0f 59 ee          	mulss  xmm5,xmm6
    20ec:	f3 44 0f 58 fd       	addss  xmm15,xmm5
    20f1:	f3 44 0f 11 7c 24 6c 	movss  DWORD PTR [rsp+0x6c],xmm15
    20f8:	e9 52 fd ff ff       	jmp    1e4f <_ZN3XGK4MATH4UTIL29makeCatmullRomSpline3Points3DEPSt6vectorIfSaIfEES5_mf+0x4df>
    20fd:	f2 45 0f 58 d2       	addsd  xmm10,xmm10
    2102:	66 45 0f ef e4       	pxor   xmm12,xmm12
    2107:	89 3c 24             	mov    DWORD PTR [rsp],edi
    210a:	48 c1 ef 20          	shr    rdi,0x20
    210e:	66 0f 6e 14 24       	movd   xmm2,DWORD PTR [rsp]
    2113:	f2 45 0f 59 da       	mulsd  xmm11,xmm10
    2118:	f2 45 0f 5a e3       	cvtsd2ss xmm12,xmm11
    211d:	66 45 0f ef db       	pxor   xmm11,xmm11
    2122:	45 0f 29 19          	movaps XMMWORD PTR [r9],xmm11
    2126:	48 8b 4b 04          	mov    rcx,QWORD PTR [rbx+0x4]
    212a:	4c 8b 43 0c          	mov    r8,QWORD PTR [rbx+0xc]
    212e:	48 c1 e9 20          	shr    rcx,0x20
    2132:	f3 44 0f 10 7b 04    	movss  xmm15,DWORD PTR [rbx+0x4]
    2138:	48 89 0c 24          	mov    QWORD PTR [rsp],rcx
    213c:	f3 45 0f 59 f9       	mulss  xmm15,xmm9
    2141:	f3 0f 10 24 24       	movss  xmm4,DWORD PTR [rsp]
    2146:	48 89 3c 24          	mov    QWORD PTR [rsp],rdi
    214a:	f3 41 0f 59 d4       	mulss  xmm2,xmm12
    214f:	f3 0f 10 1c 24       	movss  xmm3,DWORD PTR [rsp]
    2154:	44 89 04 24          	mov    DWORD PTR [rsp],r8d
    2158:	66 44 0f 6e 14 24    	movd   xmm10,DWORD PTR [rsp]
    215e:	49 c1 e8 20          	shr    r8,0x20
    2162:	89 34 24             	mov    DWORD PTR [rsp],esi
    2165:	66 0f 6e 0c 24       	movd   xmm1,DWORD PTR [rsp]
    216a:	48 c1 ee 20          	shr    rsi,0x20
    216e:	4c 89 04 24          	mov    QWORD PTR [rsp],r8
    2172:	f3 44 0f 10 34 24    	movss  xmm14,DWORD PTR [rsp]
    2178:	48 89 34 24          	mov    QWORD PTR [rsp],rsi
    217c:	f3 41 0f 59 dc       	mulss  xmm3,xmm12
    2181:	f3 44 0f 58 fa       	addss  xmm15,xmm2
    2186:	f3 41 0f 59 cc       	mulss  xmm1,xmm12
    218b:	f3 44 0f 59 24 24    	mulss  xmm12,DWORD PTR [rsp]
    2191:	f3 41 0f 59 e1       	mulss  xmm4,xmm9
    2196:	f3 45 0f 59 d1       	mulss  xmm10,xmm9
    219b:	f3 44 0f 11 7c 24 60 	movss  DWORD PTR [rsp+0x60],xmm15
    21a2:	f3 45 0f 59 f1       	mulss  xmm14,xmm9
    21a7:	f3 0f 58 e3          	addss  xmm4,xmm3
    21ab:	f3 44 0f 58 d1       	addss  xmm10,xmm1
    21b0:	f3 45 0f 58 f4       	addss  xmm14,xmm12
    21b5:	f3 0f 11 64 24 64    	movss  DWORD PTR [rsp+0x64],xmm4
    21bb:	f3 44 0f 11 54 24 68 	movss  DWORD PTR [rsp+0x68],xmm10
    21c2:	f3 44 0f 11 74 24 6c 	movss  DWORD PTR [rsp+0x6c],xmm14
    21c9:	48 8b 7b 08          	mov    rdi,QWORD PTR [rbx+0x8]
    21cd:	4c 8b 53 10          	mov    r10,QWORD PTR [rbx+0x10]
    21d1:	f3 44 0f 10 4b 08    	movss  xmm9,DWORD PTR [rbx+0x8]
    21d7:	48 c1 ef 20          	shr    rdi,0x20
    21db:	f3 44 0f 59 ce       	mulss  xmm9,xmm6
    21e0:	48 89 3c 24          	mov    QWORD PTR [rsp],rdi
    21e4:	f3 44 0f 10 2c 24    	movss  xmm13,DWORD PTR [rsp]
    21ea:	44 89 14 24          	mov    DWORD PTR [rsp],r10d
    21ee:	49 c1 ea 20          	shr    r10,0x20
    21f2:	66 0f 6e 2c 24       	movd   xmm5,DWORD PTR [rsp]
    21f7:	f3 44 0f 59 ee       	mulss  xmm13,xmm6
    21fc:	f3 45 0f 58 cf       	addss  xmm9,xmm15
    2201:	f3 0f 59 ee          	mulss  xmm5,xmm6
    2205:	f3 41 0f 58 e5       	addss  xmm4,xmm13
    220a:	f3 44 0f 11 4c 24 60 	movss  DWORD PTR [rsp+0x60],xmm9
    2211:	f3 44 0f 58 d5       	addss  xmm10,xmm5
    2216:	f3 0f 11 64 24 64    	movss  DWORD PTR [rsp+0x64],xmm4
    221c:	f3 44 0f 11 54 24 68 	movss  DWORD PTR [rsp+0x68],xmm10
    2223:	4c 89 14 24          	mov    QWORD PTR [rsp],r10
    2227:	f3 44 0f 10 24 24    	movss  xmm12,DWORD PTR [rsp]
    222d:	f3 44 0f 59 e6       	mulss  xmm12,xmm6
    2232:	f3 45 0f 58 f4       	addss  xmm14,xmm12
    2237:	f3 44 0f 11 74 24 6c 	movss  DWORD PTR [rsp+0x6c],xmm14
    223e:	e9 0c fc ff ff       	jmp    1e4f <_ZN3XGK4MATH4UTIL29makeCatmullRomSpline3Points3DEPSt6vectorIfSaIfEES5_mf+0x4df>
    2243:	4c 8b 7c 24 50       	mov    r15,QWORD PTR [rsp+0x50]
    2248:	4f 8d 5c b7 08       	lea    r11,[r15+r14*4+0x8]
    224d:	e9 07 f8 ff ff       	jmp    1a59 <_ZN3XGK4MATH4UTIL29makeCatmullRomSpline3Points3DEPSt6vectorIfSaIfEES5_mf+0xe9>
    2252:	4c 8b 44 24 50       	mov    r8,QWORD PTR [rsp+0x50]
    2257:	4c 8b 4c 24 58       	mov    r9,QWORD PTR [rsp+0x58]
    225c:	4f 8d 64 08 fc       	lea    r12,[r8+r9*1-0x4]
    2261:	e9 de f7 ff ff       	jmp    1a44 <_ZN3XGK4MATH4UTIL29makeCatmullRomSpline3Points3DEPSt6vectorIfSaIfEES5_mf+0xd4>
    2266:	e8 00 00 00 00       	call   226b <_ZN3XGK4MATH4UTIL29makeCatmullRomSpline3Points3DEPSt6vectorIfSaIfEES5_mf+0x8fb>

Disassembly of section .text._ZN3XGK4DATA4VEC45set32EPvffff:

0000000000000000 <_ZN3XGK4DATA4VEC45set32EPvffff>:
   0:	f3 0f 11 07          	movss  DWORD PTR [rdi],xmm0
   4:	f3 0f 11 4f 04       	movss  DWORD PTR [rdi+0x4],xmm1
   9:	f3 0f 11 57 08       	movss  DWORD PTR [rdi+0x8],xmm2
   e:	f3 0f 11 5f 0c       	movss  DWORD PTR [rdi+0xc],xmm3
  13:	c3                   	ret    

Disassembly of section .text._ZN3XGK4DATA4VEC45add32EPvS2_:

0000000000000000 <_ZN3XGK4DATA4VEC45add32EPvS2_>:
   0:	f3 0f 10 07          	movss  xmm0,DWORD PTR [rdi]
   4:	f3 0f 58 06          	addss  xmm0,DWORD PTR [rsi]
   8:	f3 0f 10 4f 04       	movss  xmm1,DWORD PTR [rdi+0x4]
   d:	f3 0f 10 57 08       	movss  xmm2,DWORD PTR [rdi+0x8]
  12:	f3 0f 10 5f 0c       	movss  xmm3,DWORD PTR [rdi+0xc]
  17:	f3 0f 11 07          	movss  DWORD PTR [rdi],xmm0
  1b:	f3 0f 58 4e 04       	addss  xmm1,DWORD PTR [rsi+0x4]
  20:	f3 0f 11 4f 04       	movss  DWORD PTR [rdi+0x4],xmm1
  25:	f3 0f 58 56 08       	addss  xmm2,DWORD PTR [rsi+0x8]
  2a:	f3 0f 11 57 08       	movss  DWORD PTR [rdi+0x8],xmm2
  2f:	f3 0f 58 5e 0c       	addss  xmm3,DWORD PTR [rsi+0xc]
  34:	f3 0f 11 5f 0c       	movss  DWORD PTR [rdi+0xc],xmm3
  39:	c3                   	ret    

Disassembly of section .text._ZN3XGK4DATA4VEC46adds32EPvf:

0000000000000000 <_ZN3XGK4DATA4VEC46adds32EPvf>:
   0:	0f c6 c0 00          	shufps xmm0,xmm0,0x0
   4:	0f 10 0f             	movups xmm1,XMMWORD PTR [rdi]
   7:	0f 58 c1             	addps  xmm0,xmm1
   a:	0f 11 07             	movups XMMWORD PTR [rdi],xmm0
   d:	c3                   	ret    

Disassembly of section .text._ZN3XGK4DATA4VEC45sub32EPvS2_:

0000000000000000 <_ZN3XGK4DATA4VEC45sub32EPvS2_>:
   0:	f3 0f 10 07          	movss  xmm0,DWORD PTR [rdi]
   4:	f3 0f 5c 06          	subss  xmm0,DWORD PTR [rsi]
   8:	f3 0f 10 4f 04       	movss  xmm1,DWORD PTR [rdi+0x4]
   d:	f3 0f 10 57 08       	movss  xmm2,DWORD PTR [rdi+0x8]
  12:	f3 0f 10 5f 0c       	movss  xmm3,DWORD PTR [rdi+0xc]
  17:	f3 0f 11 07          	movss  DWORD PTR [rdi],xmm0
  1b:	f3 0f 5c 4e 04       	subss  xmm1,DWORD PTR [rsi+0x4]
  20:	f3 0f 11 4f 04       	movss  DWORD PTR [rdi+0x4],xmm1
  25:	f3 0f 5c 56 08       	subss  xmm2,DWORD PTR [rsi+0x8]
  2a:	f3 0f 11 57 08       	movss  DWORD PTR [rdi+0x8],xmm2
  2f:	f3 0f 5c 5e 0c       	subss  xmm3,DWORD PTR [rsi+0xc]
  34:	f3 0f 11 5f 0c       	movss  DWORD PTR [rdi+0xc],xmm3
  39:	c3                   	ret    

Disassembly of section .text._ZN3XGK4DATA4VEC46subs32EPvf:

0000000000000000 <_ZN3XGK4DATA4VEC46subs32EPvf>:
   0:	0f c6 c0 00          	shufps xmm0,xmm0,0x0
   4:	0f 10 0f             	movups xmm1,XMMWORD PTR [rdi]
   7:	0f 5c c8             	subps  xmm1,xmm0
   a:	0f 11 0f             	movups XMMWORD PTR [rdi],xmm1
   d:	c3                   	ret    

Disassembly of section .text._ZN3XGK4DATA4VEC45mul32EPvS2_:

0000000000000000 <_ZN3XGK4DATA4VEC45mul32EPvS2_>:
   0:	f3 0f 10 07          	movss  xmm0,DWORD PTR [rdi]
   4:	f3 0f 59 06          	mulss  xmm0,DWORD PTR [rsi]
   8:	f3 0f 10 4f 04       	movss  xmm1,DWORD PTR [rdi+0x4]
   d:	f3 0f 10 57 08       	movss  xmm2,DWORD PTR [rdi+0x8]
  12:	f3 0f 10 5f 0c       	movss  xmm3,DWORD PTR [rdi+0xc]
  17:	f3 0f 11 07          	movss  DWORD PTR [rdi],xmm0
  1b:	f3 0f 59 4e 04       	mulss  xmm1,DWORD PTR [rsi+0x4]
  20:	f3 0f 11 4f 04       	movss  DWORD PTR [rdi+0x4],xmm1
  25:	f3 0f 59 56 08       	mulss  xmm2,DWORD PTR [rsi+0x8]
  2a:	f3 0f 11 57 08       	movss  DWORD PTR [rdi+0x8],xmm2
  2f:	f3 0f 59 5e 0c       	mulss  xmm3,DWORD PTR [rsi+0xc]
  34:	f3 0f 11 5f 0c       	movss  DWORD PTR [rdi+0xc],xmm3
  39:	c3                   	ret    

Disassembly of section .text._ZN3XGK4DATA4VEC46muls32EPvf:

0000000000000000 <_ZN3XGK4DATA4VEC46muls32EPvf>:
   0:	0f c6 c0 00          	shufps xmm0,xmm0,0x0
   4:	0f 10 0f             	movups xmm1,XMMWORD PTR [rdi]
   7:	0f 59 c1             	mulps  xmm0,xmm1
   a:	0f 11 07             	movups XMMWORD PTR [rdi],xmm0
   d:	c3                   	ret    

Disassembly of section .text._ZN3XGK4DATA4VEC45div32EPvS2_:

0000000000000000 <_ZN3XGK4DATA4VEC45div32EPvS2_>:
   0:	f3 0f 10 07          	movss  xmm0,DWORD PTR [rdi]
   4:	f3 0f 5e 06          	divss  xmm0,DWORD PTR [rsi]
   8:	f3 0f 10 4f 04       	movss  xmm1,DWORD PTR [rdi+0x4]
   d:	f3 0f 10 57 08       	movss  xmm2,DWORD PTR [rdi+0x8]
  12:	f3 0f 10 5f 0c       	movss  xmm3,DWORD PTR [rdi+0xc]
  17:	f3 0f 11 07          	movss  DWORD PTR [rdi],xmm0
  1b:	f3 0f 5e 4e 04       	divss  xmm1,DWORD PTR [rsi+0x4]
  20:	f3 0f 11 4f 04       	movss  DWORD PTR [rdi+0x4],xmm1
  25:	f3 0f 5e 56 08       	divss  xmm2,DWORD PTR [rsi+0x8]
  2a:	f3 0f 11 57 08       	movss  DWORD PTR [rdi+0x8],xmm2
  2f:	f3 0f 5e 5e 0c       	divss  xmm3,DWORD PTR [rsi+0xc]
  34:	f3 0f 11 5f 0c       	movss  DWORD PTR [rdi+0xc],xmm3
  39:	c3                   	ret    

Disassembly of section .text._ZN3XGK4DATA4VEC46divs32EPvf:

0000000000000000 <_ZN3XGK4DATA4VEC46divs32EPvf>:
   0:	0f c6 c0 00          	shufps xmm0,xmm0,0x0
   4:	0f 10 17             	movups xmm2,XMMWORD PTR [rdi]
   7:	0f 53 c8             	rcpps  xmm1,xmm0
   a:	0f 59 c1             	mulps  xmm0,xmm1
   d:	0f 59 c1             	mulps  xmm0,xmm1
  10:	0f 58 c9             	addps  xmm1,xmm1
  13:	0f 5c c8             	subps  xmm1,xmm0
  16:	0f 59 ca             	mulps  xmm1,xmm2
  19:	0f 11 0f             	movups XMMWORD PTR [rdi],xmm1
  1c:	c3                   	ret    

Disassembly of section .text._ZN3XGK4DATA4VEC46norm32EPv:

0000000000000000 <_ZN3XGK4DATA4VEC46norm32EPv>:
   0:	f3 0f 10 2f          	movss  xmm5,DWORD PTR [rdi]
   4:	f3 0f 10 67 04       	movss  xmm4,DWORD PTR [rdi+0x4]
   9:	0f 28 fd             	movaps xmm7,xmm5
   c:	f3 0f 10 5f 08       	movss  xmm3,DWORD PTR [rdi+0x8]
  11:	f3 0f 10 57 0c       	movss  xmm2,DWORD PTR [rdi+0xc]
  16:	0f 28 cb             	movaps xmm1,xmm3
  19:	0f 28 f4             	movaps xmm6,xmm4
  1c:	f3 0f 59 fd          	mulss  xmm7,xmm5
  20:	0f 28 c2             	movaps xmm0,xmm2
  23:	f3 0f 59 cb          	mulss  xmm1,xmm3
  27:	f3 0f 59 f4          	mulss  xmm6,xmm4
  2b:	f3 0f 59 c2          	mulss  xmm0,xmm2
  2f:	f3 0f 58 fe          	addss  xmm7,xmm6
  33:	f3 0f 58 c8          	addss  xmm1,xmm0
  37:	f3 0f 58 cf          	addss  xmm1,xmm7
  3b:	f3 44 0f 52 c1       	rsqrtss xmm8,xmm1
  40:	f3 41 0f 59 c8       	mulss  xmm1,xmm8
  45:	f3 41 0f 59 c8       	mulss  xmm1,xmm8
  4a:	f3 44 0f 59 05 00 00 	mulss  xmm8,DWORD PTR [rip+0x0]        # 53 <_ZN3XGK4DATA4VEC46norm32EPv+0x53>
  51:	00 00 
  53:	f3 0f 58 0d 00 00 00 	addss  xmm1,DWORD PTR [rip+0x0]        # 5b <_ZN3XGK4DATA4VEC46norm32EPv+0x5b>
  5a:	00 
  5b:	f3 41 0f 59 c8       	mulss  xmm1,xmm8
  60:	f3 0f 59 e9          	mulss  xmm5,xmm1
  64:	f3 0f 59 e1          	mulss  xmm4,xmm1
  68:	f3 0f 59 d9          	mulss  xmm3,xmm1
  6c:	f3 0f 59 ca          	mulss  xmm1,xmm2
  70:	f3 0f 11 2f          	movss  DWORD PTR [rdi],xmm5
  74:	f3 0f 11 67 04       	movss  DWORD PTR [rdi+0x4],xmm4
  79:	f3 0f 11 5f 08       	movss  DWORD PTR [rdi+0x8],xmm3
  7e:	f3 0f 11 4f 0c       	movss  DWORD PTR [rdi+0xc],xmm1
  83:	c3                   	ret    

Disassembly of section .text._ZN3XGK4DATA4VEC46set128EPvffff:

0000000000000000 <_ZN3XGK4DATA4VEC46set128EPvffff>:
   0:	0f 14 d3             	unpcklps xmm2,xmm3
   3:	0f 14 c1             	unpcklps xmm0,xmm1
   6:	0f 16 c2             	movlhps xmm0,xmm2
   9:	0f 29 07             	movaps XMMWORD PTR [rdi],xmm0
   c:	c3                   	ret    

Disassembly of section .text._ZN3XGK4DATA4VEC46add128EPvS2_:

0000000000000000 <_ZN3XGK4DATA4VEC46add128EPvS2_>:
   0:	0f 28 07             	movaps xmm0,XMMWORD PTR [rdi]
   3:	0f 58 06             	addps  xmm0,XMMWORD PTR [rsi]
   6:	0f 29 07             	movaps XMMWORD PTR [rdi],xmm0
   9:	c3                   	ret    

Disassembly of section .text._ZN3XGK4DATA4VEC47adds128EPvf:

0000000000000000 <_ZN3XGK4DATA4VEC47adds128EPvf>:
   0:	0f c6 c0 00          	shufps xmm0,xmm0,0x0
   4:	0f 58 07             	addps  xmm0,XMMWORD PTR [rdi]
   7:	0f 29 07             	movaps XMMWORD PTR [rdi],xmm0
   a:	c3                   	ret    

Disassembly of section .text._ZN3XGK4DATA4VEC46sub128EPvS2_:

0000000000000000 <_ZN3XGK4DATA4VEC46sub128EPvS2_>:
   0:	0f 28 07             	movaps xmm0,XMMWORD PTR [rdi]
   3:	0f 5c 06             	subps  xmm0,XMMWORD PTR [rsi]
   6:	0f 29 07             	movaps XMMWORD PTR [rdi],xmm0
   9:	c3                   	ret    

Disassembly of section .text._ZN3XGK4DATA4VEC47subs128EPvf:

0000000000000000 <_ZN3XGK4DATA4VEC47subs128EPvf>:
   0:	0f 28 c8             	movaps xmm1,xmm0
   3:	0f 28 07             	movaps xmm0,XMMWORD PTR [rdi]
   6:	0f c6 c9 00          	shufps xmm1,xmm1,0x0
   a:	0f 5c c1             	subps  xmm0,xmm1
   d:	0f 29 07             	movaps XMMWORD PTR [rdi],xmm0
  10:	c3                   	ret    

Disassembly of section .text._ZN3XGK4DATA4VEC46mul128EPvS2_:

0000000000000000 <_ZN3XGK4DATA4VEC46mul128EPvS2_>:
   0:	0f 28 07             	movaps xmm0,XMMWORD PTR [rdi]
   3:	0f 59 06             	mulps  xmm0,XMMWORD PTR [rsi]
   6:	0f 29 07             	movaps XMMWORD PTR [rdi],xmm0
   9:	c3                   	ret    

Disassembly of section .text._ZN3XGK4DATA4VEC47muls128EPvf:

0000000000000000 <_ZN3XGK4DATA4VEC47muls128EPvf>:
   0:	0f c6 c0 00          	shufps xmm0,xmm0,0x0
   4:	0f 59 07             	mulps  xmm0,XMMWORD PTR [rdi]
   7:	0f 29 07             	movaps XMMWORD PTR [rdi],xmm0
   a:	c3                   	ret    

Disassembly of section .text._ZN3XGK4DATA4VEC46div128EPvS2_:

0000000000000000 <_ZN3XGK4DATA4VEC46div128EPvS2_>:
   0:	0f 28 0e             	movaps xmm1,XMMWORD PTR [rsi]
   3:	0f 53 c1             	rcpps  xmm0,xmm1
   6:	0f 59 c8             	mulps  xmm1,xmm0
   9:	0f 59 c8             	mulps  xmm1,xmm0
   c:	0f 58 c0             	addps  xmm0,xmm0
   f:	0f 5c c1             	subps  xmm0,xmm1
  12:	0f 59 07             	mulps  xmm0,XMMWORD PTR [rdi]
  15:	0f 29 07             	movaps XMMWORD PTR [rdi],xmm0
  18:	c3                   	ret    

Disassembly of section .text._ZN3XGK4DATA4VEC47divs128EPvf:

0000000000000000 <_ZN3XGK4DATA4VEC47divs128EPvf>:
   0:	0f c6 c0 00          	shufps xmm0,xmm0,0x0
   4:	0f 53 c8             	rcpps  xmm1,xmm0
   7:	0f 59 c1             	mulps  xmm0,xmm1
   a:	0f 59 c1             	mulps  xmm0,xmm1
   d:	0f 58 c9             	addps  xmm1,xmm1
  10:	0f 5c c8             	subps  xmm1,xmm0
  13:	0f 59 0f             	mulps  xmm1,XMMWORD PTR [rdi]
  16:	0f 29 0f             	movaps XMMWORD PTR [rdi],xmm1
  19:	c3                   	ret    

Disassembly of section .text._ZN3XGK4DATA4VEC47norm128EPv:

0000000000000000 <_ZN3XGK4DATA4VEC47norm128EPv>:
   0:	f3 0f 10 17          	movss  xmm2,DWORD PTR [rdi]
   4:	f3 0f 10 5f 04       	movss  xmm3,DWORD PTR [rdi+0x4]
   9:	f3 0f 59 d2          	mulss  xmm2,xmm2
   d:	f3 0f 10 4f 08       	movss  xmm1,DWORD PTR [rdi+0x8]
  12:	f3 0f 59 db          	mulss  xmm3,xmm3
  16:	f3 0f 10 47 0c       	movss  xmm0,DWORD PTR [rdi+0xc]
  1b:	f3 0f 59 c9          	mulss  xmm1,xmm1
  1f:	f3 0f 59 c0          	mulss  xmm0,xmm0
  23:	f3 0f 58 da          	addss  xmm3,xmm2
  27:	f3 0f 58 c8          	addss  xmm1,xmm0
  2b:	f3 0f 58 d9          	addss  xmm3,xmm1
  2f:	f3 0f 51 e3          	sqrtss xmm4,xmm3
  33:	0f c6 e4 00          	shufps xmm4,xmm4,0x0
  37:	0f 53 ec             	rcpps  xmm5,xmm4
  3a:	0f 59 e5             	mulps  xmm4,xmm5
  3d:	0f 59 e5             	mulps  xmm4,xmm5
  40:	0f 58 ed             	addps  xmm5,xmm5
  43:	0f 5c ec             	subps  xmm5,xmm4
  46:	0f 59 2f             	mulps  xmm5,XMMWORD PTR [rdi]
  49:	0f 29 2f             	movaps XMMWORD PTR [rdi],xmm5
  4c:	c3                   	ret    

Disassembly of section .text._ZN3XGK4DATA4QUAT8premul32EPvS2_:

0000000000000000 <_ZN3XGK4DATA4QUAT8premul32EPvS2_>:
   0:	f3 0f 10 1f          	movss  xmm3,DWORD PTR [rdi]
   4:	f3 0f 10 57 04       	movss  xmm2,DWORD PTR [rdi+0x4]
   9:	f3 0f 10 4f 08       	movss  xmm1,DWORD PTR [rdi+0x8]
   e:	f3 0f 10 47 0c       	movss  xmm0,DWORD PTR [rdi+0xc]
  13:	f3 0f 10 26          	movss  xmm4,DWORD PTR [rsi]
  17:	f3 0f 10 6e 0c       	movss  xmm5,DWORD PTR [rsi+0xc]
  1c:	f3 0f 59 e0          	mulss  xmm4,xmm0
  20:	f3 0f 10 7e 04       	movss  xmm7,DWORD PTR [rsi+0x4]
  25:	f3 0f 59 eb          	mulss  xmm5,xmm3
  29:	f3 0f 10 76 08       	movss  xmm6,DWORD PTR [rsi+0x8]
  2e:	f3 0f 59 f9          	mulss  xmm7,xmm1
  32:	f3 0f 59 f2          	mulss  xmm6,xmm2
  36:	f3 0f 58 e5          	addss  xmm4,xmm5
  3a:	f3 0f 5c fe          	subss  xmm7,xmm6
  3e:	f3 0f 58 e7          	addss  xmm4,xmm7
  42:	f3 0f 11 27          	movss  DWORD PTR [rdi],xmm4
  46:	f3 44 0f 10 46 04    	movss  xmm8,DWORD PTR [rsi+0x4]
  4c:	f3 44 0f 10 4e 0c    	movss  xmm9,DWORD PTR [rsi+0xc]
  52:	f3 44 0f 59 c0       	mulss  xmm8,xmm0
  57:	f3 44 0f 10 56 08    	movss  xmm10,DWORD PTR [rsi+0x8]
  5d:	f3 44 0f 59 ca       	mulss  xmm9,xmm2
  62:	f3 44 0f 10 1e       	movss  xmm11,DWORD PTR [rsi]
  67:	f3 44 0f 59 d3       	mulss  xmm10,xmm3
  6c:	f3 44 0f 59 d9       	mulss  xmm11,xmm1
  71:	f3 45 0f 58 c1       	addss  xmm8,xmm9
  76:	f3 45 0f 5c d3       	subss  xmm10,xmm11
  7b:	f3 45 0f 58 c2       	addss  xmm8,xmm10
  80:	f3 44 0f 11 47 04    	movss  DWORD PTR [rdi+0x4],xmm8
  86:	f3 44 0f 10 66 08    	movss  xmm12,DWORD PTR [rsi+0x8]
  8c:	f3 44 0f 10 6e 0c    	movss  xmm13,DWORD PTR [rsi+0xc]
  92:	f3 44 0f 59 e0       	mulss  xmm12,xmm0
  97:	f3 44 0f 10 36       	movss  xmm14,DWORD PTR [rsi]
  9c:	f3 44 0f 59 e9       	mulss  xmm13,xmm1
  a1:	f3 44 0f 10 7e 04    	movss  xmm15,DWORD PTR [rsi+0x4]
  a7:	f3 44 0f 59 f2       	mulss  xmm14,xmm2
  ac:	f3 44 0f 59 fb       	mulss  xmm15,xmm3
  b1:	f3 45 0f 58 e5       	addss  xmm12,xmm13
  b6:	f3 45 0f 5c f7       	subss  xmm14,xmm15
  bb:	f3 45 0f 58 e6       	addss  xmm12,xmm14
  c0:	f3 44 0f 11 67 08    	movss  DWORD PTR [rdi+0x8],xmm12
  c6:	f3 0f 59 46 0c       	mulss  xmm0,DWORD PTR [rsi+0xc]
  cb:	f3 0f 59 1e          	mulss  xmm3,DWORD PTR [rsi]
  cf:	f3 0f 59 56 04       	mulss  xmm2,DWORD PTR [rsi+0x4]
  d4:	f3 0f 59 4e 08       	mulss  xmm1,DWORD PTR [rsi+0x8]
  d9:	f3 0f 5c c3          	subss  xmm0,xmm3
  dd:	f3 0f 5c c2          	subss  xmm0,xmm2
  e1:	f3 0f 5c c1          	subss  xmm0,xmm1
  e5:	f3 0f 11 47 0c       	movss  DWORD PTR [rdi+0xc],xmm0
  ea:	c3                   	ret    

Disassembly of section .text._ZN3XGK4DATA4QUAT9postmul32EPvS2_:

0000000000000000 <_ZN3XGK4DATA4QUAT9postmul32EPvS2_>:
   0:	f3 0f 10 1f          	movss  xmm3,DWORD PTR [rdi]
   4:	f3 0f 10 57 04       	movss  xmm2,DWORD PTR [rdi+0x4]
   9:	f3 0f 10 4f 08       	movss  xmm1,DWORD PTR [rdi+0x8]
   e:	f3 0f 10 47 0c       	movss  xmm0,DWORD PTR [rdi+0xc]
  13:	f3 0f 10 66 0c       	movss  xmm4,DWORD PTR [rsi+0xc]
  18:	f3 0f 10 2e          	movss  xmm5,DWORD PTR [rsi]
  1c:	f3 0f 59 e3          	mulss  xmm4,xmm3
  20:	f3 0f 10 7e 08       	movss  xmm7,DWORD PTR [rsi+0x8]
  25:	f3 0f 59 e8          	mulss  xmm5,xmm0
  29:	f3 0f 10 76 04       	movss  xmm6,DWORD PTR [rsi+0x4]
  2e:	f3 0f 59 fa          	mulss  xmm7,xmm2
  32:	f3 0f 59 f1          	mulss  xmm6,xmm1
  36:	f3 0f 58 e5          	addss  xmm4,xmm5
  3a:	f3 0f 5c fe          	subss  xmm7,xmm6
  3e:	f3 0f 58 e7          	addss  xmm4,xmm7
  42:	f3 0f 11 27          	movss  DWORD PTR [rdi],xmm4
  46:	f3 44 0f 10 46 0c    	movss  xmm8,DWORD PTR [rsi+0xc]
  4c:	f3 44 0f 10 4e 04    	movss  xmm9,DWORD PTR [rsi+0x4]
  52:	f3 44 0f 59 c2       	mulss  xmm8,xmm2
  57:	f3 44 0f 10 16       	movss  xmm10,DWORD PTR [rsi]
  5c:	f3 44 0f 59 c8       	mulss  xmm9,xmm0
  61:	f3 44 0f 10 5e 08    	movss  xmm11,DWORD PTR [rsi+0x8]
  67:	f3 44 0f 59 d1       	mulss  xmm10,xmm1
  6c:	f3 44 0f 59 db       	mulss  xmm11,xmm3
  71:	f3 45 0f 58 c1       	addss  xmm8,xmm9
  76:	f3 45 0f 5c d3       	subss  xmm10,xmm11
  7b:	f3 45 0f 58 c2       	addss  xmm8,xmm10
  80:	f3 44 0f 11 47 04    	movss  DWORD PTR [rdi+0x4],xmm8
  86:	f3 44 0f 10 66 0c    	movss  xmm12,DWORD PTR [rsi+0xc]
  8c:	f3 44 0f 10 6e 08    	movss  xmm13,DWORD PTR [rsi+0x8]
  92:	f3 44 0f 59 e1       	mulss  xmm12,xmm1
  97:	f3 44 0f 10 76 04    	movss  xmm14,DWORD PTR [rsi+0x4]
  9d:	f3 44 0f 59 e8       	mulss  xmm13,xmm0
  a2:	f3 44 0f 10 3e       	movss  xmm15,DWORD PTR [rsi]
  a7:	f3 44 0f 59 f3       	mulss  xmm14,xmm3
  ac:	f3 44 0f 59 fa       	mulss  xmm15,xmm2
  b1:	f3 45 0f 58 e5       	addss  xmm12,xmm13
  b6:	f3 45 0f 5c f7       	subss  xmm14,xmm15
  bb:	f3 45 0f 58 e6       	addss  xmm12,xmm14
  c0:	f3 44 0f 11 67 08    	movss  DWORD PTR [rdi+0x8],xmm12
  c6:	f3 0f 59 46 0c       	mulss  xmm0,DWORD PTR [rsi+0xc]
  cb:	f3 0f 59 1e          	mulss  xmm3,DWORD PTR [rsi]
  cf:	f3 0f 59 56 04       	mulss  xmm2,DWORD PTR [rsi+0x4]
  d4:	f3 0f 59 4e 08       	mulss  xmm1,DWORD PTR [rsi+0x8]
  d9:	f3 0f 5c c3          	subss  xmm0,xmm3
  dd:	f3 0f 5c c2          	subss  xmm0,xmm2
  e1:	f3 0f 5c c1          	subss  xmm0,xmm1
  e5:	f3 0f 11 47 0c       	movss  DWORD PTR [rdi+0xc],xmm0
  ea:	c3                   	ret    

Disassembly of section .text._ZN3XGK4DATA4QUAT9makeRot32EPvS2_f:

0000000000000000 <_ZN3XGK4DATA4QUAT9makeRot32EPvS2_f>:
   0:	55                   	push   rbp
   1:	53                   	push   rbx
   2:	48 89 f5             	mov    rbp,rsi
   5:	48 89 fb             	mov    rbx,rdi
   8:	48 83 ec 18          	sub    rsp,0x18
   c:	f3 0f 59 05 00 00 00 	mulss  xmm0,DWORD PTR [rip+0x0]        # 14 <_ZN3XGK4DATA4QUAT9makeRot32EPvS2_f+0x14>
  13:	00 
  14:	48 8d 7c 24 0c       	lea    rdi,[rsp+0xc]
  19:	48 8d 74 24 08       	lea    rsi,[rsp+0x8]
  1e:	e8 00 00 00 00       	call   23 <_ZN3XGK4DATA4QUAT9makeRot32EPvS2_f+0x23>
  23:	f3 0f 10 4d 00       	movss  xmm1,DWORD PTR [rbp+0x0]
  28:	f3 0f 10 44 24 0c    	movss  xmm0,DWORD PTR [rsp+0xc]
  2e:	f3 0f 59 c8          	mulss  xmm1,xmm0
  32:	f3 0f 10 5c 24 08    	movss  xmm3,DWORD PTR [rsp+0x8]
  38:	f3 0f 11 0b          	movss  DWORD PTR [rbx],xmm1
  3c:	f3 0f 10 55 04       	movss  xmm2,DWORD PTR [rbp+0x4]
  41:	f3 0f 59 d0          	mulss  xmm2,xmm0
  45:	f3 0f 11 53 04       	movss  DWORD PTR [rbx+0x4],xmm2
  4a:	f3 0f 59 45 08       	mulss  xmm0,DWORD PTR [rbp+0x8]
  4f:	f3 0f 11 5b 0c       	movss  DWORD PTR [rbx+0xc],xmm3
  54:	f3 0f 11 43 08       	movss  DWORD PTR [rbx+0x8],xmm0
  59:	48 83 c4 18          	add    rsp,0x18
  5d:	5b                   	pop    rbx
  5e:	5d                   	pop    rbp
  5f:	c3                   	ret    

Disassembly of section .text._ZN3XGK4DATA4QUAT8preRot32EPvS2_f:

0000000000000000 <_ZN3XGK4DATA4QUAT8preRot32EPvS2_f>:
   0:	55                   	push   rbp
   1:	53                   	push   rbx
   2:	48 89 f5             	mov    rbp,rsi
   5:	48 89 fb             	mov    rbx,rdi
   8:	48 83 ec 18          	sub    rsp,0x18
   c:	f3 0f 59 05 00 00 00 	mulss  xmm0,DWORD PTR [rip+0x0]        # 14 <_ZN3XGK4DATA4QUAT8preRot32EPvS2_f+0x14>
  13:	00 
  14:	48 8d 7c 24 0c       	lea    rdi,[rsp+0xc]
  19:	48 8d 74 24 08       	lea    rsi,[rsp+0x8]
  1e:	e8 00 00 00 00       	call   23 <_ZN3XGK4DATA4QUAT8preRot32EPvS2_f+0x23>
  23:	f3 0f 10 7d 00       	movss  xmm7,DWORD PTR [rbp+0x0]
  28:	f3 0f 10 75 04       	movss  xmm6,DWORD PTR [rbp+0x4]
  2d:	f3 0f 10 4c 24 0c    	movss  xmm1,DWORD PTR [rsp+0xc]
  33:	f3 0f 59 f9          	mulss  xmm7,xmm1
  37:	f3 0f 10 23          	movss  xmm4,DWORD PTR [rbx]
  3b:	f3 0f 59 f1          	mulss  xmm6,xmm1
  3f:	f3 0f 10 5b 04       	movss  xmm3,DWORD PTR [rbx+0x4]
  44:	f3 0f 59 4d 08       	mulss  xmm1,DWORD PTR [rbp+0x8]
  49:	f3 0f 10 53 08       	movss  xmm2,DWORD PTR [rbx+0x8]
  4e:	f3 0f 10 43 0c       	movss  xmm0,DWORD PTR [rbx+0xc]
  53:	0f 28 e8             	movaps xmm5,xmm0
  56:	44 0f 28 dc          	movaps xmm11,xmm4
  5a:	44 0f 28 d3          	movaps xmm10,xmm3
  5e:	44 0f 28 ca          	movaps xmm9,xmm2
  62:	f3 44 0f 10 44 24 08 	movss  xmm8,DWORD PTR [rsp+0x8]
  69:	f3 0f 59 ef          	mulss  xmm5,xmm7
  6d:	44 0f 28 e0          	movaps xmm12,xmm0
  71:	f3 44 0f 59 d1       	mulss  xmm10,xmm1
  76:	44 0f 28 ec          	movaps xmm13,xmm4
  7a:	f3 44 0f 59 ce       	mulss  xmm9,xmm6
  7f:	44 0f 28 f3          	movaps xmm14,xmm3
  83:	f3 45 0f 59 d8       	mulss  xmm11,xmm8
  88:	44 0f 28 fa          	movaps xmm15,xmm2
  8c:	f3 44 0f 59 e9       	mulss  xmm13,xmm1
  91:	f3 44 0f 59 e6       	mulss  xmm12,xmm6
  96:	f3 41 0f 58 e9       	addss  xmm5,xmm9
  9b:	44 0f 28 cb          	movaps xmm9,xmm3
  9f:	f3 45 0f 5c da       	subss  xmm11,xmm10
  a4:	44 0f 28 d4          	movaps xmm10,xmm4
  a8:	f3 0f 59 e7          	mulss  xmm4,xmm7
  ac:	f3 45 0f 59 f0       	mulss  xmm14,xmm8
  b1:	f3 45 0f 58 e5       	addss  xmm12,xmm13
  b6:	f3 44 0f 59 ff       	mulss  xmm15,xmm7
  bb:	f3 41 0f 58 eb       	addss  xmm5,xmm11
  c0:	44 0f 28 da          	movaps xmm11,xmm2
  c4:	f3 44 0f 59 cf       	mulss  xmm9,xmm7
  c9:	f3 45 0f 59 d8       	mulss  xmm11,xmm8
  ce:	f3 44 0f 59 d6       	mulss  xmm10,xmm6
  d3:	f3 45 0f 5c f7       	subss  xmm14,xmm15
  d8:	f3 0f 11 2b          	movss  DWORD PTR [rbx],xmm5
  dc:	0f 28 e8             	movaps xmm5,xmm0
  df:	f3 41 0f 59 c0       	mulss  xmm0,xmm8
  e4:	f3 0f 59 e9          	mulss  xmm5,xmm1
  e8:	f3 0f 59 de          	mulss  xmm3,xmm6
  ec:	f3 45 0f 5c da       	subss  xmm11,xmm10
  f1:	f3 0f 59 ca          	mulss  xmm1,xmm2
  f5:	f3 45 0f 58 e6       	addss  xmm12,xmm14
  fa:	f3 0f 5c c4          	subss  xmm0,xmm4
  fe:	f3 41 0f 58 e9       	addss  xmm5,xmm9
 103:	f3 44 0f 11 63 04    	movss  DWORD PTR [rbx+0x4],xmm12
 109:	f3 0f 5c c3          	subss  xmm0,xmm3
 10d:	f3 41 0f 58 eb       	addss  xmm5,xmm11
 112:	f3 0f 5c c1          	subss  xmm0,xmm1
 116:	f3 0f 11 6b 08       	movss  DWORD PTR [rbx+0x8],xmm5
 11b:	f3 0f 11 43 0c       	movss  DWORD PTR [rbx+0xc],xmm0
 120:	48 83 c4 18          	add    rsp,0x18
 124:	5b                   	pop    rbx
 125:	5d                   	pop    rbp
 126:	c3                   	ret    

Disassembly of section .text._ZN3XGK4DATA4QUAT9postRot32EPvS2_f:

0000000000000000 <_ZN3XGK4DATA4QUAT9postRot32EPvS2_f>:
   0:	55                   	push   rbp
   1:	53                   	push   rbx
   2:	48 89 f5             	mov    rbp,rsi
   5:	48 89 fb             	mov    rbx,rdi
   8:	48 83 ec 18          	sub    rsp,0x18
   c:	f3 0f 59 05 00 00 00 	mulss  xmm0,DWORD PTR [rip+0x0]        # 14 <_ZN3XGK4DATA4QUAT9postRot32EPvS2_f+0x14>
  13:	00 
  14:	48 8d 7c 24 0c       	lea    rdi,[rsp+0xc]
  19:	48 8d 74 24 08       	lea    rsi,[rsp+0x8]
  1e:	e8 00 00 00 00       	call   23 <_ZN3XGK4DATA4QUAT9postRot32EPvS2_f+0x23>
  23:	f3 0f 10 7d 00       	movss  xmm7,DWORD PTR [rbp+0x0]
  28:	f3 0f 10 75 04       	movss  xmm6,DWORD PTR [rbp+0x4]
  2d:	f3 0f 10 4c 24 0c    	movss  xmm1,DWORD PTR [rsp+0xc]
  33:	f3 0f 59 f9          	mulss  xmm7,xmm1
  37:	f3 0f 10 23          	movss  xmm4,DWORD PTR [rbx]
  3b:	f3 0f 59 f1          	mulss  xmm6,xmm1
  3f:	f3 0f 10 5b 04       	movss  xmm3,DWORD PTR [rbx+0x4]
  44:	f3 0f 59 4d 08       	mulss  xmm1,DWORD PTR [rbp+0x8]
  49:	f3 0f 10 53 08       	movss  xmm2,DWORD PTR [rbx+0x8]
  4e:	f3 0f 10 43 0c       	movss  xmm0,DWORD PTR [rbx+0xc]
  53:	0f 28 e8             	movaps xmm5,xmm0
  56:	44 0f 28 cb          	movaps xmm9,xmm3
  5a:	44 0f 28 dc          	movaps xmm11,xmm4
  5e:	44 0f 28 d2          	movaps xmm10,xmm2
  62:	f3 44 0f 10 44 24 08 	movss  xmm8,DWORD PTR [rsp+0x8]
  69:	f3 0f 59 ef          	mulss  xmm5,xmm7
  6d:	44 0f 28 e0          	movaps xmm12,xmm0
  71:	f3 44 0f 59 c9       	mulss  xmm9,xmm1
  76:	44 0f 28 fc          	movaps xmm15,xmm4
  7a:	f3 44 0f 59 d6       	mulss  xmm10,xmm6
  7f:	44 0f 28 f3          	movaps xmm14,xmm3
  83:	f3 45 0f 59 d8       	mulss  xmm11,xmm8
  88:	44 0f 28 ea          	movaps xmm13,xmm2
  8c:	f3 44 0f 59 f9       	mulss  xmm15,xmm1
  91:	f3 41 0f 58 e9       	addss  xmm5,xmm9
  96:	44 0f 28 cc          	movaps xmm9,xmm4
  9a:	f3 0f 59 e7          	mulss  xmm4,xmm7
  9e:	f3 45 0f 5c da       	subss  xmm11,xmm10
  a3:	44 0f 28 d3          	movaps xmm10,xmm3
  a7:	f3 44 0f 59 e6       	mulss  xmm12,xmm6
  ac:	f3 44 0f 59 ef       	mulss  xmm13,xmm7
  b1:	f3 45 0f 59 f0       	mulss  xmm14,xmm8
  b6:	f3 41 0f 58 eb       	addss  xmm5,xmm11
  bb:	44 0f 28 da          	movaps xmm11,xmm2
  bf:	f3 44 0f 59 ce       	mulss  xmm9,xmm6
  c4:	f3 45 0f 59 d8       	mulss  xmm11,xmm8
  c9:	f3 45 0f 58 e5       	addss  xmm12,xmm13
  ce:	f3 44 0f 59 d7       	mulss  xmm10,xmm7
  d3:	f3 45 0f 5c f7       	subss  xmm14,xmm15
  d8:	f3 0f 11 2b          	movss  DWORD PTR [rbx],xmm5
  dc:	0f 28 e8             	movaps xmm5,xmm0
  df:	f3 41 0f 59 c0       	mulss  xmm0,xmm8
  e4:	f3 0f 59 e9          	mulss  xmm5,xmm1
  e8:	f3 0f 59 de          	mulss  xmm3,xmm6
  ec:	f3 45 0f 5c da       	subss  xmm11,xmm10
  f1:	f3 0f 59 ca          	mulss  xmm1,xmm2
  f5:	f3 45 0f 58 e6       	addss  xmm12,xmm14
  fa:	f3 0f 5c c4          	subss  xmm0,xmm4
  fe:	f3 41 0f 58 e9       	addss  xmm5,xmm9
 103:	f3 44 0f 11 63 04    	movss  DWORD PTR [rbx+0x4],xmm12
 109:	f3 0f 5c c3          	subss  xmm0,xmm3
 10d:	f3 41 0f 58 eb       	addss  xmm5,xmm11
 112:	f3 0f 5c c1          	subss  xmm0,xmm1
 116:	f3 0f 11 6b 08       	movss  DWORD PTR [rbx+0x8],xmm5
 11b:	f3 0f 11 43 0c       	movss  DWORD PTR [rbx+0xc],xmm0
 120:	48 83 c4 18          	add    rsp,0x18
 124:	5b                   	pop    rbx
 125:	5d                   	pop    rbp
 126:	c3                   	ret    

Disassembly of section .text._ZN3XGK4DATA4QUAT10makeRotX32EPvf:

0000000000000000 <_ZN3XGK4DATA4QUAT10makeRotX32EPvf>:
   0:	53                   	push   rbx
   1:	48 89 fb             	mov    rbx,rdi
   4:	48 83 ec 10          	sub    rsp,0x10
   8:	f3 0f 59 05 00 00 00 	mulss  xmm0,DWORD PTR [rip+0x0]        # 10 <_ZN3XGK4DATA4QUAT10makeRotX32EPvf+0x10>
   f:	00 
  10:	48 8d 7c 24 0c       	lea    rdi,[rsp+0xc]
  15:	48 8d 74 24 08       	lea    rsi,[rsp+0x8]
  1a:	e8 00 00 00 00       	call   1f <_ZN3XGK4DATA4QUAT10makeRotX32EPvf+0x1f>
  1f:	f3 0f 10 44 24 0c    	movss  xmm0,DWORD PTR [rsp+0xc]
  25:	48 c7 43 04 00 00 00 	mov    QWORD PTR [rbx+0x4],0x0
  2c:	00 
  2d:	f3 0f 10 4c 24 08    	movss  xmm1,DWORD PTR [rsp+0x8]
  33:	f3 0f 11 03          	movss  DWORD PTR [rbx],xmm0
  37:	f3 0f 11 4b 0c       	movss  DWORD PTR [rbx+0xc],xmm1
  3c:	48 83 c4 10          	add    rsp,0x10
  40:	5b                   	pop    rbx
  41:	c3                   	ret    

Disassembly of section .text._ZN3XGK4DATA4QUAT9preRotX32EPvf:

0000000000000000 <_ZN3XGK4DATA4QUAT9preRotX32EPvf>:
   0:	53                   	push   rbx
   1:	48 89 fb             	mov    rbx,rdi
   4:	48 83 ec 10          	sub    rsp,0x10
   8:	f3 0f 59 05 00 00 00 	mulss  xmm0,DWORD PTR [rip+0x0]        # 10 <_ZN3XGK4DATA4QUAT9preRotX32EPvf+0x10>
   f:	00 
  10:	48 8d 7c 24 0c       	lea    rdi,[rsp+0xc]
  15:	48 8d 74 24 08       	lea    rsi,[rsp+0x8]
  1a:	e8 00 00 00 00       	call   1f <_ZN3XGK4DATA4QUAT9preRotX32EPvf+0x1f>
  1f:	f3 0f 10 13          	movss  xmm2,DWORD PTR [rbx]
  23:	f3 0f 10 6b 04       	movss  xmm5,DWORD PTR [rbx+0x4]
  28:	0f 28 f2             	movaps xmm6,xmm2
  2b:	f3 0f 10 4b 08       	movss  xmm1,DWORD PTR [rbx+0x8]
  30:	f3 0f 10 43 0c       	movss  xmm0,DWORD PTR [rbx+0xc]
  35:	44 0f 28 c5          	movaps xmm8,xmm5
  39:	0f 28 f8             	movaps xmm7,xmm0
  3c:	44 0f 28 c9          	movaps xmm9,xmm1
  40:	f3 0f 10 64 24 08    	movss  xmm4,DWORD PTR [rsp+0x8]
  46:	f3 0f 10 5c 24 0c    	movss  xmm3,DWORD PTR [rsp+0xc]
  4c:	f3 0f 59 f4          	mulss  xmm6,xmm4
  50:	f3 0f 59 fb          	mulss  xmm7,xmm3
  54:	f3 44 0f 59 c4       	mulss  xmm8,xmm4
  59:	f3 44 0f 59 cb       	mulss  xmm9,xmm3
  5e:	f3 0f 59 cc          	mulss  xmm1,xmm4
  62:	f3 0f 59 eb          	mulss  xmm5,xmm3
  66:	f3 0f 58 f7          	addss  xmm6,xmm7
  6a:	f3 0f 59 c4          	mulss  xmm0,xmm4
  6e:	f3 0f 59 d3          	mulss  xmm2,xmm3
  72:	f3 45 0f 5c c1       	subss  xmm8,xmm9
  77:	f3 0f 58 cd          	addss  xmm1,xmm5
  7b:	f3 0f 11 33          	movss  DWORD PTR [rbx],xmm6
  7f:	f3 0f 5c c2          	subss  xmm0,xmm2
  83:	f3 44 0f 11 43 04    	movss  DWORD PTR [rbx+0x4],xmm8
  89:	f3 0f 11 4b 08       	movss  DWORD PTR [rbx+0x8],xmm1
  8e:	f3 0f 11 43 0c       	movss  DWORD PTR [rbx+0xc],xmm0
  93:	48 83 c4 10          	add    rsp,0x10
  97:	5b                   	pop    rbx
  98:	c3                   	ret    

Disassembly of section .text._ZN3XGK4DATA4QUAT10postRotX32EPvf:

0000000000000000 <_ZN3XGK4DATA4QUAT10postRotX32EPvf>:
   0:	53                   	push   rbx
   1:	48 89 fb             	mov    rbx,rdi
   4:	48 83 ec 10          	sub    rsp,0x10
   8:	f3 0f 59 05 00 00 00 	mulss  xmm0,DWORD PTR [rip+0x0]        # 10 <_ZN3XGK4DATA4QUAT10postRotX32EPvf+0x10>
   f:	00 
  10:	48 8d 7c 24 0c       	lea    rdi,[rsp+0xc]
  15:	48 8d 74 24 08       	lea    rsi,[rsp+0x8]
  1a:	e8 00 00 00 00       	call   1f <_ZN3XGK4DATA4QUAT10postRotX32EPvf+0x1f>
  1f:	f3 0f 10 4c 24 08    	movss  xmm1,DWORD PTR [rsp+0x8]
  25:	0f c6 c9 00          	shufps xmm1,xmm1,0x0
  29:	0f 10 03             	movups xmm0,XMMWORD PTR [rbx]
  2c:	f3 0f 10 54 24 0c    	movss  xmm2,DWORD PTR [rsp+0xc]
  32:	0f 59 c8             	mulps  xmm1,xmm0
  35:	0f c6 d2 00          	shufps xmm2,xmm2,0x0
  39:	0f c6 c0 1b          	shufps xmm0,xmm0,0x1b
  3d:	0f 28 d9             	movaps xmm3,xmm1
  40:	0f 59 c2             	mulps  xmm0,xmm2
  43:	0f 58 d8             	addps  xmm3,xmm0
  46:	0f 5c c8             	subps  xmm1,xmm0
  49:	0f c6 d9 e4          	shufps xmm3,xmm1,0xe4
  4d:	0f 11 1b             	movups XMMWORD PTR [rbx],xmm3
  50:	48 83 c4 10          	add    rsp,0x10
  54:	5b                   	pop    rbx
  55:	c3                   	ret    

Disassembly of section .text._ZN3XGK4DATA4QUAT10makeRotY32EPvf:

0000000000000000 <_ZN3XGK4DATA4QUAT10makeRotY32EPvf>:
   0:	53                   	push   rbx
   1:	48 89 fb             	mov    rbx,rdi
   4:	48 83 ec 10          	sub    rsp,0x10
   8:	f3 0f 59 05 00 00 00 	mulss  xmm0,DWORD PTR [rip+0x0]        # 10 <_ZN3XGK4DATA4QUAT10makeRotY32EPvf+0x10>
   f:	00 
  10:	48 8d 7c 24 0c       	lea    rdi,[rsp+0xc]
  15:	48 8d 74 24 08       	lea    rsi,[rsp+0x8]
  1a:	e8 00 00 00 00       	call   1f <_ZN3XGK4DATA4QUAT10makeRotY32EPvf+0x1f>
  1f:	f3 0f 10 44 24 0c    	movss  xmm0,DWORD PTR [rsp+0xc]
  25:	c7 03 00 00 00 00    	mov    DWORD PTR [rbx],0x0
  2b:	f3 0f 10 4c 24 08    	movss  xmm1,DWORD PTR [rsp+0x8]
  31:	c7 43 08 00 00 00 00 	mov    DWORD PTR [rbx+0x8],0x0
  38:	f3 0f 11 43 04       	movss  DWORD PTR [rbx+0x4],xmm0
  3d:	f3 0f 11 4b 0c       	movss  DWORD PTR [rbx+0xc],xmm1
  42:	48 83 c4 10          	add    rsp,0x10
  46:	5b                   	pop    rbx
  47:	c3                   	ret    

Disassembly of section .text._ZN3XGK4DATA4QUAT9preRotY32EPvf:

0000000000000000 <_ZN3XGK4DATA4QUAT9preRotY32EPvf>:
   0:	53                   	push   rbx
   1:	48 89 fb             	mov    rbx,rdi
   4:	48 83 ec 10          	sub    rsp,0x10
   8:	f3 0f 59 05 00 00 00 	mulss  xmm0,DWORD PTR [rip+0x0]        # 10 <_ZN3XGK4DATA4QUAT9preRotY32EPvf+0x10>
   f:	00 
  10:	48 8d 7c 24 0c       	lea    rdi,[rsp+0xc]
  15:	48 8d 74 24 08       	lea    rsi,[rsp+0x8]
  1a:	e8 00 00 00 00       	call   1f <_ZN3XGK4DATA4QUAT9preRotY32EPvf+0x1f>
  1f:	f3 0f 10 4c 24 08    	movss  xmm1,DWORD PTR [rsp+0x8]
  25:	0f c6 c9 00          	shufps xmm1,xmm1,0x0
  29:	0f 10 03             	movups xmm0,XMMWORD PTR [rbx]
  2c:	f3 0f 10 54 24 0c    	movss  xmm2,DWORD PTR [rsp+0xc]
  32:	0f 59 c8             	mulps  xmm1,xmm0
  35:	0f c6 d2 00          	shufps xmm2,xmm2,0x0
  39:	0f c6 c0 4e          	shufps xmm0,xmm0,0x4e
  3d:	0f 28 d9             	movaps xmm3,xmm1
  40:	0f 59 c2             	mulps  xmm0,xmm2
  43:	0f 58 d8             	addps  xmm3,xmm0
  46:	0f 5c c8             	subps  xmm1,xmm0
  49:	0f c6 d9 e4          	shufps xmm3,xmm1,0xe4
  4d:	0f 11 1b             	movups XMMWORD PTR [rbx],xmm3
  50:	48 83 c4 10          	add    rsp,0x10
  54:	5b                   	pop    rbx
  55:	c3                   	ret    

Disassembly of section .text._ZN3XGK4DATA4QUAT10postRotY32EPvf:

0000000000000000 <_ZN3XGK4DATA4QUAT10postRotY32EPvf>:
   0:	53                   	push   rbx
   1:	48 89 fb             	mov    rbx,rdi
   4:	48 83 ec 10          	sub    rsp,0x10
   8:	f3 0f 59 05 00 00 00 	mulss  xmm0,DWORD PTR [rip+0x0]        # 10 <_ZN3XGK4DATA4QUAT10postRotY32EPvf+0x10>
   f:	00 
  10:	48 8d 7c 24 0c       	lea    rdi,[rsp+0xc]
  15:	48 8d 74 24 08       	lea    rsi,[rsp+0x8]
  1a:	e8 00 00 00 00       	call   1f <_ZN3XGK4DATA4QUAT10postRotY32EPvf+0x1f>
  1f:	f3 0f 10 2b          	movss  xmm5,DWORD PTR [rbx]
  23:	f3 0f 10 53 04       	movss  xmm2,DWORD PTR [rbx+0x4]
  28:	0f 28 f5             	movaps xmm6,xmm5
  2b:	f3 0f 10 4b 08       	movss  xmm1,DWORD PTR [rbx+0x8]
  30:	f3 0f 10 43 0c       	movss  xmm0,DWORD PTR [rbx+0xc]
  35:	0f 28 f9             	movaps xmm7,xmm1
  38:	44 0f 28 c2          	movaps xmm8,xmm2
  3c:	44 0f 28 c8          	movaps xmm9,xmm0
  40:	f3 0f 10 64 24 08    	movss  xmm4,DWORD PTR [rsp+0x8]
  46:	f3 0f 10 5c 24 0c    	movss  xmm3,DWORD PTR [rsp+0xc]
  4c:	f3 0f 59 f4          	mulss  xmm6,xmm4
  50:	f3 0f 59 fb          	mulss  xmm7,xmm3
  54:	f3 44 0f 59 c4       	mulss  xmm8,xmm4
  59:	f3 44 0f 59 cb       	mulss  xmm9,xmm3
  5e:	f3 0f 59 cc          	mulss  xmm1,xmm4
  62:	f3 0f 59 eb          	mulss  xmm5,xmm3
  66:	f3 0f 5c f7          	subss  xmm6,xmm7
  6a:	f3 0f 59 c4          	mulss  xmm0,xmm4
  6e:	f3 0f 59 d3          	mulss  xmm2,xmm3
  72:	f3 45 0f 58 c1       	addss  xmm8,xmm9
  77:	f3 0f 58 cd          	addss  xmm1,xmm5
  7b:	f3 0f 11 33          	movss  DWORD PTR [rbx],xmm6
  7f:	f3 0f 5c c2          	subss  xmm0,xmm2
  83:	f3 44 0f 11 43 04    	movss  DWORD PTR [rbx+0x4],xmm8
  89:	f3 0f 11 4b 08       	movss  DWORD PTR [rbx+0x8],xmm1
  8e:	f3 0f 11 43 0c       	movss  DWORD PTR [rbx+0xc],xmm0
  93:	48 83 c4 10          	add    rsp,0x10
  97:	5b                   	pop    rbx
  98:	c3                   	ret    

Disassembly of section .text._ZN3XGK4DATA4QUAT10makeRotZ32EPvf:

0000000000000000 <_ZN3XGK4DATA4QUAT10makeRotZ32EPvf>:
   0:	53                   	push   rbx
   1:	48 89 fb             	mov    rbx,rdi
   4:	48 83 ec 10          	sub    rsp,0x10
   8:	f3 0f 59 05 00 00 00 	mulss  xmm0,DWORD PTR [rip+0x0]        # 10 <_ZN3XGK4DATA4QUAT10makeRotZ32EPvf+0x10>
   f:	00 
  10:	48 8d 7c 24 0c       	lea    rdi,[rsp+0xc]
  15:	48 8d 74 24 08       	lea    rsi,[rsp+0x8]
  1a:	e8 00 00 00 00       	call   1f <_ZN3XGK4DATA4QUAT10makeRotZ32EPvf+0x1f>
  1f:	f3 0f 10 44 24 0c    	movss  xmm0,DWORD PTR [rsp+0xc]
  25:	48 c7 03 00 00 00 00 	mov    QWORD PTR [rbx],0x0
  2c:	f3 0f 10 4c 24 08    	movss  xmm1,DWORD PTR [rsp+0x8]
  32:	f3 0f 11 43 08       	movss  DWORD PTR [rbx+0x8],xmm0
  37:	f3 0f 11 4b 0c       	movss  DWORD PTR [rbx+0xc],xmm1
  3c:	48 83 c4 10          	add    rsp,0x10
  40:	5b                   	pop    rbx
  41:	c3                   	ret    

Disassembly of section .text._ZN3XGK4DATA4QUAT9preRotZ32EPvf:

0000000000000000 <_ZN3XGK4DATA4QUAT9preRotZ32EPvf>:
   0:	53                   	push   rbx
   1:	48 89 fb             	mov    rbx,rdi
   4:	48 83 ec 10          	sub    rsp,0x10
   8:	f3 0f 59 05 00 00 00 	mulss  xmm0,DWORD PTR [rip+0x0]        # 10 <_ZN3XGK4DATA4QUAT9preRotZ32EPvf+0x10>
   f:	00 
  10:	48 8d 7c 24 0c       	lea    rdi,[rsp+0xc]
  15:	48 8d 74 24 08       	lea    rsi,[rsp+0x8]
  1a:	e8 00 00 00 00       	call   1f <_ZN3XGK4DATA4QUAT9preRotZ32EPvf+0x1f>
  1f:	f3 0f 10 2b          	movss  xmm5,DWORD PTR [rbx]
  23:	f3 0f 10 4b 04       	movss  xmm1,DWORD PTR [rbx+0x4]
  28:	0f 28 f5             	movaps xmm6,xmm5
  2b:	f3 0f 10 53 08       	movss  xmm2,DWORD PTR [rbx+0x8]
  30:	f3 0f 10 43 0c       	movss  xmm0,DWORD PTR [rbx+0xc]
  35:	0f 28 f9             	movaps xmm7,xmm1
  38:	44 0f 28 c2          	movaps xmm8,xmm2
  3c:	44 0f 28 c8          	movaps xmm9,xmm0
  40:	f3 0f 10 64 24 08    	movss  xmm4,DWORD PTR [rsp+0x8]
  46:	f3 0f 10 5c 24 0c    	movss  xmm3,DWORD PTR [rsp+0xc]
  4c:	f3 0f 59 f4          	mulss  xmm6,xmm4
  50:	f3 0f 59 fb          	mulss  xmm7,xmm3
  54:	f3 0f 59 cc          	mulss  xmm1,xmm4
  58:	f3 0f 59 eb          	mulss  xmm5,xmm3
  5c:	f3 44 0f 59 c4       	mulss  xmm8,xmm4
  61:	f3 44 0f 59 cb       	mulss  xmm9,xmm3
  66:	f3 0f 5c f7          	subss  xmm6,xmm7
  6a:	f3 0f 59 c4          	mulss  xmm0,xmm4
  6e:	f3 0f 59 d3          	mulss  xmm2,xmm3
  72:	f3 0f 58 cd          	addss  xmm1,xmm5
  76:	f3 45 0f 58 c1       	addss  xmm8,xmm9
  7b:	f3 0f 11 33          	movss  DWORD PTR [rbx],xmm6
  7f:	f3 0f 5c c2          	subss  xmm0,xmm2
  83:	f3 0f 11 4b 04       	movss  DWORD PTR [rbx+0x4],xmm1
  88:	f3 44 0f 11 43 08    	movss  DWORD PTR [rbx+0x8],xmm8
  8e:	f3 0f 11 43 0c       	movss  DWORD PTR [rbx+0xc],xmm0
  93:	48 83 c4 10          	add    rsp,0x10
  97:	5b                   	pop    rbx
  98:	c3                   	ret    

Disassembly of section .text._ZN3XGK4DATA4QUAT10postRotZ32EPvf:

0000000000000000 <_ZN3XGK4DATA4QUAT10postRotZ32EPvf>:
   0:	53                   	push   rbx
   1:	48 89 fb             	mov    rbx,rdi
   4:	48 83 ec 10          	sub    rsp,0x10
   8:	f3 0f 59 05 00 00 00 	mulss  xmm0,DWORD PTR [rip+0x0]        # 10 <_ZN3XGK4DATA4QUAT10postRotZ32EPvf+0x10>
   f:	00 
  10:	48 8d 7c 24 0c       	lea    rdi,[rsp+0xc]
  15:	48 8d 74 24 08       	lea    rsi,[rsp+0x8]
  1a:	e8 00 00 00 00       	call   1f <_ZN3XGK4DATA4QUAT10postRotZ32EPvf+0x1f>
  1f:	f3 0f 10 2b          	movss  xmm5,DWORD PTR [rbx]
  23:	f3 0f 10 4b 04       	movss  xmm1,DWORD PTR [rbx+0x4]
  28:	0f 28 f5             	movaps xmm6,xmm5
  2b:	f3 0f 10 53 08       	movss  xmm2,DWORD PTR [rbx+0x8]
  30:	f3 0f 10 43 0c       	movss  xmm0,DWORD PTR [rbx+0xc]
  35:	0f 28 f9             	movaps xmm7,xmm1
  38:	44 0f 28 c2          	movaps xmm8,xmm2
  3c:	44 0f 28 c8          	movaps xmm9,xmm0
  40:	f3 0f 10 64 24 08    	movss  xmm4,DWORD PTR [rsp+0x8]
  46:	f3 0f 10 5c 24 0c    	movss  xmm3,DWORD PTR [rsp+0xc]
  4c:	f3 0f 59 f4          	mulss  xmm6,xmm4
  50:	f3 0f 59 fb          	mulss  xmm7,xmm3
  54:	f3 0f 59 cc          	mulss  xmm1,xmm4
  58:	f3 0f 59 eb          	mulss  xmm5,xmm3
  5c:	f3 44 0f 59 c4       	mulss  xmm8,xmm4
  61:	f3 44 0f 59 cb       	mulss  xmm9,xmm3
  66:	f3 0f 58 f7          	addss  xmm6,xmm7
  6a:	f3 0f 59 c4          	mulss  xmm0,xmm4
  6e:	f3 0f 59 d3          	mulss  xmm2,xmm3
  72:	f3 0f 5c cd          	subss  xmm1,xmm5
  76:	f3 45 0f 58 c1       	addss  xmm8,xmm9
  7b:	f3 0f 11 33          	movss  DWORD PTR [rbx],xmm6
  7f:	f3 0f 5c c2          	subss  xmm0,xmm2
  83:	f3 0f 11 4b 04       	movss  DWORD PTR [rbx+0x4],xmm1
  88:	f3 44 0f 11 43 08    	movss  DWORD PTR [rbx+0x8],xmm8
  8e:	f3 0f 11 43 0c       	movss  DWORD PTR [rbx+0xc],xmm0
  93:	48 83 c4 10          	add    rsp,0x10
  97:	5b                   	pop    rbx
  98:	c3                   	ret    

Disassembly of section .text._ZN3XGK4DATA4QUAT9premul128EPvS2_:

0000000000000000 <_ZN3XGK4DATA4QUAT9premul128EPvS2_>:
   0:	0f 28 0f             	movaps xmm1,XMMWORD PTR [rdi]
   3:	0f 28 d1             	movaps xmm2,xmm1
   6:	0f 28 e1             	movaps xmm4,xmm1
   9:	f3 0f 10 7e 04       	movss  xmm7,DWORD PTR [rsi+0x4]
   e:	f3 44 0f 10 46 08    	movss  xmm8,DWORD PTR [rsi+0x8]
  14:	0f 28 d9             	movaps xmm3,xmm1
  17:	0f c6 d1 4e          	shufps xmm2,xmm1,0x4e
  1b:	0f c6 e1 b1          	shufps xmm4,xmm1,0xb1
  1f:	0f c6 ff 00          	shufps xmm7,xmm7,0x0
  23:	f3 0f 10 46 0c       	movss  xmm0,DWORD PTR [rsi+0xc]
  28:	45 0f c6 c0 00       	shufps xmm8,xmm8,0x0
  2d:	f3 0f 10 2e          	movss  xmm5,DWORD PTR [rsi]
  31:	0f c6 d9 1b          	shufps xmm3,xmm1,0x1b
  35:	0f c6 c0 00          	shufps xmm0,xmm0,0x0
  39:	0f c6 ed 00          	shufps xmm5,xmm5,0x0
  3d:	0f 59 fa             	mulps  xmm7,xmm2
  40:	44 0f 59 c4          	mulps  xmm8,xmm4
  44:	0f 59 c3             	mulps  xmm0,xmm3
  47:	0f 59 cd             	mulps  xmm1,xmm5
  4a:	f2 41 0f d0 f8       	addsubps xmm7,xmm8
  4f:	f2 0f d0 c1          	addsubps xmm0,xmm1
  53:	0f 59 3d 00 00 00 00 	mulps  xmm7,XMMWORD PTR [rip+0x0]        # 5a <_ZN3XGK4DATA4QUAT9premul128EPvS2_+0x5a>
  5a:	0f 28 f0             	movaps xmm6,xmm0
  5d:	0f c6 f0 1b          	shufps xmm6,xmm0,0x1b
  61:	0f 58 fe             	addps  xmm7,xmm6
  64:	0f 29 3f             	movaps XMMWORD PTR [rdi],xmm7
  67:	c3                   	ret    

Disassembly of section .text._ZN3XGK4DATA4QUAT10postmul128EPvS2_:

0000000000000000 <_ZN3XGK4DATA4QUAT10postmul128EPvS2_>:
   0:	0f 28 0e             	movaps xmm1,XMMWORD PTR [rsi]
   3:	0f 28 d1             	movaps xmm2,xmm1
   6:	0f 28 e1             	movaps xmm4,xmm1
   9:	f3 0f 10 7f 04       	movss  xmm7,DWORD PTR [rdi+0x4]
   e:	f3 44 0f 10 47 08    	movss  xmm8,DWORD PTR [rdi+0x8]
  14:	0f 28 d9             	movaps xmm3,xmm1
  17:	0f c6 d1 4e          	shufps xmm2,xmm1,0x4e
  1b:	0f c6 e1 b1          	shufps xmm4,xmm1,0xb1
  1f:	0f c6 ff 00          	shufps xmm7,xmm7,0x0
  23:	f3 0f 10 47 0c       	movss  xmm0,DWORD PTR [rdi+0xc]
  28:	45 0f c6 c0 00       	shufps xmm8,xmm8,0x0
  2d:	f3 0f 10 2f          	movss  xmm5,DWORD PTR [rdi]
  31:	0f c6 d9 1b          	shufps xmm3,xmm1,0x1b
  35:	0f c6 c0 00          	shufps xmm0,xmm0,0x0
  39:	0f c6 ed 00          	shufps xmm5,xmm5,0x0
  3d:	0f 59 fa             	mulps  xmm7,xmm2
  40:	44 0f 59 c4          	mulps  xmm8,xmm4
  44:	0f 59 c3             	mulps  xmm0,xmm3
  47:	0f 59 cd             	mulps  xmm1,xmm5
  4a:	f2 41 0f d0 f8       	addsubps xmm7,xmm8
  4f:	f2 0f d0 c1          	addsubps xmm0,xmm1
  53:	0f 59 3d 00 00 00 00 	mulps  xmm7,XMMWORD PTR [rip+0x0]        # 5a <_ZN3XGK4DATA4QUAT10postmul128EPvS2_+0x5a>
  5a:	0f 28 f0             	movaps xmm6,xmm0
  5d:	0f c6 f0 1b          	shufps xmm6,xmm0,0x1b
  61:	0f 58 fe             	addps  xmm7,xmm6
  64:	0f 29 3f             	movaps XMMWORD PTR [rdi],xmm7
  67:	c3                   	ret    

Disassembly of section .text._ZN3XGK4DATA4QUAT10makeRot128EPvS2_f:

0000000000000000 <_ZN3XGK4DATA4QUAT10makeRot128EPvS2_f>:
   0:	55                   	push   rbp
   1:	53                   	push   rbx
   2:	48 89 f5             	mov    rbp,rsi
   5:	48 89 fb             	mov    rbx,rdi
   8:	48 83 ec 18          	sub    rsp,0x18
   c:	f3 0f 59 05 00 00 00 	mulss  xmm0,DWORD PTR [rip+0x0]        # 14 <_ZN3XGK4DATA4QUAT10makeRot128EPvS2_f+0x14>
  13:	00 
  14:	48 8d 7c 24 0c       	lea    rdi,[rsp+0xc]
  19:	48 8d 74 24 08       	lea    rsi,[rsp+0x8]
  1e:	e8 00 00 00 00       	call   23 <_ZN3XGK4DATA4QUAT10makeRot128EPvS2_f+0x23>
  23:	0f 28 45 00          	movaps xmm0,XMMWORD PTR [rbp+0x0]
  27:	0f 28 c8             	movaps xmm1,xmm0
  2a:	f3 0f 10 54 24 0c    	movss  xmm2,DWORD PTR [rsp+0xc]
  30:	0f c6 c8 1b          	shufps xmm1,xmm0,0x1b
  34:	f3 0f 10 5c 24 08    	movss  xmm3,DWORD PTR [rsp+0x8]
  3a:	0f c6 d2 00          	shufps xmm2,xmm2,0x0
  3e:	0f 59 d1             	mulps  xmm2,xmm1
  41:	0f c6 d2 1b          	shufps xmm2,xmm2,0x1b
  45:	0f 29 13             	movaps XMMWORD PTR [rbx],xmm2
  48:	f3 0f 11 5b 0c       	movss  DWORD PTR [rbx+0xc],xmm3
  4d:	48 83 c4 18          	add    rsp,0x18
  51:	5b                   	pop    rbx
  52:	5d                   	pop    rbp
  53:	c3                   	ret    

Disassembly of section .text._ZN3XGK4DATA4QUAT9preRot128EPvS2_f:

0000000000000000 <_ZN3XGK4DATA4QUAT9preRot128EPvS2_f>:
   0:	55                   	push   rbp
   1:	53                   	push   rbx
   2:	48 89 f5             	mov    rbp,rsi
   5:	48 89 fb             	mov    rbx,rdi
   8:	48 83 ec 18          	sub    rsp,0x18
   c:	f3 0f 59 05 00 00 00 	mulss  xmm0,DWORD PTR [rip+0x0]        # 14 <_ZN3XGK4DATA4QUAT9preRot128EPvS2_f+0x14>
  13:	00 
  14:	48 8d 7c 24 0c       	lea    rdi,[rsp+0xc]
  19:	48 8d 74 24 08       	lea    rsi,[rsp+0x8]
  1e:	e8 00 00 00 00       	call   23 <_ZN3XGK4DATA4QUAT9preRot128EPvS2_f+0x23>
  23:	0f 28 45 00          	movaps xmm0,XMMWORD PTR [rbp+0x0]
  27:	0f 28 c8             	movaps xmm1,xmm0
  2a:	f3 0f 10 74 24 0c    	movss  xmm6,DWORD PTR [rsp+0xc]
  30:	0f c6 c8 1b          	shufps xmm1,xmm0,0x1b
  34:	0f 28 13             	movaps xmm2,XMMWORD PTR [rbx]
  37:	0f c6 f6 00          	shufps xmm6,xmm6,0x0
  3b:	0f 28 ea             	movaps xmm5,xmm2
  3e:	0f 28 e2             	movaps xmm4,xmm2
  41:	0f 28 da             	movaps xmm3,xmm2
  44:	0f 59 f1             	mulps  xmm6,xmm1
  47:	f3 0f 10 7c 24 08    	movss  xmm7,DWORD PTR [rsp+0x8]
  4d:	0f c6 ea 4e          	shufps xmm5,xmm2,0x4e
  51:	0f c6 e2 b1          	shufps xmm4,xmm2,0xb1
  55:	0f c6 da 1b          	shufps xmm3,xmm2,0x1b
  59:	0f c6 f6 1b          	shufps xmm6,xmm6,0x1b
  5d:	0f c6 ff 00          	shufps xmm7,xmm7,0x0
  61:	44 0f 28 c6          	movaps xmm8,xmm6
  65:	44 0f 28 d6          	movaps xmm10,xmm6
  69:	0f 59 fb             	mulps  xmm7,xmm3
  6c:	44 0f c6 c6 00       	shufps xmm8,xmm6,0x0
  71:	44 0f c6 d6 55       	shufps xmm10,xmm6,0x55
  76:	0f c6 f6 aa          	shufps xmm6,xmm6,0xaa
  7a:	41 0f 59 d0          	mulps  xmm2,xmm8
  7e:	44 0f 59 d5          	mulps  xmm10,xmm5
  82:	0f 59 f4             	mulps  xmm6,xmm4
  85:	f2 0f d0 fa          	addsubps xmm7,xmm2
  89:	f2 44 0f d0 d6       	addsubps xmm10,xmm6
  8e:	44 0f 28 cf          	movaps xmm9,xmm7
  92:	44 0f c6 cf 1b       	shufps xmm9,xmm7,0x1b
  97:	44 0f 59 15 00 00 00 	mulps  xmm10,XMMWORD PTR [rip+0x0]        # 9f <_ZN3XGK4DATA4QUAT9preRot128EPvS2_f+0x9f>
  9e:	00 
  9f:	45 0f 58 d1          	addps  xmm10,xmm9
  a3:	44 0f 29 13          	movaps XMMWORD PTR [rbx],xmm10
  a7:	48 83 c4 18          	add    rsp,0x18
  ab:	5b                   	pop    rbx
  ac:	5d                   	pop    rbp
  ad:	c3                   	ret    

Disassembly of section .text._ZN3XGK4DATA4QUAT10postRot128EPvS2_f:

0000000000000000 <_ZN3XGK4DATA4QUAT10postRot128EPvS2_f>:
   0:	55                   	push   rbp
   1:	53                   	push   rbx
   2:	48 89 f5             	mov    rbp,rsi
   5:	48 89 fb             	mov    rbx,rdi
   8:	48 83 ec 48          	sub    rsp,0x48
   c:	f3 0f 59 05 00 00 00 	mulss  xmm0,DWORD PTR [rip+0x0]        # 14 <_ZN3XGK4DATA4QUAT10postRot128EPvS2_f+0x14>
  13:	00 
  14:	48 8d 7c 24 2c       	lea    rdi,[rsp+0x2c]
  19:	48 8d 74 24 28       	lea    rsi,[rsp+0x28]
  1e:	64 48 8b 04 25 28 00 	mov    rax,QWORD PTR fs:0x28
  25:	00 00 
  27:	48 89 44 24 38       	mov    QWORD PTR [rsp+0x38],rax
  2c:	31 c0                	xor    eax,eax
  2e:	e8 00 00 00 00       	call   33 <_ZN3XGK4DATA4QUAT10postRot128EPvS2_f+0x33>
  33:	0f 28 45 00          	movaps xmm0,XMMWORD PTR [rbp+0x0]
  37:	8b 44 24 28          	mov    eax,DWORD PTR [rsp+0x28]
  3b:	0f 28 c8             	movaps xmm1,xmm0
  3e:	f3 0f 10 54 24 2c    	movss  xmm2,DWORD PTR [rsp+0x2c]
  44:	0f c6 d2 00          	shufps xmm2,xmm2,0x0
  48:	0f c6 c8 1b          	shufps xmm1,xmm0,0x1b
  4c:	f3 44 0f 10 03       	movss  xmm8,DWORD PTR [rbx]
  51:	48 c1 e0 20          	shl    rax,0x20
  55:	f3 44 0f 10 53 04    	movss  xmm10,DWORD PTR [rbx+0x4]
  5b:	f3 44 0f 10 5b 08    	movss  xmm11,DWORD PTR [rbx+0x8]
  61:	0f 59 d1             	mulps  xmm2,xmm1
  64:	f3 0f 10 7b 0c       	movss  xmm7,DWORD PTR [rbx+0xc]
  69:	45 0f c6 c0 00       	shufps xmm8,xmm8,0x0
  6e:	45 0f c6 d2 00       	shufps xmm10,xmm10,0x0
  73:	45 0f c6 db 00       	shufps xmm11,xmm11,0x0
  78:	0f c6 d2 1b          	shufps xmm2,xmm2,0x1b
  7c:	0f c6 ff 00          	shufps xmm7,xmm7,0x0
  80:	0f 29 54 24 10       	movaps XMMWORD PTR [rsp+0x10],xmm2
  85:	48 8b 54 24 18       	mov    rdx,QWORD PTR [rsp+0x18]
  8a:	66 0f 6f 64 24 10    	movdqa xmm4,XMMWORD PTR [rsp+0x10]
  90:	89 d1                	mov    ecx,edx
  92:	48 09 c1             	or     rcx,rax
  95:	0f 29 24 24          	movaps XMMWORD PTR [rsp],xmm4
  99:	48 89 4c 24 08       	mov    QWORD PTR [rsp+0x8],rcx
  9e:	48 8b 44 24 38       	mov    rax,QWORD PTR [rsp+0x38]
  a3:	64 48 33 04 25 28 00 	xor    rax,QWORD PTR fs:0x28
  aa:	00 00 
  ac:	0f 28 34 24          	movaps xmm6,XMMWORD PTR [rsp]
  b0:	44 0f 59 04 24       	mulps  xmm8,XMMWORD PTR [rsp]
  b5:	0f 28 1c 24          	movaps xmm3,XMMWORD PTR [rsp]
  b9:	0f c6 f6 4e          	shufps xmm6,xmm6,0x4e
  bd:	0f 28 2c 24          	movaps xmm5,XMMWORD PTR [rsp]
  c1:	0f c6 db b1          	shufps xmm3,xmm3,0xb1
  c5:	0f c6 ed 1b          	shufps xmm5,xmm5,0x1b
  c9:	44 0f 59 d6          	mulps  xmm10,xmm6
  cd:	44 0f 59 db          	mulps  xmm11,xmm3
  d1:	0f 59 fd             	mulps  xmm7,xmm5
  d4:	f2 45 0f d0 d3       	addsubps xmm10,xmm11
  d9:	f2 41 0f d0 f8       	addsubps xmm7,xmm8
  de:	44 0f 59 15 00 00 00 	mulps  xmm10,XMMWORD PTR [rip+0x0]        # e6 <_ZN3XGK4DATA4QUAT10postRot128EPvS2_f+0xe6>
  e5:	00 
  e6:	44 0f 28 cf          	movaps xmm9,xmm7
  ea:	44 0f c6 cf 1b       	shufps xmm9,xmm7,0x1b
  ef:	45 0f 58 d1          	addps  xmm10,xmm9
  f3:	44 0f 29 13          	movaps XMMWORD PTR [rbx],xmm10
  f7:	75 07                	jne    100 <_ZN3XGK4DATA4QUAT10postRot128EPvS2_f+0x100>
  f9:	48 83 c4 48          	add    rsp,0x48
  fd:	5b                   	pop    rbx
  fe:	5d                   	pop    rbp
  ff:	c3                   	ret    
 100:	e8 00 00 00 00       	call   105 <_ZN3XGK4DATA4MAT414makeTransValueE+0x5>

Disassembly of section .text._ZN3XGK4DATA4QUAT11makeRotX128EPvf:

0000000000000000 <_ZN3XGK4DATA4QUAT11makeRotX128EPvf>:
   0:	53                   	push   rbx
   1:	48 89 fb             	mov    rbx,rdi
   4:	48 83 ec 10          	sub    rsp,0x10
   8:	f3 0f 59 05 00 00 00 	mulss  xmm0,DWORD PTR [rip+0x0]        # 10 <_ZN3XGK4DATA4QUAT11makeRotX128EPvf+0x10>
   f:	00 
  10:	48 8d 7c 24 0c       	lea    rdi,[rsp+0xc]
  15:	48 8d 74 24 08       	lea    rsi,[rsp+0x8]
  1a:	e8 00 00 00 00       	call   1f <_ZN3XGK4DATA4QUAT11makeRotX128EPvf+0x1f>
  1f:	f3 0f 10 44 24 0c    	movss  xmm0,DWORD PTR [rsp+0xc]
  25:	48 c7 43 04 00 00 00 	mov    QWORD PTR [rbx+0x4],0x0
  2c:	00 
  2d:	f3 0f 10 4c 24 08    	movss  xmm1,DWORD PTR [rsp+0x8]
  33:	f3 0f 11 03          	movss  DWORD PTR [rbx],xmm0
  37:	f3 0f 11 4b 0c       	movss  DWORD PTR [rbx+0xc],xmm1
  3c:	48 83 c4 10          	add    rsp,0x10
  40:	5b                   	pop    rbx
  41:	c3                   	ret    

Disassembly of section .text._ZN3XGK4DATA4QUAT10preRotX128EPvf:

0000000000000000 <_ZN3XGK4DATA4QUAT10preRotX128EPvf>:
   0:	53                   	push   rbx
   1:	48 89 fb             	mov    rbx,rdi
   4:	48 83 ec 10          	sub    rsp,0x10
   8:	f3 0f 59 05 00 00 00 	mulss  xmm0,DWORD PTR [rip+0x0]        # 10 <_ZN3XGK4DATA4QUAT10preRotX128EPvf+0x10>
   f:	00 
  10:	48 8d 7c 24 0c       	lea    rdi,[rsp+0xc]
  15:	48 8d 74 24 08       	lea    rsi,[rsp+0x8]
  1a:	e8 00 00 00 00       	call   1f <_ZN3XGK4DATA4QUAT10preRotX128EPvf+0x1f>
  1f:	f3 0f 10 44 24 0c    	movss  xmm0,DWORD PTR [rsp+0xc]
  25:	0f 28 e0             	movaps xmm4,xmm0
  28:	0f 28 13             	movaps xmm2,XMMWORD PTR [rbx]
  2b:	0f 57 25 00 00 00 00 	xorps  xmm4,XMMWORD PTR [rip+0x0]        # 32 <_ZN3XGK4DATA4QUAT10preRotX128EPvf+0x32>
  32:	0f 28 da             	movaps xmm3,xmm2
  35:	f3 0f 10 4c 24 08    	movss  xmm1,DWORD PTR [rsp+0x8]
  3b:	0f c6 c9 00          	shufps xmm1,xmm1,0x0
  3f:	0f c6 da 1b          	shufps xmm3,xmm2,0x1b
  43:	0f 14 c4             	unpcklps xmm0,xmm4
  46:	0f 59 ca             	mulps  xmm1,xmm2
  49:	0f 16 c0             	movlhps xmm0,xmm0
  4c:	0f 59 c3             	mulps  xmm0,xmm3
  4f:	0f 58 c1             	addps  xmm0,xmm1
  52:	0f 29 03             	movaps XMMWORD PTR [rbx],xmm0
  55:	48 83 c4 10          	add    rsp,0x10
  59:	5b                   	pop    rbx
  5a:	c3                   	ret    

Disassembly of section .text._ZN3XGK4DATA4QUAT11postRotX128EPvf:

0000000000000000 <_ZN3XGK4DATA4QUAT11postRotX128EPvf>:
   0:	53                   	push   rbx
   1:	48 89 fb             	mov    rbx,rdi
   4:	48 83 ec 10          	sub    rsp,0x10
   8:	f3 0f 59 05 00 00 00 	mulss  xmm0,DWORD PTR [rip+0x0]        # 10 <_ZN3XGK4DATA4QUAT11postRotX128EPvf+0x10>
   f:	00 
  10:	48 8d 7c 24 0c       	lea    rdi,[rsp+0xc]
  15:	48 8d 74 24 08       	lea    rsi,[rsp+0x8]
  1a:	e8 00 00 00 00       	call   1f <_ZN3XGK4DATA4QUAT11postRotX128EPvf+0x1f>
  1f:	f3 0f 10 44 24 0c    	movss  xmm0,DWORD PTR [rsp+0xc]
  25:	0f 28 d0             	movaps xmm2,xmm0
  28:	0f 28 1b             	movaps xmm3,XMMWORD PTR [rbx]
  2b:	0f 14 c0             	unpcklps xmm0,xmm0
  2e:	0f 57 15 00 00 00 00 	xorps  xmm2,XMMWORD PTR [rip+0x0]        # 35 <_ZN3XGK4DATA4QUAT11postRotX128EPvf+0x35>
  35:	0f 28 e3             	movaps xmm4,xmm3
  38:	f3 0f 10 4c 24 08    	movss  xmm1,DWORD PTR [rsp+0x8]
  3e:	0f c6 e3 1b          	shufps xmm4,xmm3,0x1b
  42:	0f c6 c9 00          	shufps xmm1,xmm1,0x0
  46:	0f 14 d2             	unpcklps xmm2,xmm2
  49:	0f 59 cb             	mulps  xmm1,xmm3
  4c:	0f 16 c2             	movlhps xmm0,xmm2
  4f:	0f 59 c4             	mulps  xmm0,xmm4
  52:	0f 58 c1             	addps  xmm0,xmm1
  55:	0f 29 03             	movaps XMMWORD PTR [rbx],xmm0
  58:	48 83 c4 10          	add    rsp,0x10
  5c:	5b                   	pop    rbx
  5d:	c3                   	ret    

Disassembly of section .text._ZN3XGK4DATA4QUAT11makeRotY128EPvf:

0000000000000000 <_ZN3XGK4DATA4QUAT11makeRotY128EPvf>:
   0:	53                   	push   rbx
   1:	48 89 fb             	mov    rbx,rdi
   4:	48 83 ec 10          	sub    rsp,0x10
   8:	f3 0f 59 05 00 00 00 	mulss  xmm0,DWORD PTR [rip+0x0]        # 10 <_ZN3XGK4DATA4QUAT11makeRotY128EPvf+0x10>
   f:	00 
  10:	48 8d 7c 24 0c       	lea    rdi,[rsp+0xc]
  15:	48 8d 74 24 08       	lea    rsi,[rsp+0x8]
  1a:	e8 00 00 00 00       	call   1f <_ZN3XGK4DATA4QUAT11makeRotY128EPvf+0x1f>
  1f:	f3 0f 10 44 24 0c    	movss  xmm0,DWORD PTR [rsp+0xc]
  25:	c7 03 00 00 00 00    	mov    DWORD PTR [rbx],0x0
  2b:	f3 0f 10 4c 24 08    	movss  xmm1,DWORD PTR [rsp+0x8]
  31:	c7 43 08 00 00 00 00 	mov    DWORD PTR [rbx+0x8],0x0
  38:	f3 0f 11 43 04       	movss  DWORD PTR [rbx+0x4],xmm0
  3d:	f3 0f 11 4b 0c       	movss  DWORD PTR [rbx+0xc],xmm1
  42:	48 83 c4 10          	add    rsp,0x10
  46:	5b                   	pop    rbx
  47:	c3                   	ret    

Disassembly of section .text._ZN3XGK4DATA4QUAT10preRotY128EPvf:

0000000000000000 <_ZN3XGK4DATA4QUAT10preRotY128EPvf>:
   0:	53                   	push   rbx
   1:	48 89 fb             	mov    rbx,rdi
   4:	48 83 ec 20          	sub    rsp,0x20
   8:	f3 0f 59 05 00 00 00 	mulss  xmm0,DWORD PTR [rip+0x0]        # 10 <_ZN3XGK4DATA4QUAT10preRotY128EPvf+0x10>
   f:	00 
  10:	48 8d 74 24 18       	lea    rsi,[rsp+0x18]
  15:	0f 28 1f             	movaps xmm3,XMMWORD PTR [rdi]
  18:	48 8d 7c 24 1c       	lea    rdi,[rsp+0x1c]
  1d:	0f 29 1c 24          	movaps XMMWORD PTR [rsp],xmm3
  21:	e8 00 00 00 00       	call   26 <_ZN3XGK4DATA4QUAT10preRotY128EPvf+0x26>
  26:	f3 0f 10 44 24 1c    	movss  xmm0,DWORD PTR [rsp+0x1c]
  2c:	0f 28 d0             	movaps xmm2,xmm0
  2f:	0f 28 2c 24          	movaps xmm5,XMMWORD PTR [rsp]
  33:	0f 14 c0             	unpcklps xmm0,xmm0
  36:	0f 57 15 00 00 00 00 	xorps  xmm2,XMMWORD PTR [rip+0x0]        # 3d <_ZN3XGK4DATA4QUAT10preRotY128EPvf+0x3d>
  3d:	0f 28 e5             	movaps xmm4,xmm5
  40:	f3 0f 10 4c 24 18    	movss  xmm1,DWORD PTR [rsp+0x18]
  46:	0f c6 e5 4e          	shufps xmm4,xmm5,0x4e
  4a:	0f c6 c9 00          	shufps xmm1,xmm1,0x0
  4e:	0f 14 d2             	unpcklps xmm2,xmm2
  51:	0f 59 cd             	mulps  xmm1,xmm5
  54:	0f 16 c2             	movlhps xmm0,xmm2
  57:	0f 59 c4             	mulps  xmm0,xmm4
  5a:	0f 58 c1             	addps  xmm0,xmm1
  5d:	0f 29 03             	movaps XMMWORD PTR [rbx],xmm0
  60:	48 83 c4 20          	add    rsp,0x20
  64:	5b                   	pop    rbx
  65:	c3                   	ret    

Disassembly of section .text._ZN3XGK4DATA4QUAT11postRotY128EPvf:

0000000000000000 <_ZN3XGK4DATA4QUAT11postRotY128EPvf>:
   0:	53                   	push   rbx
   1:	48 89 fb             	mov    rbx,rdi
   4:	48 83 ec 20          	sub    rsp,0x20
   8:	f3 0f 59 05 00 00 00 	mulss  xmm0,DWORD PTR [rip+0x0]        # 10 <_ZN3XGK4DATA4QUAT11postRotY128EPvf+0x10>
   f:	00 
  10:	48 8d 74 24 18       	lea    rsi,[rsp+0x18]
  15:	0f 28 1f             	movaps xmm3,XMMWORD PTR [rdi]
  18:	48 8d 7c 24 1c       	lea    rdi,[rsp+0x1c]
  1d:	0f 29 1c 24          	movaps XMMWORD PTR [rsp],xmm3
  21:	e8 00 00 00 00       	call   26 <_ZN3XGK4DATA4QUAT11postRotY128EPvf+0x26>
  26:	f3 0f 10 54 24 1c    	movss  xmm2,DWORD PTR [rsp+0x1c]
  2c:	0f 28 c2             	movaps xmm0,xmm2
  2f:	0f 28 2c 24          	movaps xmm5,XMMWORD PTR [rsp]
  33:	0f 28 f2             	movaps xmm6,xmm2
  36:	0f 57 05 00 00 00 00 	xorps  xmm0,XMMWORD PTR [rip+0x0]        # 3d <_ZN3XGK4DATA4QUAT11postRotY128EPvf+0x3d>
  3d:	0f 28 e5             	movaps xmm4,xmm5
  40:	f3 0f 10 4c 24 18    	movss  xmm1,DWORD PTR [rsp+0x18]
  46:	0f c6 e5 4e          	shufps xmm4,xmm5,0x4e
  4a:	0f c6 c9 00          	shufps xmm1,xmm1,0x0
  4e:	0f 14 f0             	unpcklps xmm6,xmm0
  51:	0f 14 c2             	unpcklps xmm0,xmm2
  54:	0f 59 cd             	mulps  xmm1,xmm5
  57:	0f 16 c6             	movlhps xmm0,xmm6
  5a:	0f 59 c4             	mulps  xmm0,xmm4
  5d:	0f 58 c1             	addps  xmm0,xmm1
  60:	0f 29 03             	movaps XMMWORD PTR [rbx],xmm0
  63:	48 83 c4 20          	add    rsp,0x20
  67:	5b                   	pop    rbx
  68:	c3                   	ret    

Disassembly of section .text._ZN3XGK4DATA4QUAT11makeRotZ128EPvf:

0000000000000000 <_ZN3XGK4DATA4QUAT11makeRotZ128EPvf>:
   0:	53                   	push   rbx
   1:	48 89 fb             	mov    rbx,rdi
   4:	48 83 ec 10          	sub    rsp,0x10
   8:	f3 0f 59 05 00 00 00 	mulss  xmm0,DWORD PTR [rip+0x0]        # 10 <_ZN3XGK4DATA4QUAT11makeRotZ128EPvf+0x10>
   f:	00 
  10:	48 8d 7c 24 0c       	lea    rdi,[rsp+0xc]
  15:	48 8d 74 24 08       	lea    rsi,[rsp+0x8]
  1a:	e8 00 00 00 00       	call   1f <_ZN3XGK4DATA4QUAT11makeRotZ128EPvf+0x1f>
  1f:	f3 0f 10 44 24 0c    	movss  xmm0,DWORD PTR [rsp+0xc]
  25:	48 c7 03 00 00 00 00 	mov    QWORD PTR [rbx],0x0
  2c:	f3 0f 10 4c 24 08    	movss  xmm1,DWORD PTR [rsp+0x8]
  32:	f3 0f 11 43 08       	movss  DWORD PTR [rbx+0x8],xmm0
  37:	f3 0f 11 4b 0c       	movss  DWORD PTR [rbx+0xc],xmm1
  3c:	48 83 c4 10          	add    rsp,0x10
  40:	5b                   	pop    rbx
  41:	c3                   	ret    

Disassembly of section .text._ZN3XGK4DATA4QUAT10preRotZ128EPvf:

0000000000000000 <_ZN3XGK4DATA4QUAT10preRotZ128EPvf>:
   0:	53                   	push   rbx
   1:	48 89 fb             	mov    rbx,rdi
   4:	48 83 ec 20          	sub    rsp,0x20
   8:	f3 0f 59 05 00 00 00 	mulss  xmm0,DWORD PTR [rip+0x0]        # 10 <_ZN3XGK4DATA4QUAT10preRotZ128EPvf+0x10>
   f:	00 
  10:	48 8d 74 24 18       	lea    rsi,[rsp+0x18]
  15:	0f 28 1f             	movaps xmm3,XMMWORD PTR [rdi]
  18:	48 8d 7c 24 1c       	lea    rdi,[rsp+0x1c]
  1d:	0f 29 1c 24          	movaps XMMWORD PTR [rsp],xmm3
  21:	e8 00 00 00 00       	call   26 <_ZN3XGK4DATA4QUAT10preRotZ128EPvf+0x26>
  26:	f3 0f 10 54 24 1c    	movss  xmm2,DWORD PTR [rsp+0x1c]
  2c:	0f 28 c2             	movaps xmm0,xmm2
  2f:	0f 28 2c 24          	movaps xmm5,XMMWORD PTR [rsp]
  33:	0f 28 f2             	movaps xmm6,xmm2
  36:	0f 57 05 00 00 00 00 	xorps  xmm0,XMMWORD PTR [rip+0x0]        # 3d <_ZN3XGK4DATA4QUAT10preRotZ128EPvf+0x3d>
  3d:	0f 28 e5             	movaps xmm4,xmm5
  40:	f3 0f 10 4c 24 18    	movss  xmm1,DWORD PTR [rsp+0x18]
  46:	0f c6 e5 b1          	shufps xmm4,xmm5,0xb1
  4a:	0f c6 c9 00          	shufps xmm1,xmm1,0x0
  4e:	0f 14 f0             	unpcklps xmm6,xmm0
  51:	0f 14 c2             	unpcklps xmm0,xmm2
  54:	0f 59 cd             	mulps  xmm1,xmm5
  57:	0f 16 c6             	movlhps xmm0,xmm6
  5a:	0f 59 c4             	mulps  xmm0,xmm4
  5d:	0f 58 c1             	addps  xmm0,xmm1
  60:	0f 29 03             	movaps XMMWORD PTR [rbx],xmm0
  63:	48 83 c4 20          	add    rsp,0x20
  67:	5b                   	pop    rbx
  68:	c3                   	ret    

Disassembly of section .text._ZN3XGK4DATA4QUAT11postRotZ128EPvf:

0000000000000000 <_ZN3XGK4DATA4QUAT11postRotZ128EPvf>:
   0:	53                   	push   rbx
   1:	48 89 fb             	mov    rbx,rdi
   4:	48 83 ec 20          	sub    rsp,0x20
   8:	f3 0f 59 05 00 00 00 	mulss  xmm0,DWORD PTR [rip+0x0]        # 10 <_ZN3XGK4DATA4QUAT11postRotZ128EPvf+0x10>
   f:	00 
  10:	48 8d 74 24 18       	lea    rsi,[rsp+0x18]
  15:	0f 28 17             	movaps xmm2,XMMWORD PTR [rdi]
  18:	48 8d 7c 24 1c       	lea    rdi,[rsp+0x1c]
  1d:	0f 29 14 24          	movaps XMMWORD PTR [rsp],xmm2
  21:	e8 00 00 00 00       	call   26 <_ZN3XGK4DATA4QUAT11postRotZ128EPvf+0x26>
  26:	f3 0f 10 44 24 1c    	movss  xmm0,DWORD PTR [rsp+0x1c]
  2c:	0f 28 e0             	movaps xmm4,xmm0
  2f:	0f 28 2c 24          	movaps xmm5,XMMWORD PTR [rsp]
  33:	0f 57 25 00 00 00 00 	xorps  xmm4,XMMWORD PTR [rip+0x0]        # 3a <_ZN3XGK4DATA4QUAT11postRotZ128EPvf+0x3a>
  3a:	0f 28 dd             	movaps xmm3,xmm5
  3d:	f3 0f 10 4c 24 18    	movss  xmm1,DWORD PTR [rsp+0x18]
  43:	0f c6 c9 00          	shufps xmm1,xmm1,0x0
  47:	0f c6 dd b1          	shufps xmm3,xmm5,0xb1
  4b:	0f 14 c4             	unpcklps xmm0,xmm4
  4e:	0f 59 cd             	mulps  xmm1,xmm5
  51:	0f 16 c0             	movlhps xmm0,xmm0
  54:	0f 59 c3             	mulps  xmm0,xmm3
  57:	0f 58 c1             	addps  xmm0,xmm1
  5a:	0f 29 03             	movaps XMMWORD PTR [rbx],xmm0
  5d:	48 83 c4 20          	add    rsp,0x20
  61:	5b                   	pop    rbx
  62:	c3                   	ret    

Disassembly of section .text._ZN3XGK4DATA4MAT45set32EPvffffffffffffffff:

0000000000000000 <_ZN3XGK4DATA4MAT45set32EPvffffffffffffffff>:
   0:	f3 44 0f 10 44 24 28 	movss  xmm8,DWORD PTR [rsp+0x28]
   7:	f3 44 0f 10 4c 24 08 	movss  xmm9,DWORD PTR [rsp+0x8]
   e:	0f 14 c4             	unpcklps xmm0,xmm4
  11:	45 0f 14 c8          	unpcklps xmm9,xmm8
  15:	f3 0f 10 64 24 10    	movss  xmm4,DWORD PTR [rsp+0x10]
  1b:	0f 14 cd             	unpcklps xmm1,xmm5
  1e:	0f 14 d6             	unpcklps xmm2,xmm6
  21:	41 0f 16 c1          	movlhps xmm0,xmm9
  25:	0f 14 df             	unpcklps xmm3,xmm7
  28:	0f 11 07             	movups XMMWORD PTR [rdi],xmm0
  2b:	f3 0f 10 44 24 30    	movss  xmm0,DWORD PTR [rsp+0x30]
  31:	0f 14 e0             	unpcklps xmm4,xmm0
  34:	f3 0f 10 44 24 18    	movss  xmm0,DWORD PTR [rsp+0x18]
  3a:	0f 16 cc             	movlhps xmm1,xmm4
  3d:	0f 11 4f 10          	movups XMMWORD PTR [rdi+0x10],xmm1
  41:	f3 0f 10 4c 24 38    	movss  xmm1,DWORD PTR [rsp+0x38]
  47:	0f 14 c1             	unpcklps xmm0,xmm1
  4a:	0f 16 d0             	movlhps xmm2,xmm0
  4d:	f3 0f 10 44 24 20    	movss  xmm0,DWORD PTR [rsp+0x20]
  53:	0f 11 57 20          	movups XMMWORD PTR [rdi+0x20],xmm2
  57:	f3 0f 10 54 24 40    	movss  xmm2,DWORD PTR [rsp+0x40]
  5d:	0f 14 c2             	unpcklps xmm0,xmm2
  60:	0f 16 d8             	movlhps xmm3,xmm0
  63:	0f 11 5f 30          	movups XMMWORD PTR [rdi+0x30],xmm3
  67:	c3                   	ret    

Disassembly of section .text._ZN3XGK4DATA4MAT48premul32EPvS2_:

0000000000000000 <_ZN3XGK4DATA4MAT48premul32EPvS2_>:
   0:	0f 10 1f             	movups xmm3,XMMWORD PTR [rdi]
   3:	44 0f 28 c3          	movaps xmm8,xmm3
   7:	44 0f 28 cb          	movaps xmm9,xmm3
   b:	0f 10 7e 10          	movups xmm7,XMMWORD PTR [rsi+0x10]
   f:	44 0f c6 c3 55       	shufps xmm8,xmm3,0x55
  14:	44 0f c6 cb aa       	shufps xmm9,xmm3,0xaa
  19:	0f 10 76 20          	movups xmm6,XMMWORD PTR [rsi+0x20]
  1d:	44 0f 28 d3          	movaps xmm10,xmm3
  21:	44 0f 59 c7          	mulps  xmm8,xmm7
  25:	0f 10 2e             	movups xmm5,XMMWORD PTR [rsi]
  28:	44 0f 59 ce          	mulps  xmm9,xmm6
  2c:	0f 10 66 30          	movups xmm4,XMMWORD PTR [rsi+0x30]
  30:	44 0f c6 d3 00       	shufps xmm10,xmm3,0x0
  35:	0f c6 db ff          	shufps xmm3,xmm3,0xff
  39:	0f 10 4f 20          	movups xmm1,XMMWORD PTR [rdi+0x20]
  3d:	44 0f 59 d5          	mulps  xmm10,xmm5
  41:	45 0f 58 c1          	addps  xmm8,xmm9
  45:	0f 10 57 10          	movups xmm2,XMMWORD PTR [rdi+0x10]
  49:	0f 59 dc             	mulps  xmm3,xmm4
  4c:	44 0f 28 f1          	movaps xmm14,xmm1
  50:	0f 10 47 30          	movups xmm0,XMMWORD PTR [rdi+0x30]
  54:	44 0f 28 f9          	movaps xmm15,xmm1
  58:	44 0f c6 f1 55       	shufps xmm14,xmm1,0x55
  5d:	44 0f 28 da          	movaps xmm11,xmm2
  61:	45 0f 58 c2          	addps  xmm8,xmm10
  65:	44 0f c6 f9 aa       	shufps xmm15,xmm1,0xaa
  6a:	44 0f 59 f7          	mulps  xmm14,xmm7
  6e:	44 0f 28 e2          	movaps xmm12,xmm2
  72:	44 0f 28 ea          	movaps xmm13,xmm2
  76:	44 0f 59 fe          	mulps  xmm15,xmm6
  7a:	41 0f 58 d8          	addps  xmm3,xmm8
  7e:	44 0f c6 da 55       	shufps xmm11,xmm2,0x55
  83:	44 0f c6 e2 aa       	shufps xmm12,xmm2,0xaa
  88:	44 0f c6 ea 00       	shufps xmm13,xmm2,0x0
  8d:	45 0f 58 f7          	addps  xmm14,xmm15
  91:	44 0f 59 df          	mulps  xmm11,xmm7
  95:	0f 11 1f             	movups XMMWORD PTR [rdi],xmm3
  98:	0f 28 d9             	movaps xmm3,xmm1
  9b:	44 0f 59 e6          	mulps  xmm12,xmm6
  9f:	0f c6 d9 00          	shufps xmm3,xmm1,0x0
  a3:	0f c6 c9 ff          	shufps xmm1,xmm1,0xff
  a7:	44 0f 59 ed          	mulps  xmm13,xmm5
  ab:	45 0f 58 dc          	addps  xmm11,xmm12
  af:	0f 59 dd             	mulps  xmm3,xmm5
  b2:	0f 59 cc             	mulps  xmm1,xmm4
  b5:	0f c6 d2 ff          	shufps xmm2,xmm2,0xff
  b9:	44 0f 58 f3          	addps  xmm14,xmm3
  bd:	45 0f 58 dd          	addps  xmm11,xmm13
  c1:	0f 59 d4             	mulps  xmm2,xmm4
  c4:	41 0f 58 ce          	addps  xmm1,xmm14
  c8:	41 0f 58 d3          	addps  xmm2,xmm11
  cc:	0f 11 4f 20          	movups XMMWORD PTR [rdi+0x20],xmm1
  d0:	0f 28 c8             	movaps xmm1,xmm0
  d3:	0f c6 c8 55          	shufps xmm1,xmm0,0x55
  d7:	0f 11 57 10          	movups XMMWORD PTR [rdi+0x10],xmm2
  db:	0f 59 cf             	mulps  xmm1,xmm7
  de:	0f 28 f8             	movaps xmm7,xmm0
  e1:	0f c6 f8 aa          	shufps xmm7,xmm0,0xaa
  e5:	0f 59 f7             	mulps  xmm6,xmm7
  e8:	0f 58 ce             	addps  xmm1,xmm6
  eb:	0f 28 f0             	movaps xmm6,xmm0
  ee:	0f c6 f0 00          	shufps xmm6,xmm0,0x0
  f2:	0f c6 c0 ff          	shufps xmm0,xmm0,0xff
  f6:	0f 59 ee             	mulps  xmm5,xmm6
  f9:	0f 59 c4             	mulps  xmm0,xmm4
  fc:	0f 58 cd             	addps  xmm1,xmm5
  ff:	0f 58 c1             	addps  xmm0,xmm1
 102:	0f 11 47 30          	movups XMMWORD PTR [rdi+0x30],xmm0
 106:	c3                   	ret    

Disassembly of section .text._ZN3XGK4DATA4MAT49postmul32EPvS2_:

0000000000000000 <_ZN3XGK4DATA4MAT49postmul32EPvS2_>:
   0:	f3 44 0f 10 76 0c    	movss  xmm14,DWORD PTR [rsi+0xc]
   6:	f3 0f 10 77 0c       	movss  xmm6,DWORD PTR [rdi+0xc]
   b:	f3 44 0f 10 67 1c    	movss  xmm12,DWORD PTR [rdi+0x1c]
  11:	f3 44 0f 10 6f 2c    	movss  xmm13,DWORD PTR [rdi+0x2c]
  17:	f3 44 0f 11 74 24 e8 	movss  DWORD PTR [rsp-0x18],xmm14
  1e:	f3 44 0f 10 76 10    	movss  xmm14,DWORD PTR [rsi+0x10]
  24:	f3 44 0f 10 17       	movss  xmm10,DWORD PTR [rdi]
  29:	f3 0f 10 57 10       	movss  xmm2,DWORD PTR [rdi+0x10]
  2e:	f3 44 0f 10 3e       	movss  xmm15,DWORD PTR [rsi]
  33:	f3 44 0f 10 5e 04    	movss  xmm11,DWORD PTR [rsi+0x4]
  39:	f3 44 0f 10 4e 08    	movss  xmm9,DWORD PTR [rsi+0x8]
  3f:	f3 0f 11 74 24 f4    	movss  DWORD PTR [rsp-0xc],xmm6
  45:	f3 44 0f 11 64 24 f8 	movss  DWORD PTR [rsp-0x8],xmm12
  4c:	f3 44 0f 11 6c 24 fc 	movss  DWORD PTR [rsp-0x4],xmm13
  53:	f3 44 0f 10 66 18    	movss  xmm12,DWORD PTR [rsi+0x18]
  59:	f3 44 0f 10 6e 1c    	movss  xmm13,DWORD PTR [rsi+0x1c]
  5f:	f3 44 0f 11 74 24 d4 	movss  DWORD PTR [rsp-0x2c],xmm14
  66:	f3 0f 10 76 14       	movss  xmm6,DWORD PTR [rsi+0x14]
  6b:	f3 44 0f 10 76 20    	movss  xmm14,DWORD PTR [rsi+0x20]
  71:	f3 0f 10 6f 20       	movss  xmm5,DWORD PTR [rdi+0x20]
  76:	f3 44 0f 10 47 04    	movss  xmm8,DWORD PTR [rdi+0x4]
  7c:	f3 0f 10 4f 14       	movss  xmm1,DWORD PTR [rdi+0x14]
  81:	f3 0f 10 67 24       	movss  xmm4,DWORD PTR [rdi+0x24]
  86:	f3 0f 10 47 08       	movss  xmm0,DWORD PTR [rdi+0x8]
  8b:	f3 0f 10 7f 18       	movss  xmm7,DWORD PTR [rdi+0x18]
  90:	f3 0f 10 5f 28       	movss  xmm3,DWORD PTR [rdi+0x28]
  95:	f3 44 0f 11 4c 24 e4 	movss  DWORD PTR [rsp-0x1c],xmm9
  9c:	f3 44 0f 11 64 24 dc 	movss  DWORD PTR [rsp-0x24],xmm12
  a3:	f3 44 0f 10 4f 30    	movss  xmm9,DWORD PTR [rdi+0x30]
  a9:	f3 44 0f 11 6c 24 c0 	movss  DWORD PTR [rsp-0x40],xmm13
  b0:	f3 44 0f 11 74 24 c4 	movss  DWORD PTR [rsp-0x3c],xmm14
  b7:	f3 0f 11 74 24 d8    	movss  DWORD PTR [rsp-0x28],xmm6
  bd:	f3 0f 10 76 24       	movss  xmm6,DWORD PTR [rsi+0x24]
  c2:	f3 44 0f 11 7c 24 ec 	movss  DWORD PTR [rsp-0x14],xmm15
  c9:	f3 45 0f 59 fa       	mulss  xmm15,xmm10
  ce:	f3 44 0f 11 5c 24 f0 	movss  DWORD PTR [rsp-0x10],xmm11
  d5:	f3 44 0f 59 da       	mulss  xmm11,xmm2
  da:	f3 44 0f 10 76 34    	movss  xmm14,DWORD PTR [rsi+0x34]
  e0:	f3 44 0f 11 74 24 d0 	movss  DWORD PTR [rsp-0x30],xmm14
  e7:	f3 44 0f 10 74 24 e4 	movss  xmm14,DWORD PTR [rsp-0x1c]
  ee:	f3 45 0f 58 df       	addss  xmm11,xmm15
  f3:	f3 44 0f 10 7c 24 e8 	movss  xmm15,DWORD PTR [rsp-0x18]
  fa:	f3 45 0f 59 f9       	mulss  xmm15,xmm9
  ff:	f3 44 0f 10 66 28    	movss  xmm12,DWORD PTR [rsi+0x28]
 105:	f3 44 0f 59 f5       	mulss  xmm14,xmm5
 10a:	f3 44 0f 10 6e 30    	movss  xmm13,DWORD PTR [rsi+0x30]
 110:	f3 0f 11 74 24 c8    	movss  DWORD PTR [rsp-0x38],xmm6
 116:	f3 44 0f 11 64 24 cc 	movss  DWORD PTR [rsp-0x34],xmm12
 11d:	f3 0f 10 76 2c       	movss  xmm6,DWORD PTR [rsi+0x2c]
 122:	f3 45 0f 58 f7       	addss  xmm14,xmm15
 127:	f3 44 0f 10 66 3c    	movss  xmm12,DWORD PTR [rsi+0x3c]
 12d:	f3 44 0f 11 6c 24 e0 	movss  DWORD PTR [rsp-0x20],xmm13
 134:	f3 44 0f 10 6e 38    	movss  xmm13,DWORD PTR [rsi+0x38]
 13a:	f3 44 0f 10 7c 24 c0 	movss  xmm15,DWORD PTR [rsp-0x40]
 141:	f3 45 0f 58 f3       	addss  xmm14,xmm11
 146:	f3 44 0f 10 5c 24 d8 	movss  xmm11,DWORD PTR [rsp-0x28]
 14d:	f3 44 0f 59 da       	mulss  xmm11,xmm2
 152:	f3 45 0f 59 f9       	mulss  xmm15,xmm9
 157:	f3 44 0f 11 37       	movss  DWORD PTR [rdi],xmm14
 15c:	f3 44 0f 10 74 24 d4 	movss  xmm14,DWORD PTR [rsp-0x2c]
 163:	f3 45 0f 59 f2       	mulss  xmm14,xmm10
 168:	f3 45 0f 58 de       	addss  xmm11,xmm14
 16d:	f3 44 0f 10 74 24 dc 	movss  xmm14,DWORD PTR [rsp-0x24]
 174:	f3 44 0f 59 f5       	mulss  xmm14,xmm5
 179:	f3 45 0f 58 f7       	addss  xmm14,xmm15
 17e:	45 0f 28 f9          	movaps xmm15,xmm9
 182:	f3 45 0f 59 cc       	mulss  xmm9,xmm12
 187:	f3 44 0f 59 fe       	mulss  xmm15,xmm6
 18c:	f3 45 0f 58 f3       	addss  xmm14,xmm11
 191:	f3 44 0f 10 5c 24 c8 	movss  xmm11,DWORD PTR [rsp-0x38]
 198:	f3 44 0f 59 da       	mulss  xmm11,xmm2
 19d:	f3 0f 59 54 24 d0    	mulss  xmm2,DWORD PTR [rsp-0x30]
 1a3:	f3 44 0f 11 77 10    	movss  DWORD PTR [rdi+0x10],xmm14
 1a9:	f3 44 0f 10 74 24 c4 	movss  xmm14,DWORD PTR [rsp-0x3c]
 1b0:	f3 45 0f 59 f2       	mulss  xmm14,xmm10
 1b5:	f3 44 0f 59 54 24 e0 	mulss  xmm10,DWORD PTR [rsp-0x20]
 1bc:	f3 45 0f 58 de       	addss  xmm11,xmm14
 1c1:	f3 44 0f 10 74 24 cc 	movss  xmm14,DWORD PTR [rsp-0x34]
 1c8:	f3 44 0f 59 f5       	mulss  xmm14,xmm5
 1cd:	f3 41 0f 59 ed       	mulss  xmm5,xmm13
 1d2:	f3 44 0f 58 d2       	addss  xmm10,xmm2
 1d7:	f3 45 0f 58 f7       	addss  xmm14,xmm15
 1dc:	f3 44 0f 10 7c 24 ec 	movss  xmm15,DWORD PTR [rsp-0x14]
 1e3:	f3 41 0f 58 e9       	addss  xmm5,xmm9
 1e8:	f3 45 0f 58 f3       	addss  xmm14,xmm11
 1ed:	f3 44 0f 10 5c 24 e4 	movss  xmm11,DWORD PTR [rsp-0x1c]
 1f4:	f3 44 0f 58 d5       	addss  xmm10,xmm5
 1f9:	41 0f 28 ef          	movaps xmm5,xmm15
 1fd:	f3 41 0f 59 e8       	mulss  xmm5,xmm8
 202:	f3 44 0f 11 77 20    	movss  DWORD PTR [rdi+0x20],xmm14
 208:	f3 44 0f 11 57 30    	movss  DWORD PTR [rdi+0x30],xmm10
 20e:	f3 44 0f 10 54 24 f0 	movss  xmm10,DWORD PTR [rsp-0x10]
 215:	41 0f 28 d2          	movaps xmm2,xmm10
 219:	f3 44 0f 10 74 24 e8 	movss  xmm14,DWORD PTR [rsp-0x18]
 220:	f3 44 0f 10 4f 34    	movss  xmm9,DWORD PTR [rdi+0x34]
 226:	f3 0f 59 d1          	mulss  xmm2,xmm1
 22a:	f3 45 0f 59 ce       	mulss  xmm9,xmm14
 22f:	f3 0f 58 d5          	addss  xmm2,xmm5
 233:	41 0f 28 eb          	movaps xmm5,xmm11
 237:	f3 0f 59 ec          	mulss  xmm5,xmm4
 23b:	f3 41 0f 58 e9       	addss  xmm5,xmm9
 240:	f3 44 0f 10 4c 24 c0 	movss  xmm9,DWORD PTR [rsp-0x40]
 247:	f3 44 0f 59 4f 34    	mulss  xmm9,DWORD PTR [rdi+0x34]
 24d:	f3 0f 58 ea          	addss  xmm5,xmm2
 251:	f3 0f 10 54 24 d8    	movss  xmm2,DWORD PTR [rsp-0x28]
 257:	f3 0f 59 d1          	mulss  xmm2,xmm1
 25b:	f3 0f 11 6f 04       	movss  DWORD PTR [rdi+0x4],xmm5
 260:	f3 0f 10 6c 24 d4    	movss  xmm5,DWORD PTR [rsp-0x2c]
 266:	f3 41 0f 59 e8       	mulss  xmm5,xmm8
 26b:	f3 0f 58 d5          	addss  xmm2,xmm5
 26f:	f3 0f 10 6c 24 dc    	movss  xmm5,DWORD PTR [rsp-0x24]
 275:	f3 0f 59 ec          	mulss  xmm5,xmm4
 279:	f3 41 0f 58 e9       	addss  xmm5,xmm9
 27e:	f3 44 0f 10 4f 34    	movss  xmm9,DWORD PTR [rdi+0x34]
 284:	f3 44 0f 59 ce       	mulss  xmm9,xmm6
 289:	f3 0f 58 ea          	addss  xmm5,xmm2
 28d:	f3 0f 10 54 24 c8    	movss  xmm2,DWORD PTR [rsp-0x38]
 293:	f3 0f 59 d1          	mulss  xmm2,xmm1
 297:	f3 0f 59 4c 24 d0    	mulss  xmm1,DWORD PTR [rsp-0x30]
 29d:	f3 0f 11 6f 14       	movss  DWORD PTR [rdi+0x14],xmm5
 2a2:	f3 0f 10 6c 24 c4    	movss  xmm5,DWORD PTR [rsp-0x3c]
 2a8:	f3 41 0f 59 e8       	mulss  xmm5,xmm8
 2ad:	f3 44 0f 59 44 24 e0 	mulss  xmm8,DWORD PTR [rsp-0x20]
 2b4:	f3 0f 58 d5          	addss  xmm2,xmm5
 2b8:	f3 0f 10 6c 24 cc    	movss  xmm5,DWORD PTR [rsp-0x34]
 2be:	f3 0f 59 ec          	mulss  xmm5,xmm4
 2c2:	f3 41 0f 59 e5       	mulss  xmm4,xmm13
 2c7:	f3 44 0f 58 c1       	addss  xmm8,xmm1
 2cc:	f3 0f 10 4f 34       	movss  xmm1,DWORD PTR [rdi+0x34]
 2d1:	f3 41 0f 59 cc       	mulss  xmm1,xmm12
 2d6:	f3 41 0f 58 e9       	addss  xmm5,xmm9
 2db:	45 0f 28 cb          	movaps xmm9,xmm11
 2df:	f3 44 0f 59 db       	mulss  xmm11,xmm3
 2e4:	f3 0f 58 e1          	addss  xmm4,xmm1
 2e8:	f3 0f 58 ea          	addss  xmm5,xmm2
 2ec:	f3 44 0f 58 c4       	addss  xmm8,xmm4
 2f1:	41 0f 28 e7          	movaps xmm4,xmm15
 2f5:	f3 0f 11 6f 24       	movss  DWORD PTR [rdi+0x24],xmm5
 2fa:	41 0f 28 ef          	movaps xmm5,xmm15
 2fe:	45 0f 28 fe          	movaps xmm15,xmm14
 302:	f3 0f 59 e0          	mulss  xmm4,xmm0
 306:	f3 44 0f 10 77 38    	movss  xmm14,DWORD PTR [rdi+0x38]
 30c:	f3 45 0f 59 f7       	mulss  xmm14,xmm15
 311:	f3 44 0f 11 47 34    	movss  DWORD PTR [rdi+0x34],xmm8
 317:	45 0f 28 c2          	movaps xmm8,xmm10
 31b:	f3 44 0f 59 d7       	mulss  xmm10,xmm7
 320:	f3 45 0f 58 de       	addss  xmm11,xmm14
 325:	f3 44 0f 10 74 24 dc 	movss  xmm14,DWORD PTR [rsp-0x24]
 32c:	f3 44 0f 58 d4       	addss  xmm10,xmm4
 331:	f3 0f 10 64 24 c0    	movss  xmm4,DWORD PTR [rsp-0x40]
 337:	f3 0f 59 67 38       	mulss  xmm4,DWORD PTR [rdi+0x38]
 33c:	f3 45 0f 58 da       	addss  xmm11,xmm10
 341:	f3 44 0f 10 54 24 d4 	movss  xmm10,DWORD PTR [rsp-0x2c]
 348:	41 0f 28 d2          	movaps xmm2,xmm10
 34c:	f3 0f 59 d0          	mulss  xmm2,xmm0
 350:	f3 44 0f 11 5f 08    	movss  DWORD PTR [rdi+0x8],xmm11
 356:	f3 44 0f 10 5c 24 d8 	movss  xmm11,DWORD PTR [rsp-0x28]
 35d:	41 0f 28 cb          	movaps xmm1,xmm11
 361:	f3 0f 59 cf          	mulss  xmm1,xmm7
 365:	f3 0f 58 ca          	addss  xmm1,xmm2
 369:	41 0f 28 d6          	movaps xmm2,xmm14
 36d:	f3 0f 59 d3          	mulss  xmm2,xmm3
 371:	f3 0f 58 d4          	addss  xmm2,xmm4
 375:	f3 0f 10 67 38       	movss  xmm4,DWORD PTR [rdi+0x38]
 37a:	f3 0f 59 e6          	mulss  xmm4,xmm6
 37e:	f3 0f 58 d1          	addss  xmm2,xmm1
 382:	f3 0f 10 4c 24 c8    	movss  xmm1,DWORD PTR [rsp-0x38]
 388:	f3 0f 59 cf          	mulss  xmm1,xmm7
 38c:	f3 0f 59 7c 24 d0    	mulss  xmm7,DWORD PTR [rsp-0x30]
 392:	f3 0f 11 57 18       	movss  DWORD PTR [rdi+0x18],xmm2
 397:	f3 0f 10 54 24 c4    	movss  xmm2,DWORD PTR [rsp-0x3c]
 39d:	f3 0f 59 d0          	mulss  xmm2,xmm0
 3a1:	f3 0f 58 ca          	addss  xmm1,xmm2
 3a5:	f3 0f 10 54 24 cc    	movss  xmm2,DWORD PTR [rsp-0x34]
 3ab:	f3 0f 59 d3          	mulss  xmm2,xmm3
 3af:	f3 41 0f 59 dd       	mulss  xmm3,xmm13
 3b4:	f3 0f 58 d4          	addss  xmm2,xmm4
 3b8:	f3 0f 10 64 24 e0    	movss  xmm4,DWORD PTR [rsp-0x20]
 3be:	f3 0f 59 c4          	mulss  xmm0,xmm4
 3c2:	f3 0f 58 d1          	addss  xmm2,xmm1
 3c6:	f3 0f 58 f8          	addss  xmm7,xmm0
 3ca:	f3 0f 11 57 28       	movss  DWORD PTR [rdi+0x28],xmm2
 3cf:	f3 0f 10 47 38       	movss  xmm0,DWORD PTR [rdi+0x38]
 3d4:	f3 0f 59 77 3c       	mulss  xmm6,DWORD PTR [rdi+0x3c]
 3d9:	f3 41 0f 59 c4       	mulss  xmm0,xmm12
 3de:	f3 0f 10 4f 3c       	movss  xmm1,DWORD PTR [rdi+0x3c]
 3e3:	f3 41 0f 59 cf       	mulss  xmm1,xmm15
 3e8:	f3 44 0f 10 7c 24 c0 	movss  xmm15,DWORD PTR [rsp-0x40]
 3ef:	f3 44 0f 59 7f 3c    	mulss  xmm15,DWORD PTR [rdi+0x3c]
 3f5:	f3 0f 10 54 24 c4    	movss  xmm2,DWORD PTR [rsp-0x3c]
 3fb:	f3 44 0f 59 67 3c    	mulss  xmm12,DWORD PTR [rdi+0x3c]
 401:	f3 0f 58 d8          	addss  xmm3,xmm0
 405:	0f 28 c5             	movaps xmm0,xmm5
 408:	f3 0f 10 6c 24 fc    	movss  xmm5,DWORD PTR [rsp-0x4]
 40e:	f3 44 0f 59 cd       	mulss  xmm9,xmm5
 413:	f3 44 0f 59 f5       	mulss  xmm14,xmm5
 418:	f3 0f 58 df          	addss  xmm3,xmm7
 41c:	f3 0f 10 7c 24 f4    	movss  xmm7,DWORD PTR [rsp-0xc]
 422:	f3 0f 59 c7          	mulss  xmm0,xmm7
 426:	f3 44 0f 58 c9       	addss  xmm9,xmm1
 42b:	f3 44 0f 59 d7       	mulss  xmm10,xmm7
 430:	f3 0f 59 d7          	mulss  xmm2,xmm7
 434:	f3 45 0f 58 f7       	addss  xmm14,xmm15
 439:	f3 0f 11 5f 38       	movss  DWORD PTR [rdi+0x38],xmm3
 43e:	f3 0f 59 fc          	mulss  xmm7,xmm4
 442:	f3 0f 10 5c 24 f8    	movss  xmm3,DWORD PTR [rsp-0x8]
 448:	f3 44 0f 59 ed       	mulss  xmm13,xmm5
 44d:	f3 44 0f 59 c3       	mulss  xmm8,xmm3
 452:	f3 44 0f 59 db       	mulss  xmm11,xmm3
 457:	f3 45 0f 58 ec       	addss  xmm13,xmm12
 45c:	f3 41 0f 58 c0       	addss  xmm0,xmm8
 461:	f3 44 0f 10 44 24 cc 	movss  xmm8,DWORD PTR [rsp-0x34]
 468:	f3 44 0f 59 c5       	mulss  xmm8,xmm5
 46d:	f3 45 0f 58 d3       	addss  xmm10,xmm11
 472:	f3 44 0f 58 c8       	addss  xmm9,xmm0
 477:	f3 0f 10 44 24 c8    	movss  xmm0,DWORD PTR [rsp-0x38]
 47d:	f3 0f 59 c3          	mulss  xmm0,xmm3
 481:	f3 41 0f 58 f0       	addss  xmm6,xmm8
 486:	f3 0f 59 5c 24 d0    	mulss  xmm3,DWORD PTR [rsp-0x30]
 48c:	f3 45 0f 58 f2       	addss  xmm14,xmm10
 491:	f3 44 0f 11 4f 0c    	movss  DWORD PTR [rdi+0xc],xmm9
 497:	f3 0f 58 d0          	addss  xmm2,xmm0
 49b:	f3 44 0f 11 77 1c    	movss  DWORD PTR [rdi+0x1c],xmm14
 4a1:	f3 0f 58 fb          	addss  xmm7,xmm3
 4a5:	f3 0f 58 f2          	addss  xmm6,xmm2
 4a9:	f3 44 0f 58 ef       	addss  xmm13,xmm7
 4ae:	f3 0f 11 77 2c       	movss  DWORD PTR [rdi+0x2c],xmm6
 4b3:	f3 44 0f 11 6f 3c    	movss  DWORD PTR [rdi+0x3c],xmm13
 4b9:	c3                   	ret    

Disassembly of section .text._ZN3XGK4DATA4MAT411makeTrans32EPvS2_:

0000000000000000 <_ZN3XGK4DATA4MAT411makeTrans32EPvS2_>:
   0:	66 0f 6f 05 00 00 00 	movdqa xmm0,XMMWORD PTR [rip+0x0]        # 8 <_ZN3XGK4DATA4MAT411makeTrans32EPvS2_+0x8>
   7:	00 
   8:	66 0f 6f 0d 00 00 00 	movdqa xmm1,XMMWORD PTR [rip+0x0]        # 10 <_ZN3XGK4DATA4MAT411makeTrans32EPvS2_+0x10>
   f:	00 
  10:	66 0f 6f 15 00 00 00 	movdqa xmm2,XMMWORD PTR [rip+0x0]        # 18 <_ZN3XGK4DATA4MAT411makeTrans32EPvS2_+0x18>
  17:	00 
  18:	0f 11 07             	movups XMMWORD PTR [rdi],xmm0
  1b:	0f 11 4f 10          	movups XMMWORD PTR [rdi+0x10],xmm1
  1f:	0f 11 57 20          	movups XMMWORD PTR [rdi+0x20],xmm2
  23:	f3 0f 6f 1e          	movdqu xmm3,XMMWORD PTR [rsi]
  27:	0f 11 5f 30          	movups XMMWORD PTR [rdi+0x30],xmm3
  2b:	c3                   	ret    

Disassembly of section .text._ZN3XGK4DATA4MAT410preTrans32EPvS2_:

0000000000000000 <_ZN3XGK4DATA4MAT410preTrans32EPvS2_>:
   0:	f3 0f 10 47 30       	movss  xmm0,DWORD PTR [rdi+0x30]
   5:	f3 0f 58 06          	addss  xmm0,DWORD PTR [rsi]
   9:	f3 0f 10 4f 34       	movss  xmm1,DWORD PTR [rdi+0x34]
   e:	f3 0f 10 57 38       	movss  xmm2,DWORD PTR [rdi+0x38]
  13:	f3 0f 11 47 30       	movss  DWORD PTR [rdi+0x30],xmm0
  18:	f3 0f 58 4e 04       	addss  xmm1,DWORD PTR [rsi+0x4]
  1d:	f3 0f 11 4f 34       	movss  DWORD PTR [rdi+0x34],xmm1
  22:	f3 0f 58 56 08       	addss  xmm2,DWORD PTR [rsi+0x8]
  27:	f3 0f 11 57 38       	movss  DWORD PTR [rdi+0x38],xmm2
  2c:	c3                   	ret    

Disassembly of section .text._ZN3XGK4DATA4MAT411postTrans32EPvS2_:

0000000000000000 <_ZN3XGK4DATA4MAT411postTrans32EPvS2_>:
   0:	f3 0f 10 57 20       	movss  xmm2,DWORD PTR [rdi+0x20]
   5:	f3 0f 59 56 08       	mulss  xmm2,DWORD PTR [rsi+0x8]
   a:	f3 0f 10 07          	movss  xmm0,DWORD PTR [rdi]
   e:	f3 0f 10 4f 10       	movss  xmm1,DWORD PTR [rdi+0x10]
  13:	f3 0f 59 06          	mulss  xmm0,DWORD PTR [rsi]
  17:	f3 0f 59 4e 04       	mulss  xmm1,DWORD PTR [rsi+0x4]
  1c:	f3 0f 10 6f 24       	movss  xmm5,DWORD PTR [rdi+0x24]
  21:	f3 0f 10 5f 04       	movss  xmm3,DWORD PTR [rdi+0x4]
  26:	f3 0f 10 67 14       	movss  xmm4,DWORD PTR [rdi+0x14]
  2b:	f3 44 0f 10 47 28    	movss  xmm8,DWORD PTR [rdi+0x28]
  31:	f3 0f 58 57 30       	addss  xmm2,DWORD PTR [rdi+0x30]
  36:	f3 0f 10 77 08       	movss  xmm6,DWORD PTR [rdi+0x8]
  3b:	f3 0f 10 7f 18       	movss  xmm7,DWORD PTR [rdi+0x18]
  40:	f3 0f 58 c1          	addss  xmm0,xmm1
  44:	f3 0f 58 c2          	addss  xmm0,xmm2
  48:	f3 0f 11 47 30       	movss  DWORD PTR [rdi+0x30],xmm0
  4d:	f3 0f 59 6e 08       	mulss  xmm5,DWORD PTR [rsi+0x8]
  52:	f3 0f 59 1e          	mulss  xmm3,DWORD PTR [rsi]
  56:	f3 0f 59 66 04       	mulss  xmm4,DWORD PTR [rsi+0x4]
  5b:	f3 0f 58 6f 34       	addss  xmm5,DWORD PTR [rdi+0x34]
  60:	f3 0f 58 dc          	addss  xmm3,xmm4
  64:	f3 0f 58 dd          	addss  xmm3,xmm5
  68:	f3 0f 11 5f 34       	movss  DWORD PTR [rdi+0x34],xmm3
  6d:	f3 44 0f 59 46 08    	mulss  xmm8,DWORD PTR [rsi+0x8]
  73:	f3 0f 59 36          	mulss  xmm6,DWORD PTR [rsi]
  77:	f3 0f 59 7e 04       	mulss  xmm7,DWORD PTR [rsi+0x4]
  7c:	f3 44 0f 58 47 38    	addss  xmm8,DWORD PTR [rdi+0x38]
  82:	f3 0f 58 f7          	addss  xmm6,xmm7
  86:	f3 41 0f 58 f0       	addss  xmm6,xmm8
  8b:	f3 0f 11 77 38       	movss  DWORD PTR [rdi+0x38],xmm6
  90:	c3                   	ret    

Disassembly of section .text._ZN3XGK4DATA4MAT416makeTransValue32EPvS2_f:

0000000000000000 <_ZN3XGK4DATA4MAT416makeTransValue32EPvS2_f>:
   0:	66 0f 6f 0d 00 00 00 	movdqa xmm1,XMMWORD PTR [rip+0x0]        # 8 <_ZN3XGK4DATA4MAT416makeTransValue32EPvS2_f+0x8>
   7:	00 
   8:	66 0f 6f 15 00 00 00 	movdqa xmm2,XMMWORD PTR [rip+0x0]        # 10 <_ZN3XGK4DATA4MAT416makeTransValue32EPvS2_f+0x10>
   f:	00 
  10:	66 0f 6f 1d 00 00 00 	movdqa xmm3,XMMWORD PTR [rip+0x0]        # 18 <_ZN3XGK4DATA4MAT416makeTransValue32EPvS2_f+0x18>
  17:	00 
  18:	0f 11 0f             	movups XMMWORD PTR [rdi],xmm1
  1b:	0f 11 57 10          	movups XMMWORD PTR [rdi+0x10],xmm2
  1f:	0f 11 5f 20          	movups XMMWORD PTR [rdi+0x20],xmm3
  23:	f3 0f 10 26          	movss  xmm4,DWORD PTR [rsi]
  27:	f3 0f 59 e0          	mulss  xmm4,xmm0
  2b:	f3 0f 11 67 30       	movss  DWORD PTR [rdi+0x30],xmm4
  30:	f3 0f 10 6e 04       	movss  xmm5,DWORD PTR [rsi+0x4]
  35:	f3 0f 59 e8          	mulss  xmm5,xmm0
  39:	f3 0f 11 6f 34       	movss  DWORD PTR [rdi+0x34],xmm5
  3e:	f3 0f 59 46 08       	mulss  xmm0,DWORD PTR [rsi+0x8]
  43:	c7 47 3c 00 00 80 3f 	mov    DWORD PTR [rdi+0x3c],0x3f800000
  4a:	f3 0f 11 47 38       	movss  DWORD PTR [rdi+0x38],xmm0
  4f:	c3                   	ret    

Disassembly of section .text._ZN3XGK4DATA4MAT415preTransValue32EPvS2_f:

0000000000000000 <_ZN3XGK4DATA4MAT415preTransValue32EPvS2_f>:
   0:	f3 0f 10 0e          	movss  xmm1,DWORD PTR [rsi]
   4:	f3 0f 10 56 04       	movss  xmm2,DWORD PTR [rsi+0x4]
   9:	f3 0f 59 c8          	mulss  xmm1,xmm0
   d:	f3 0f 59 d0          	mulss  xmm2,xmm0
  11:	f3 44 0f 10 67 0c    	movss  xmm12,DWORD PTR [rdi+0xc]
  17:	f3 0f 59 46 08       	mulss  xmm0,DWORD PTR [rsi+0x8]
  1c:	f3 0f 10 67 1c       	movss  xmm4,DWORD PTR [rdi+0x1c]
  21:	f3 0f 10 5f 2c       	movss  xmm3,DWORD PTR [rdi+0x2c]
  26:	44 0f 28 d9          	movaps xmm11,xmm1
  2a:	44 0f 28 d1          	movaps xmm10,xmm1
  2e:	44 0f 28 c2          	movaps xmm8,xmm2
  32:	0f 28 fa             	movaps xmm7,xmm2
  35:	0f 28 f2             	movaps xmm6,xmm2
  38:	44 0f 28 c9          	movaps xmm9,xmm1
  3c:	f3 44 0f 59 dc       	mulss  xmm11,xmm4
  41:	0f 28 e8             	movaps xmm5,xmm0
  44:	f3 0f 59 fc          	mulss  xmm7,xmm4
  48:	f3 44 0f 10 6f 3c    	movss  xmm13,DWORD PTR [rdi+0x3c]
  4e:	f3 0f 59 e0          	mulss  xmm4,xmm0
  52:	f3 44 0f 59 d3       	mulss  xmm10,xmm3
  57:	f3 0f 59 f3          	mulss  xmm6,xmm3
  5b:	f3 44 0f 58 5f 10    	addss  xmm11,DWORD PTR [rdi+0x10]
  61:	f3 0f 59 d8          	mulss  xmm3,xmm0
  65:	f3 0f 58 7f 14       	addss  xmm7,DWORD PTR [rdi+0x14]
  6a:	f3 45 0f 59 c4       	mulss  xmm8,xmm12
  6f:	f3 0f 58 67 18       	addss  xmm4,DWORD PTR [rdi+0x18]
  74:	f3 41 0f 59 ec       	mulss  xmm5,xmm12
  79:	f3 44 0f 58 57 20    	addss  xmm10,DWORD PTR [rdi+0x20]
  7f:	f3 45 0f 59 cd       	mulss  xmm9,xmm13
  84:	f3 0f 58 77 24       	addss  xmm6,DWORD PTR [rdi+0x24]
  89:	f3 41 0f 59 d5       	mulss  xmm2,xmm13
  8e:	f3 0f 58 5f 28       	addss  xmm3,DWORD PTR [rdi+0x28]
  93:	f3 41 0f 59 c5       	mulss  xmm0,xmm13
  98:	f3 44 0f 58 47 04    	addss  xmm8,DWORD PTR [rdi+0x4]
  9e:	f3 44 0f 11 5f 10    	movss  DWORD PTR [rdi+0x10],xmm11
  a4:	f3 41 0f 59 cc       	mulss  xmm1,xmm12
  a9:	f3 0f 58 6f 08       	addss  xmm5,DWORD PTR [rdi+0x8]
  ae:	f3 0f 11 7f 14       	movss  DWORD PTR [rdi+0x14],xmm7
  b3:	f3 44 0f 58 4f 30    	addss  xmm9,DWORD PTR [rdi+0x30]
  b9:	f3 0f 11 67 18       	movss  DWORD PTR [rdi+0x18],xmm4
  be:	f3 0f 58 57 34       	addss  xmm2,DWORD PTR [rdi+0x34]
  c3:	f3 44 0f 11 57 20    	movss  DWORD PTR [rdi+0x20],xmm10
  c9:	f3 0f 58 47 38       	addss  xmm0,DWORD PTR [rdi+0x38]
  ce:	f3 0f 11 77 24       	movss  DWORD PTR [rdi+0x24],xmm6
  d3:	f3 0f 58 0f          	addss  xmm1,DWORD PTR [rdi]
  d7:	f3 0f 11 5f 28       	movss  DWORD PTR [rdi+0x28],xmm3
  dc:	f3 44 0f 11 47 04    	movss  DWORD PTR [rdi+0x4],xmm8
  e2:	f3 0f 11 6f 08       	movss  DWORD PTR [rdi+0x8],xmm5
  e7:	f3 44 0f 11 4f 30    	movss  DWORD PTR [rdi+0x30],xmm9
  ed:	f3 0f 11 57 34       	movss  DWORD PTR [rdi+0x34],xmm2
  f2:	f3 0f 11 47 38       	movss  DWORD PTR [rdi+0x38],xmm0
  f7:	f3 0f 11 0f          	movss  DWORD PTR [rdi],xmm1
  fb:	c3                   	ret    

Disassembly of section .text._ZN3XGK4DATA4MAT416postTransValue32EPvS2_f:

0000000000000000 <_ZN3XGK4DATA4MAT416postTransValue32EPvS2_f>:
   0:	f3 0f 10 0e          	movss  xmm1,DWORD PTR [rsi]
   4:	f3 0f 10 56 04       	movss  xmm2,DWORD PTR [rsi+0x4]
   9:	f3 0f 59 c8          	mulss  xmm1,xmm0
   d:	f3 0f 59 d0          	mulss  xmm2,xmm0
  11:	f3 0f 10 67 24       	movss  xmm4,DWORD PTR [rdi+0x24]
  16:	f3 0f 59 46 08       	mulss  xmm0,DWORD PTR [rsi+0x8]
  1b:	f3 44 0f 10 47 28    	movss  xmm8,DWORD PTR [rdi+0x28]
  21:	f3 44 0f 10 5f 2c    	movss  xmm11,DWORD PTR [rdi+0x2c]
  27:	f3 0f 10 6f 04       	movss  xmm5,DWORD PTR [rdi+0x4]
  2c:	f3 0f 10 5f 14       	movss  xmm3,DWORD PTR [rdi+0x14]
  31:	f3 0f 59 e9          	mulss  xmm5,xmm1
  35:	f3 0f 10 7f 08       	movss  xmm7,DWORD PTR [rdi+0x8]
  3a:	f3 0f 59 da          	mulss  xmm3,xmm2
  3e:	f3 0f 10 77 18       	movss  xmm6,DWORD PTR [rdi+0x18]
  43:	f3 0f 59 f9          	mulss  xmm7,xmm1
  47:	f3 0f 59 e0          	mulss  xmm4,xmm0
  4b:	f3 44 0f 10 4f 0c    	movss  xmm9,DWORD PTR [rdi+0xc]
  51:	f3 44 0f 59 c0       	mulss  xmm8,xmm0
  56:	f3 44 0f 10 57 1c    	movss  xmm10,DWORD PTR [rdi+0x1c]
  5c:	f3 44 0f 59 d8       	mulss  xmm11,xmm0
  61:	f3 0f 58 eb          	addss  xmm5,xmm3
  65:	f3 0f 59 47 20       	mulss  xmm0,DWORD PTR [rdi+0x20]
  6a:	f3 0f 59 f2          	mulss  xmm6,xmm2
  6e:	f3 0f 58 67 34       	addss  xmm4,DWORD PTR [rdi+0x34]
  73:	f3 44 0f 59 c9       	mulss  xmm9,xmm1
  78:	f3 44 0f 58 47 38    	addss  xmm8,DWORD PTR [rdi+0x38]
  7e:	f3 44 0f 59 d2       	mulss  xmm10,xmm2
  83:	f3 44 0f 58 5f 3c    	addss  xmm11,DWORD PTR [rdi+0x3c]
  89:	f3 0f 59 0f          	mulss  xmm1,DWORD PTR [rdi]
  8d:	f3 0f 59 57 10       	mulss  xmm2,DWORD PTR [rdi+0x10]
  92:	f3 0f 58 fe          	addss  xmm7,xmm6
  96:	f3 0f 58 47 30       	addss  xmm0,DWORD PTR [rdi+0x30]
  9b:	f3 45 0f 58 ca       	addss  xmm9,xmm10
  a0:	f3 0f 58 ec          	addss  xmm5,xmm4
  a4:	f3 41 0f 58 f8       	addss  xmm7,xmm8
  a9:	f3 0f 58 ca          	addss  xmm1,xmm2
  ad:	f3 45 0f 58 cb       	addss  xmm9,xmm11
  b2:	f3 0f 11 6f 34       	movss  DWORD PTR [rdi+0x34],xmm5
  b7:	f3 0f 11 7f 38       	movss  DWORD PTR [rdi+0x38],xmm7
  bc:	f3 0f 58 c1          	addss  xmm0,xmm1
  c0:	f3 44 0f 11 4f 3c    	movss  DWORD PTR [rdi+0x3c],xmm9
  c6:	f3 0f 11 47 30       	movss  DWORD PTR [rdi+0x30],xmm0
  cb:	c3                   	ret    

Disassembly of section .text._ZN3XGK4DATA4MAT413makeRotQuat32EPvS2_:

0000000000000000 <_ZN3XGK4DATA4MAT413makeRotQuat32EPvS2_>:
   0:	f3 0f 10 56 04       	movss  xmm2,DWORD PTR [rsi+0x4]
   5:	f3 0f 10 4e 08       	movss  xmm1,DWORD PTR [rsi+0x8]
   a:	0f 28 fa             	movaps xmm7,xmm2
   d:	44 0f 28 c1          	movaps xmm8,xmm1
  11:	f3 0f 10 06          	movss  xmm0,DWORD PTR [rsi]
  15:	0f 28 ea             	movaps xmm5,xmm2
  18:	f3 0f 10 66 0c       	movss  xmm4,DWORD PTR [rsi+0xc]
  1d:	c7 47 0c 00 00 00 00 	mov    DWORD PTR [rdi+0xc],0x0
  24:	0f 28 d8             	movaps xmm3,xmm0
  27:	f3 44 0f 59 c4       	mulss  xmm8,xmm4
  2c:	0f 28 f0             	movaps xmm6,xmm0
  2f:	f3 0f 59 fc          	mulss  xmm7,xmm4
  33:	f3 0f 59 e0          	mulss  xmm4,xmm0
  37:	f3 44 0f 10 0d 00 00 	movss  xmm9,DWORD PTR [rip+0x0]        # 40 <_ZN3XGK4DATA4MAT413makeRotQuat32EPvS2_+0x40>
  3e:	00 00 
  40:	f3 0f 59 c0          	mulss  xmm0,xmm0
  44:	45 0f 28 d9          	movaps xmm11,xmm9
  48:	f3 0f 59 da          	mulss  xmm3,xmm2
  4c:	f3 45 0f 58 c0       	addss  xmm8,xmm8
  51:	c7 47 1c 00 00 00 00 	mov    DWORD PTR [rdi+0x1c],0x0
  58:	f3 0f 59 f1          	mulss  xmm6,xmm1
  5c:	f3 0f 58 ff          	addss  xmm7,xmm7
  60:	48 c7 47 2c 00 00 00 	mov    QWORD PTR [rdi+0x2c],0x0
  67:	00 
  68:	f3 0f 59 e9          	mulss  xmm5,xmm1
  6c:	f3 0f 58 e4          	addss  xmm4,xmm4
  70:	48 c7 47 34 00 00 00 	mov    QWORD PTR [rdi+0x34],0x0
  77:	00 
  78:	f3 0f 58 c0          	addss  xmm0,xmm0
  7c:	f3 0f 59 d2          	mulss  xmm2,xmm2
  80:	c7 47 3c 00 00 80 3f 	mov    DWORD PTR [rdi+0x3c],0x3f800000
  87:	f3 0f 59 c9          	mulss  xmm1,xmm1
  8b:	f3 0f 58 db          	addss  xmm3,xmm3
  8f:	f3 0f 58 f6          	addss  xmm6,xmm6
  93:	f3 0f 58 ed          	addss  xmm5,xmm5
  97:	0f 57 05 00 00 00 00 	xorps  xmm0,XMMWORD PTR [rip+0x0]        # 9e <_ZN3XGK4DATA4MAT413makeRotQuat32EPvS2_+0x9e>
  9e:	f3 0f 58 d2          	addss  xmm2,xmm2
  a2:	f3 0f 58 c9          	addss  xmm1,xmm1
  a6:	44 0f 28 e3          	movaps xmm12,xmm3
  aa:	44 0f 28 ee          	movaps xmm13,xmm6
  ae:	f3 41 0f 58 d8       	addss  xmm3,xmm8
  b3:	44 0f 28 d2          	movaps xmm10,xmm2
  b7:	44 0f 28 f0          	movaps xmm14,xmm0
  bb:	f3 44 0f 58 d1       	addss  xmm10,xmm1
  c0:	f3 44 0f 5c f1       	subss  xmm14,xmm1
  c5:	f3 0f 11 5f 04       	movss  DWORD PTR [rdi+0x4],xmm3
  ca:	f3 0f 5c c2          	subss  xmm0,xmm2
  ce:	0f 28 dd             	movaps xmm3,xmm5
  d1:	f3 45 0f 5c e0       	subss  xmm12,xmm8
  d6:	f3 0f 5c dc          	subss  xmm3,xmm4
  da:	45 0f 28 fe          	movaps xmm15,xmm14
  de:	f3 45 0f 5c da       	subss  xmm11,xmm10
  e3:	f3 44 0f 58 ef       	addss  xmm13,xmm7
  e8:	f3 44 0f 11 67 10    	movss  DWORD PTR [rdi+0x10],xmm12
  ee:	f3 45 0f 58 f9       	addss  xmm15,xmm9
  f3:	f3 0f 11 5f 24       	movss  DWORD PTR [rdi+0x24],xmm3
  f8:	f3 0f 5c f7          	subss  xmm6,xmm7
  fc:	f3 0f 58 e5          	addss  xmm4,xmm5
 100:	f3 44 0f 11 1f       	movss  DWORD PTR [rdi],xmm11
 105:	f3 41 0f 58 c1       	addss  xmm0,xmm9
 10a:	f3 44 0f 11 6f 20    	movss  DWORD PTR [rdi+0x20],xmm13
 110:	f3 44 0f 11 7f 14    	movss  DWORD PTR [rdi+0x14],xmm15
 116:	f3 0f 11 77 08       	movss  DWORD PTR [rdi+0x8],xmm6
 11b:	f3 0f 11 67 18       	movss  DWORD PTR [rdi+0x18],xmm4
 120:	f3 0f 11 47 28       	movss  DWORD PTR [rdi+0x28],xmm0
 125:	c3                   	ret    

Disassembly of section .text._ZN3XGK4DATA4MAT412preRotQuat32EPvS2_:

0000000000000000 <_ZN3XGK4DATA4MAT412preRotQuat32EPvS2_>:
   0:	f3 0f 10 76 04       	movss  xmm6,DWORD PTR [rsi+0x4]
   5:	f3 0f 10 26          	movss  xmm4,DWORD PTR [rsi]
   9:	0f 28 d6             	movaps xmm2,xmm6
   c:	f3 44 0f 10 46 08    	movss  xmm8,DWORD PTR [rsi+0x8]
  12:	44 0f 28 ec          	movaps xmm13,xmm4
  16:	f3 41 0f 59 d0       	mulss  xmm2,xmm8
  1b:	0f 28 cc             	movaps xmm1,xmm4
  1e:	44 0f 28 e6          	movaps xmm12,xmm6
  22:	f3 44 0f 59 ee       	mulss  xmm13,xmm6
  27:	41 0f 28 d8          	movaps xmm3,xmm8
  2b:	f3 0f 59 f6          	mulss  xmm6,xmm6
  2f:	f3 44 0f 10 1d 00 00 	movss  xmm11,DWORD PTR [rip+0x0]        # 38 <_ZN3XGK4DATA4MAT412preRotQuat32EPvS2_+0x38>
  36:	00 00 
  38:	f3 41 0f 59 c8       	mulss  xmm1,xmm8
  3d:	0f 28 fa             	movaps xmm7,xmm2
  40:	f3 45 0f 59 c0       	mulss  xmm8,xmm8
  45:	45 0f 28 cb          	movaps xmm9,xmm11
  49:	f3 0f 58 fa          	addss  xmm7,xmm2
  4d:	f3 0f 10 56 0c       	movss  xmm2,DWORD PTR [rsi+0xc]
  52:	f3 0f 58 f6          	addss  xmm6,xmm6
  56:	f3 0f 59 da          	mulss  xmm3,xmm2
  5a:	f3 44 0f 59 e2       	mulss  xmm12,xmm2
  5f:	f3 45 0f 58 ed       	addss  xmm13,xmm13
  64:	f3 45 0f 58 c0       	addss  xmm8,xmm8
  69:	f3 0f 59 d4          	mulss  xmm2,xmm4
  6d:	f3 0f 59 e4          	mulss  xmm4,xmm4
  71:	f3 0f 58 c9          	addss  xmm1,xmm1
  75:	0f 28 c6             	movaps xmm0,xmm6
  78:	f3 44 0f 10 77 20    	movss  xmm14,DWORD PTR [rdi+0x20]
  7e:	f3 0f 58 db          	addss  xmm3,xmm3
  82:	45 0f 28 d5          	movaps xmm10,xmm13
  86:	f3 41 0f 58 c0       	addss  xmm0,xmm8
  8b:	f3 0f 58 e4          	addss  xmm4,xmm4
  8f:	0f 28 e9             	movaps xmm5,xmm1
  92:	f3 45 0f 58 e4       	addss  xmm12,xmm12
  97:	f3 44 0f 5c d3       	subss  xmm10,xmm3
  9c:	f3 44 0f 5c c8       	subss  xmm9,xmm0
  a1:	0f 28 c4             	movaps xmm0,xmm4
  a4:	0f 28 e7             	movaps xmm4,xmm7
  a7:	f3 41 0f 58 ec       	addss  xmm5,xmm12
  ac:	0f 57 05 00 00 00 00 	xorps  xmm0,XMMWORD PTR [rip+0x0]        # b3 <_ZN3XGK4DATA4MAT412preRotQuat32EPvS2_+0xb3>
  b3:	f3 41 0f 5c cc       	subss  xmm1,xmm12
  b8:	f3 44 0f 10 67 30    	movss  xmm12,DWORD PTR [rdi+0x30]
  be:	f3 0f 58 d2          	addss  xmm2,xmm2
  c2:	f3 44 0f 11 64 24 f8 	movss  DWORD PTR [rsp-0x8],xmm12
  c9:	f3 41 0f 58 dd       	addss  xmm3,xmm13
  ce:	f3 44 0f 10 67 08    	movss  xmm12,DWORD PTR [rdi+0x8]
  d4:	f3 44 0f 59 e5       	mulss  xmm12,xmm5
  d9:	f3 44 0f 10 6f 14    	movss  xmm13,DWORD PTR [rdi+0x14]
  df:	44 0f 28 f8          	movaps xmm15,xmm0
  e3:	f3 44 0f 11 6c 24 f4 	movss  DWORD PTR [rsp-0xc],xmm13
  ea:	f3 0f 5c c6          	subss  xmm0,xmm6
  ee:	f3 0f 10 77 10       	movss  xmm6,DWORD PTR [rdi+0x10]
  f3:	f3 45 0f 5c f8       	subss  xmm15,xmm8
  f8:	f3 44 0f 10 6f 24    	movss  xmm13,DWORD PTR [rdi+0x24]
  fe:	f3 0f 5c e2          	subss  xmm4,xmm2
 102:	f3 0f 58 d7          	addss  xmm2,xmm7
 106:	f3 0f 10 3f          	movss  xmm7,DWORD PTR [rdi]
 10a:	f3 41 0f 58 c3       	addss  xmm0,xmm11
 10f:	45 0f 28 c7          	movaps xmm8,xmm15
 113:	f3 44 0f 10 7f 34    	movss  xmm15,DWORD PTR [rdi+0x34]
 119:	f3 44 0f 11 7c 24 fc 	movss  DWORD PTR [rsp-0x4],xmm15
 120:	45 0f 28 fa          	movaps xmm15,xmm10
 124:	f3 45 0f 58 c3       	addss  xmm8,xmm11
 129:	f3 44 0f 10 5f 04    	movss  xmm11,DWORD PTR [rdi+0x4]
 12f:	f3 45 0f 59 fb       	mulss  xmm15,xmm11
 134:	f3 45 0f 58 e7       	addss  xmm12,xmm15
 139:	45 0f 28 f9          	movaps xmm15,xmm9
 13d:	f3 44 0f 59 ff       	mulss  xmm15,xmm7
 142:	f3 45 0f 58 e7       	addss  xmm12,xmm15
 147:	f3 44 0f 10 7c 24 f4 	movss  xmm15,DWORD PTR [rsp-0xc]
 14e:	f3 45 0f 59 fa       	mulss  xmm15,xmm10
 153:	f3 44 0f 11 27       	movss  DWORD PTR [rdi],xmm12
 158:	f3 44 0f 10 67 18    	movss  xmm12,DWORD PTR [rdi+0x18]
 15e:	f3 44 0f 59 e5       	mulss  xmm12,xmm5
 163:	f3 45 0f 58 e7       	addss  xmm12,xmm15
 168:	45 0f 28 f9          	movaps xmm15,xmm9
 16c:	f3 44 0f 59 fe       	mulss  xmm15,xmm6
 171:	f3 45 0f 58 e7       	addss  xmm12,xmm15
 176:	45 0f 28 fa          	movaps xmm15,xmm10
 17a:	f3 45 0f 59 fd       	mulss  xmm15,xmm13
 17f:	f3 44 0f 11 67 10    	movss  DWORD PTR [rdi+0x10],xmm12
 185:	f3 44 0f 10 67 28    	movss  xmm12,DWORD PTR [rdi+0x28]
 18b:	f3 44 0f 59 e5       	mulss  xmm12,xmm5
 190:	f3 0f 59 6f 38       	mulss  xmm5,DWORD PTR [rdi+0x38]
 195:	f3 45 0f 58 e7       	addss  xmm12,xmm15
 19a:	45 0f 28 f9          	movaps xmm15,xmm9
 19e:	f3 45 0f 59 fe       	mulss  xmm15,xmm14
 1a3:	f3 45 0f 58 e7       	addss  xmm12,xmm15
 1a8:	f3 44 0f 10 7c 24 fc 	movss  xmm15,DWORD PTR [rsp-0x4]
 1af:	f3 45 0f 59 d7       	mulss  xmm10,xmm15
 1b4:	f3 44 0f 11 67 20    	movss  DWORD PTR [rdi+0x20],xmm12
 1ba:	f3 44 0f 10 64 24 f8 	movss  xmm12,DWORD PTR [rsp-0x8]
 1c1:	f3 44 0f 58 d5       	addss  xmm10,xmm5
 1c6:	f3 45 0f 59 cc       	mulss  xmm9,xmm12
 1cb:	41 0f 28 e8          	movaps xmm5,xmm8
 1cf:	f3 41 0f 59 eb       	mulss  xmm5,xmm11
 1d4:	f3 44 0f 59 da       	mulss  xmm11,xmm2
 1d9:	f3 45 0f 58 d1       	addss  xmm10,xmm9
 1de:	44 0f 28 cb          	movaps xmm9,xmm3
 1e2:	f3 44 0f 59 cf       	mulss  xmm9,xmm7
 1e7:	f3 0f 59 f9          	mulss  xmm7,xmm1
 1eb:	f3 44 0f 11 57 30    	movss  DWORD PTR [rdi+0x30],xmm10
 1f1:	f3 44 0f 10 57 08    	movss  xmm10,DWORD PTR [rdi+0x8]
 1f7:	f3 44 0f 59 d4       	mulss  xmm10,xmm4
 1fc:	f3 41 0f 58 fb       	addss  xmm7,xmm11
 201:	f3 45 0f 58 d1       	addss  xmm10,xmm9
 206:	44 0f 28 cb          	movaps xmm9,xmm3
 20a:	f3 44 0f 59 ce       	mulss  xmm9,xmm6
 20f:	f3 0f 59 f1          	mulss  xmm6,xmm1
 213:	f3 44 0f 58 d5       	addss  xmm10,xmm5
 218:	f3 0f 10 6f 18       	movss  xmm5,DWORD PTR [rdi+0x18]
 21d:	f3 0f 59 ec          	mulss  xmm5,xmm4
 221:	f3 44 0f 11 57 04    	movss  DWORD PTR [rdi+0x4],xmm10
 227:	f3 44 0f 10 54 24 f4 	movss  xmm10,DWORD PTR [rsp-0xc]
 22e:	f3 41 0f 58 e9       	addss  xmm5,xmm9
 233:	45 0f 28 ca          	movaps xmm9,xmm10
 237:	f3 44 0f 59 d2       	mulss  xmm10,xmm2
 23c:	f3 45 0f 59 c8       	mulss  xmm9,xmm8
 241:	f3 41 0f 58 f2       	addss  xmm6,xmm10
 246:	f3 41 0f 58 e9       	addss  xmm5,xmm9
 24b:	44 0f 28 cb          	movaps xmm9,xmm3
 24f:	f3 41 0f 59 dc       	mulss  xmm3,xmm12
 254:	f3 45 0f 59 ce       	mulss  xmm9,xmm14
 259:	f3 44 0f 59 f1       	mulss  xmm14,xmm1
 25e:	f3 0f 11 6f 14       	movss  DWORD PTR [rdi+0x14],xmm5
 263:	f3 41 0f 59 cc       	mulss  xmm1,xmm12
 268:	f3 0f 10 6f 28       	movss  xmm5,DWORD PTR [rdi+0x28]
 26d:	f3 0f 59 ec          	mulss  xmm5,xmm4
 271:	f3 0f 59 67 38       	mulss  xmm4,DWORD PTR [rdi+0x38]
 276:	f3 41 0f 58 e9       	addss  xmm5,xmm9
 27b:	45 0f 28 c8          	movaps xmm9,xmm8
 27f:	f3 45 0f 59 c7       	mulss  xmm8,xmm15
 284:	f3 45 0f 59 cd       	mulss  xmm9,xmm13
 289:	f3 0f 58 dc          	addss  xmm3,xmm4
 28d:	f3 44 0f 59 ea       	mulss  xmm13,xmm2
 292:	f3 41 0f 59 d7       	mulss  xmm2,xmm15
 297:	f3 0f 10 67 28       	movss  xmm4,DWORD PTR [rdi+0x28]
 29c:	f3 0f 59 e0          	mulss  xmm4,xmm0
 2a0:	f3 41 0f 58 e9       	addss  xmm5,xmm9
 2a5:	f3 41 0f 58 d8       	addss  xmm3,xmm8
 2aa:	f3 44 0f 10 47 18    	movss  xmm8,DWORD PTR [rdi+0x18]
 2b0:	f3 44 0f 59 c0       	mulss  xmm8,xmm0
 2b5:	f3 45 0f 58 f5       	addss  xmm14,xmm13
 2ba:	f3 0f 58 d1          	addss  xmm2,xmm1
 2be:	f3 0f 11 6f 24       	movss  DWORD PTR [rdi+0x24],xmm5
 2c3:	f3 0f 11 5f 34       	movss  DWORD PTR [rdi+0x34],xmm3
 2c8:	f3 0f 10 5f 08       	movss  xmm3,DWORD PTR [rdi+0x8]
 2cd:	f3 41 0f 58 f0       	addss  xmm6,xmm8
 2d2:	f3 0f 59 d8          	mulss  xmm3,xmm0
 2d6:	f3 44 0f 58 f4       	addss  xmm14,xmm4
 2db:	f3 0f 59 47 38       	mulss  xmm0,DWORD PTR [rdi+0x38]
 2e0:	f3 0f 11 77 18       	movss  DWORD PTR [rdi+0x18],xmm6
 2e5:	f3 0f 58 fb          	addss  xmm7,xmm3
 2e9:	f3 44 0f 11 77 28    	movss  DWORD PTR [rdi+0x28],xmm14
 2ef:	f3 0f 58 c2          	addss  xmm0,xmm2
 2f3:	f3 0f 11 7f 08       	movss  DWORD PTR [rdi+0x8],xmm7
 2f8:	f3 0f 11 47 38       	movss  DWORD PTR [rdi+0x38],xmm0
 2fd:	c3                   	ret    

Disassembly of section .text._ZN3XGK4DATA4MAT413postRotQuat32EPvS2_:

0000000000000000 <_ZN3XGK4DATA4MAT413postRotQuat32EPvS2_>:
   0:	f3 0f 10 2e          	movss  xmm5,DWORD PTR [rsi]
   4:	0f 28 c5             	movaps xmm0,xmm5
   7:	f3 0f 10 76 04       	movss  xmm6,DWORD PTR [rsi+0x4]
   c:	0f 28 d5             	movaps xmm2,xmm5
   f:	f3 0f 59 c6          	mulss  xmm0,xmm6
  13:	44 0f 28 de          	movaps xmm11,xmm6
  17:	44 0f 28 e6          	movaps xmm12,xmm6
  1b:	f3 0f 59 f6          	mulss  xmm6,xmm6
  1f:	f3 0f 10 4e 08       	movss  xmm1,DWORD PTR [rsi+0x8]
  24:	f3 0f 59 d1          	mulss  xmm2,xmm1
  28:	f3 44 0f 10 56 0c    	movss  xmm10,DWORD PTR [rsi+0xc]
  2e:	0f 28 f8             	movaps xmm7,xmm0
  31:	f3 44 0f 59 d9       	mulss  xmm11,xmm1
  36:	f3 0f 58 f6          	addss  xmm6,xmm6
  3a:	f3 45 0f 59 e2       	mulss  xmm12,xmm10
  3f:	f3 0f 58 f8          	addss  xmm7,xmm0
  43:	0f 28 c1             	movaps xmm0,xmm1
  46:	f3 0f 59 c9          	mulss  xmm1,xmm1
  4a:	f3 0f 58 d2          	addss  xmm2,xmm2
  4e:	f3 41 0f 59 c2       	mulss  xmm0,xmm10
  53:	f3 44 0f 10 2d 00 00 	movss  xmm13,DWORD PTR [rip+0x0]        # 5c <_ZN3XGK4DATA4MAT413postRotQuat32EPvS2_+0x5c>
  5a:	00 00 
  5c:	f3 44 0f 59 d5       	mulss  xmm10,xmm5
  61:	0f 28 de             	movaps xmm3,xmm6
  64:	f3 0f 59 ed          	mulss  xmm5,xmm5
  68:	f3 45 0f 58 e4       	addss  xmm12,xmm12
  6d:	f3 0f 58 c9          	addss  xmm1,xmm1
  71:	0f 28 e7             	movaps xmm4,xmm7
  74:	f3 0f 58 c0          	addss  xmm0,xmm0
  78:	45 0f 28 cd          	movaps xmm9,xmm13
  7c:	f3 44 0f 10 7f 18    	movss  xmm15,DWORD PTR [rdi+0x18]
  82:	f3 45 0f 58 db       	addss  xmm11,xmm11
  87:	f3 0f 58 ed          	addss  xmm5,xmm5
  8b:	f3 44 0f 11 7c 24 fc 	movss  DWORD PTR [rsp-0x4],xmm15
  92:	f3 0f 58 d9          	addss  xmm3,xmm1
  96:	f3 44 0f 10 77 08    	movss  xmm14,DWORD PTR [rdi+0x8]
  9c:	f3 0f 5c e0          	subss  xmm4,xmm0
  a0:	f3 0f 58 c7          	addss  xmm0,xmm7
  a4:	45 0f 28 c3          	movaps xmm8,xmm11
  a8:	0f 57 2d 00 00 00 00 	xorps  xmm5,XMMWORD PTR [rip+0x0]        # af <_ZN3XGK4DATA4MAT413postRotQuat32EPvS2_+0xaf>
  af:	f3 45 0f 58 d2       	addss  xmm10,xmm10
  b4:	f3 44 0f 5c cb       	subss  xmm9,xmm3
  b9:	0f 28 da             	movaps xmm3,xmm2
  bc:	f3 41 0f 5c d4       	subss  xmm2,xmm12
  c1:	44 0f 28 f8          	movaps xmm15,xmm0
  c5:	f3 41 0f 58 dc       	addss  xmm3,xmm12
  ca:	f3 44 0f 10 67 20    	movss  xmm12,DWORD PTR [rdi+0x20]
  d0:	0f 28 fd             	movaps xmm7,xmm5
  d3:	f3 0f 5c ee          	subss  xmm5,xmm6
  d7:	f3 0f 10 77 10       	movss  xmm6,DWORD PTR [rdi+0x10]
  dc:	f3 44 0f 59 fe       	mulss  xmm15,xmm6
  e1:	f3 0f 5c f9          	subss  xmm7,xmm1
  e5:	f3 44 0f 59 e2       	mulss  xmm12,xmm2
  ea:	41 0f 28 cb          	movaps xmm1,xmm11
  ee:	f3 44 0f 10 1f       	movss  xmm11,DWORD PTR [rdi]
  f3:	f3 45 0f 5c c2       	subss  xmm8,xmm10
  f8:	f3 41 0f 58 ca       	addss  xmm1,xmm10
  fd:	f3 44 0f 10 57 14    	movss  xmm10,DWORD PTR [rdi+0x14]
 103:	f3 41 0f 58 fd       	addss  xmm7,xmm13
 108:	f3 45 0f 58 e7       	addss  xmm12,xmm15
 10d:	45 0f 28 f9          	movaps xmm15,xmm9
 111:	f3 44 0f 58 ed       	addss  xmm13,xmm5
 116:	f3 0f 10 6f 04       	movss  xmm5,DWORD PTR [rdi+0x4]
 11b:	f3 45 0f 59 fb       	mulss  xmm15,xmm11
 120:	f3 45 0f 58 e7       	addss  xmm12,xmm15
 125:	44 0f 28 fc          	movaps xmm15,xmm4
 129:	f3 45 0f 59 fb       	mulss  xmm15,xmm11
 12e:	f3 44 0f 59 db       	mulss  xmm11,xmm3
 133:	f3 44 0f 11 27       	movss  DWORD PTR [rdi],xmm12
 138:	f3 44 0f 10 67 20    	movss  xmm12,DWORD PTR [rdi+0x20]
 13e:	f3 44 0f 59 e1       	mulss  xmm12,xmm1
 143:	f3 45 0f 58 e7       	addss  xmm12,xmm15
 148:	44 0f 28 ff          	movaps xmm15,xmm7
 14c:	f3 44 0f 59 fe       	mulss  xmm15,xmm6
 151:	f3 41 0f 59 f0       	mulss  xmm6,xmm8
 156:	f3 45 0f 58 e7       	addss  xmm12,xmm15
 15b:	45 0f 28 f9          	movaps xmm15,xmm9
 15f:	f3 44 0f 58 de       	addss  xmm11,xmm6
 164:	f3 0f 10 77 20       	movss  xmm6,DWORD PTR [rdi+0x20]
 169:	f3 41 0f 59 f5       	mulss  xmm6,xmm13
 16e:	f3 44 0f 59 fd       	mulss  xmm15,xmm5
 173:	f3 44 0f 11 67 10    	movss  DWORD PTR [rdi+0x10],xmm12
 179:	f3 45 0f 59 ce       	mulss  xmm9,xmm14
 17e:	f3 44 0f 10 67 24    	movss  xmm12,DWORD PTR [rdi+0x24]
 184:	f3 44 0f 58 de       	addss  xmm11,xmm6
 189:	f3 44 0f 59 e2       	mulss  xmm12,xmm2
 18e:	f3 0f 10 77 24       	movss  xmm6,DWORD PTR [rdi+0x24]
 193:	f3 0f 59 57 28       	mulss  xmm2,DWORD PTR [rdi+0x28]
 198:	f3 0f 59 f1          	mulss  xmm6,xmm1
 19c:	f3 0f 59 4f 28       	mulss  xmm1,DWORD PTR [rdi+0x28]
 1a1:	f3 44 0f 11 5f 20    	movss  DWORD PTR [rdi+0x20],xmm11
 1a7:	44 0f 28 d8          	movaps xmm11,xmm0
 1ab:	f3 45 0f 59 da       	mulss  xmm11,xmm10
 1b0:	f3 45 0f 58 e3       	addss  xmm12,xmm11
 1b5:	44 0f 28 dc          	movaps xmm11,xmm4
 1b9:	f3 41 0f 59 e6       	mulss  xmm4,xmm14
 1be:	f3 44 0f 59 dd       	mulss  xmm11,xmm5
 1c3:	f3 0f 59 eb          	mulss  xmm5,xmm3
 1c7:	f3 45 0f 58 e7       	addss  xmm12,xmm15
 1cc:	f3 41 0f 59 de       	mulss  xmm3,xmm14
 1d1:	f3 0f 58 cc          	addss  xmm1,xmm4
 1d5:	f3 41 0f 58 f3       	addss  xmm6,xmm11
 1da:	f3 44 0f 11 67 04    	movss  DWORD PTR [rdi+0x4],xmm12
 1e0:	44 0f 28 e7          	movaps xmm12,xmm7
 1e4:	f3 45 0f 59 e2       	mulss  xmm12,xmm10
 1e9:	f3 45 0f 59 d0       	mulss  xmm10,xmm8
 1ee:	f3 41 0f 58 f4       	addss  xmm6,xmm12
 1f3:	f3 41 0f 58 ea       	addss  xmm5,xmm10
 1f8:	f3 44 0f 10 57 24    	movss  xmm10,DWORD PTR [rdi+0x24]
 1fe:	f3 45 0f 59 d5       	mulss  xmm10,xmm13
 203:	f3 44 0f 59 6f 28    	mulss  xmm13,DWORD PTR [rdi+0x28]
 209:	f3 0f 11 77 14       	movss  DWORD PTR [rdi+0x14],xmm6
 20e:	f3 41 0f 58 ea       	addss  xmm5,xmm10
 213:	f3 0f 11 6f 24       	movss  DWORD PTR [rdi+0x24],xmm5
 218:	f3 0f 10 6c 24 fc    	movss  xmm5,DWORD PTR [rsp-0x4]
 21e:	f3 0f 59 c5          	mulss  xmm0,xmm5
 222:	f3 44 0f 59 c5       	mulss  xmm8,xmm5
 227:	f3 0f 59 fd          	mulss  xmm7,xmm5
 22b:	f3 0f 58 d0          	addss  xmm2,xmm0
 22f:	f3 41 0f 58 d8       	addss  xmm3,xmm8
 234:	f3 0f 58 f9          	addss  xmm7,xmm1
 238:	f3 44 0f 58 ca       	addss  xmm9,xmm2
 23d:	f3 41 0f 58 dd       	addss  xmm3,xmm13
 242:	f3 0f 11 7f 18       	movss  DWORD PTR [rdi+0x18],xmm7
 247:	f3 44 0f 11 4f 08    	movss  DWORD PTR [rdi+0x8],xmm9
 24d:	f3 0f 11 5f 28       	movss  DWORD PTR [rdi+0x28],xmm3
 252:	c3                   	ret    

Disassembly of section .text._ZN3XGK4DATA4MAT48transp32EPv:

0000000000000000 <_ZN3XGK4DATA4MAT48transp32EPv>:
   0:	f3 44 0f 10 57 08    	movss  xmm10,DWORD PTR [rdi+0x8]
   6:	f3 44 0f 10 4f 0c    	movss  xmm9,DWORD PTR [rdi+0xc]
   c:	f3 44 0f 10 47 10    	movss  xmm8,DWORD PTR [rdi+0x10]
  12:	f3 0f 10 7f 18       	movss  xmm7,DWORD PTR [rdi+0x18]
  17:	f3 0f 10 77 1c       	movss  xmm6,DWORD PTR [rdi+0x1c]
  1c:	f3 0f 10 6f 20       	movss  xmm5,DWORD PTR [rdi+0x20]
  21:	f3 0f 10 67 24       	movss  xmm4,DWORD PTR [rdi+0x24]
  26:	f3 0f 10 5f 2c       	movss  xmm3,DWORD PTR [rdi+0x2c]
  2b:	f3 0f 10 57 30       	movss  xmm2,DWORD PTR [rdi+0x30]
  30:	f3 0f 10 4f 34       	movss  xmm1,DWORD PTR [rdi+0x34]
  35:	f3 0f 10 47 38       	movss  xmm0,DWORD PTR [rdi+0x38]
  3a:	f3 44 0f 10 5f 04    	movss  xmm11,DWORD PTR [rdi+0x4]
  40:	f3 44 0f 11 5f 10    	movss  DWORD PTR [rdi+0x10],xmm11
  46:	f3 44 0f 11 57 20    	movss  DWORD PTR [rdi+0x20],xmm10
  4c:	f3 44 0f 11 4f 30    	movss  DWORD PTR [rdi+0x30],xmm9
  52:	f3 44 0f 11 47 04    	movss  DWORD PTR [rdi+0x4],xmm8
  58:	f3 0f 11 7f 24       	movss  DWORD PTR [rdi+0x24],xmm7
  5d:	f3 0f 11 77 34       	movss  DWORD PTR [rdi+0x34],xmm6
  62:	f3 0f 11 6f 08       	movss  DWORD PTR [rdi+0x8],xmm5
  67:	f3 0f 11 67 18       	movss  DWORD PTR [rdi+0x18],xmm4
  6c:	f3 0f 11 5f 38       	movss  DWORD PTR [rdi+0x38],xmm3
  71:	f3 0f 11 57 0c       	movss  DWORD PTR [rdi+0xc],xmm2
  76:	f3 0f 11 4f 1c       	movss  DWORD PTR [rdi+0x1c],xmm1
  7b:	f3 0f 11 47 2c       	movss  DWORD PTR [rdi+0x2c],xmm0
  80:	c3                   	ret    

Disassembly of section .text._ZN3XGK4DATA4MAT47invns32EPv:

0000000000000000 <_ZN3XGK4DATA4MAT47invns32EPv>:
   0:	f3 0f 10 47 30       	movss  xmm0,DWORD PTR [rdi+0x30]
   5:	f3 44 0f 10 1d 00 00 	movss  xmm11,DWORD PTR [rip+0x0]        # e <_ZN3XGK4DATA4MAT47invns32EPv+0xe>
   c:	00 00 
   e:	f3 0f 10 67 34       	movss  xmm4,DWORD PTR [rdi+0x34]
  13:	c7 47 0c 00 00 00 00 	mov    DWORD PTR [rdi+0xc],0x0
  1a:	0f 28 cc             	movaps xmm1,xmm4
  1d:	c7 47 1c 00 00 00 00 	mov    DWORD PTR [rdi+0x1c],0x0
  24:	0f 28 f0             	movaps xmm6,xmm0
  27:	c7 47 2c 00 00 00 00 	mov    DWORD PTR [rdi+0x2c],0x0
  2e:	f3 44 0f 10 57 04    	movss  xmm10,DWORD PTR [rdi+0x4]
  34:	c7 47 3c 00 00 80 3f 	mov    DWORD PTR [rdi+0x3c],0x3f800000
  3b:	f3 44 0f 10 47 10    	movss  xmm8,DWORD PTR [rdi+0x10]
  41:	f3 41 0f 59 ca       	mulss  xmm1,xmm10
  46:	f3 44 0f 10 77 20    	movss  xmm14,DWORD PTR [rdi+0x20]
  4c:	f3 41 0f 59 f0       	mulss  xmm6,xmm8
  51:	f3 44 0f 10 7f 24    	movss  xmm15,DWORD PTR [rdi+0x24]
  57:	f3 0f 10 17          	movss  xmm2,DWORD PTR [rdi]
  5b:	f3 44 0f 10 67 14    	movss  xmm12,DWORD PTR [rdi+0x14]
  61:	f3 0f 59 d0          	mulss  xmm2,xmm0
  65:	f3 44 0f 59 e4       	mulss  xmm12,xmm4
  6a:	f3 0f 10 5f 38       	movss  xmm3,DWORD PTR [rdi+0x38]
  6f:	f3 41 0f 59 c6       	mulss  xmm0,xmm14
  74:	0f 28 eb             	movaps xmm5,xmm3
  77:	f3 41 0f 59 e7       	mulss  xmm4,xmm15
  7c:	44 0f 28 eb          	movaps xmm13,xmm3
  80:	f3 0f 59 5f 28       	mulss  xmm3,DWORD PTR [rdi+0x28]
  85:	f3 44 0f 10 4f 08    	movss  xmm9,DWORD PTR [rdi+0x8]
  8b:	f3 0f 10 7f 18       	movss  xmm7,DWORD PTR [rdi+0x18]
  90:	f3 0f 58 d1          	addss  xmm2,xmm1
  94:	f3 41 0f 59 e9       	mulss  xmm5,xmm9
  99:	f3 44 0f 58 e6       	addss  xmm12,xmm6
  9e:	f3 44 0f 11 57 10    	movss  DWORD PTR [rdi+0x10],xmm10
  a4:	f3 44 0f 59 ef       	mulss  xmm13,xmm7
  a9:	f3 0f 58 c4          	addss  xmm0,xmm4
  ad:	f3 44 0f 11 4f 20    	movss  DWORD PTR [rdi+0x20],xmm9
  b3:	f3 44 0f 11 47 04    	movss  DWORD PTR [rdi+0x4],xmm8
  b9:	f3 0f 11 7f 24       	movss  DWORD PTR [rdi+0x24],xmm7
  be:	f3 0f 58 d5          	addss  xmm2,xmm5
  c2:	f3 44 0f 11 77 08    	movss  DWORD PTR [rdi+0x8],xmm14
  c8:	f3 45 0f 58 e5       	addss  xmm12,xmm13
  cd:	f3 44 0f 11 7f 18    	movss  DWORD PTR [rdi+0x18],xmm15
  d3:	f3 0f 58 c3          	addss  xmm0,xmm3
  d7:	41 0f 57 d3          	xorps  xmm2,xmm11
  db:	45 0f 57 e3          	xorps  xmm12,xmm11
  df:	41 0f 57 c3          	xorps  xmm0,xmm11
  e3:	f3 0f 11 57 30       	movss  DWORD PTR [rdi+0x30],xmm2
  e8:	f3 44 0f 11 67 34    	movss  DWORD PTR [rdi+0x34],xmm12
  ee:	f3 0f 11 47 38       	movss  DWORD PTR [rdi+0x38],xmm0
  f3:	c3                   	ret    

Disassembly of section .text._ZN3XGK4DATA4MAT415makeProjPersp32EPvfffff:

0000000000000000 <_ZN3XGK4DATA4MAT415makeProjPersp32EPvfffff>:
   0:	53                   	push   rbx
   1:	48 89 fb             	mov    rbx,rdi
   4:	48 83 ec 10          	sub    rsp,0x10
   8:	f3 0f 59 05 00 00 00 	mulss  xmm0,DWORD PTR [rip+0x0]        # 10 <_ZN3XGK4DATA4MAT415makeProjPersp32EPvfffff+0x10>
   f:	00 
  10:	f3 0f 11 4c 24 0c    	movss  DWORD PTR [rsp+0xc],xmm1
  16:	f3 0f 11 54 24 08    	movss  DWORD PTR [rsp+0x8],xmm2
  1c:	f3 0f 11 5c 24 04    	movss  DWORD PTR [rsp+0x4],xmm3
  22:	f3 0f 11 24 24       	movss  DWORD PTR [rsp],xmm4
  27:	f3 0f 5a c0          	cvtss2sd xmm0,xmm0
  2b:	e8 00 00 00 00       	call   30 <_ZN3XGK4DATA4MAT415makeProjPersp32EPvfffff+0x30>
  30:	66 0f ef ed          	pxor   xmm5,xmm5
  34:	b8 00 00 80 bf       	mov    eax,0xbf800000
  39:	f3 0f 10 54 24 08    	movss  xmm2,DWORD PTR [rsp+0x8]
  3f:	c7 43 20 00 00 00 00 	mov    DWORD PTR [rbx+0x20],0x0
  46:	66 0f ef c9          	pxor   xmm1,xmm1
  4a:	c7 43 24 00 00 00 00 	mov    DWORD PTR [rbx+0x24],0x0
  51:	f3 0f 5a ea          	cvtss2sd xmm5,xmm2
  55:	44 0f 28 c2          	movaps xmm8,xmm2
  59:	f3 0f 10 24 24       	movss  xmm4,DWORD PTR [rsp]
  5e:	48 c7 43 04 00 00 00 	mov    QWORD PTR [rbx+0x4],0x0
  65:	00 
  66:	f2 0f 59 c5          	mulsd  xmm0,xmm5
  6a:	f3 0f 5a cc          	cvtss2sd xmm1,xmm4
  6e:	48 c7 43 0c 00 00 00 	mov    QWORD PTR [rbx+0xc],0x0
  75:	00 
  76:	44 0f 28 d2          	movaps xmm10,xmm2
  7a:	48 c7 43 18 00 00 00 	mov    QWORD PTR [rbx+0x18],0x0
  81:	00 
  82:	f3 44 0f 10 4c 24 04 	movss  xmm9,DWORD PTR [rsp+0x4]
  89:	48 89 43 2c          	mov    QWORD PTR [rbx+0x2c],rax
  8d:	f3 45 0f 5c c1       	subss  xmm8,xmm9
  92:	0f 28 fa             	movaps xmm7,xmm2
  95:	f2 0f 5e c1          	divsd  xmm0,xmm1
  99:	f3 45 0f 58 d1       	addss  xmm10,xmm9
  9e:	c7 43 34 00 00 00 00 	mov    DWORD PTR [rbx+0x34],0x0
  a5:	f3 45 0f 58 c9       	addss  xmm9,xmm9
  aa:	f3 0f 10 5c 24 0c    	movss  xmm3,DWORD PTR [rsp+0xc]
  b0:	f3 0f 58 fa          	addss  xmm7,xmm2
  b4:	c7 43 3c 00 00 00 00 	mov    DWORD PTR [rbx+0x3c],0x0
  bb:	0f 28 cf             	movaps xmm1,xmm7
  be:	f3 44 0f 59 ca       	mulss  xmm9,xmm2
  c3:	f3 45 0f 5e d0       	divss  xmm10,xmm8
  c8:	f2 0f 5a c0          	cvtsd2ss xmm0,xmm0
  cc:	f3 0f 58 c0          	addss  xmm0,xmm0
  d0:	f3 0f 59 d8          	mulss  xmm3,xmm0
  d4:	f3 0f 5e f8          	divss  xmm7,xmm0
  d8:	f3 44 0f 11 53 28    	movss  DWORD PTR [rbx+0x28],xmm10
  de:	f3 0f 5e cb          	divss  xmm1,xmm3
  e2:	f3 0f 11 7b 14       	movss  DWORD PTR [rbx+0x14],xmm7
  e7:	f3 45 0f 5e c8       	divss  xmm9,xmm8
  ec:	f3 0f 11 0b          	movss  DWORD PTR [rbx],xmm1
  f0:	f3 44 0f 11 4b 38    	movss  DWORD PTR [rbx+0x38],xmm9
  f6:	48 83 c4 10          	add    rsp,0x10
  fa:	5b                   	pop    rbx
  fb:	c3                   	ret    

Disassembly of section .text._ZN3XGK4DATA4MAT46set128EPvffffffffffffffff:

0000000000000000 <_ZN3XGK4DATA4MAT46set128EPvffffffffffffffff>:
   0:	f3 44 0f 10 44 24 28 	movss  xmm8,DWORD PTR [rsp+0x28]
   7:	f3 44 0f 10 4c 24 08 	movss  xmm9,DWORD PTR [rsp+0x8]
   e:	0f 14 c4             	unpcklps xmm0,xmm4
  11:	45 0f 14 c8          	unpcklps xmm9,xmm8
  15:	f3 0f 10 64 24 10    	movss  xmm4,DWORD PTR [rsp+0x10]
  1b:	0f 14 cd             	unpcklps xmm1,xmm5
  1e:	0f 14 d6             	unpcklps xmm2,xmm6
  21:	41 0f 16 c1          	movlhps xmm0,xmm9
  25:	0f 14 df             	unpcklps xmm3,xmm7
  28:	0f 29 07             	movaps XMMWORD PTR [rdi],xmm0
  2b:	f3 0f 10 44 24 30    	movss  xmm0,DWORD PTR [rsp+0x30]
  31:	0f 14 e0             	unpcklps xmm4,xmm0
  34:	f3 0f 10 44 24 18    	movss  xmm0,DWORD PTR [rsp+0x18]
  3a:	0f 16 cc             	movlhps xmm1,xmm4
  3d:	0f 29 4f 10          	movaps XMMWORD PTR [rdi+0x10],xmm1
  41:	f3 0f 10 4c 24 38    	movss  xmm1,DWORD PTR [rsp+0x38]
  47:	0f 14 c1             	unpcklps xmm0,xmm1
  4a:	0f 16 d0             	movlhps xmm2,xmm0
  4d:	f3 0f 10 44 24 20    	movss  xmm0,DWORD PTR [rsp+0x20]
  53:	0f 29 57 20          	movaps XMMWORD PTR [rdi+0x20],xmm2
  57:	f3 0f 10 54 24 40    	movss  xmm2,DWORD PTR [rsp+0x40]
  5d:	0f 14 c2             	unpcklps xmm0,xmm2
  60:	0f 16 d8             	movlhps xmm3,xmm0
  63:	0f 29 5f 30          	movaps XMMWORD PTR [rdi+0x30],xmm3
  67:	c3                   	ret    

Disassembly of section .text._ZN3XGK4DATA4MAT49premul128EPvS2_:

0000000000000000 <_ZN3XGK4DATA4MAT49premul128EPvS2_>:
   0:	f3 44 0f 10 3f       	movss  xmm15,DWORD PTR [rdi]
   5:	f3 0f 10 5f 04       	movss  xmm3,DWORD PTR [rdi+0x4]
   a:	45 0f c6 ff 00       	shufps xmm15,xmm15,0x0
   f:	0f c6 db 00          	shufps xmm3,xmm3,0x0
  13:	44 0f 28 36          	movaps xmm14,XMMWORD PTR [rsi]
  17:	44 0f 28 6e 10       	movaps xmm13,XMMWORD PTR [rsi+0x10]
  1c:	45 0f 59 fe          	mulps  xmm15,xmm14
  20:	f3 0f 10 57 10       	movss  xmm2,DWORD PTR [rdi+0x10]
  25:	f3 44 0f 10 57 14    	movss  xmm10,DWORD PTR [rdi+0x14]
  2b:	41 0f 59 dd          	mulps  xmm3,xmm13
  2f:	f3 0f 10 4f 20       	movss  xmm1,DWORD PTR [rdi+0x20]
  34:	0f c6 d2 00          	shufps xmm2,xmm2,0x0
  38:	f3 0f 10 7f 24       	movss  xmm7,DWORD PTR [rdi+0x24]
  3d:	45 0f c6 d2 00       	shufps xmm10,xmm10,0x0
  42:	f3 0f 10 47 30       	movss  xmm0,DWORD PTR [rdi+0x30]
  47:	0f c6 c9 00          	shufps xmm1,xmm1,0x0
  4b:	41 0f 59 d6          	mulps  xmm2,xmm14
  4f:	f3 0f 10 67 34       	movss  xmm4,DWORD PTR [rdi+0x34]
  54:	41 0f 58 df          	addps  xmm3,xmm15
  58:	45 0f 59 d5          	mulps  xmm10,xmm13
  5c:	f3 44 0f 10 4f 18    	movss  xmm9,DWORD PTR [rdi+0x18]
  62:	f3 44 0f 10 7f 08    	movss  xmm15,DWORD PTR [rdi+0x8]
  68:	0f c6 ff 00          	shufps xmm7,xmm7,0x0
  6c:	0f c6 c0 00          	shufps xmm0,xmm0,0x0
  70:	0f c6 e4 00          	shufps xmm4,xmm4,0x0
  74:	44 0f 28 66 20       	movaps xmm12,XMMWORD PTR [rsi+0x20]
  79:	45 0f c6 ff 00       	shufps xmm15,xmm15,0x0
  7e:	45 0f c6 c9 00       	shufps xmm9,xmm9,0x0
  83:	44 0f 58 d2          	addps  xmm10,xmm2
  87:	41 0f 59 ce          	mulps  xmm1,xmm14
  8b:	f3 0f 10 77 28       	movss  xmm6,DWORD PTR [rdi+0x28]
  90:	41 0f 59 fd          	mulps  xmm7,xmm13
  94:	f3 0f 10 57 38       	movss  xmm2,DWORD PTR [rdi+0x38]
  99:	f3 44 0f 10 47 1c    	movss  xmm8,DWORD PTR [rdi+0x1c]
  9f:	44 0f 59 f0          	mulps  xmm14,xmm0
  a3:	f3 0f 10 6f 2c       	movss  xmm5,DWORD PTR [rdi+0x2c]
  a8:	44 0f 28 5e 30       	movaps xmm11,XMMWORD PTR [rsi+0x30]
  ad:	44 0f 59 ec          	mulps  xmm13,xmm4
  b1:	0f 58 f9             	addps  xmm7,xmm1
  b4:	45 0f 59 fc          	mulps  xmm15,xmm12
  b8:	45 0f 59 cc          	mulps  xmm9,xmm12
  bc:	45 0f 58 ee          	addps  xmm13,xmm14
  c0:	0f c6 f6 00          	shufps xmm6,xmm6,0x0
  c4:	0f c6 d2 00          	shufps xmm2,xmm2,0x0
  c8:	41 0f 58 df          	addps  xmm3,xmm15
  cc:	f3 44 0f 10 7f 0c    	movss  xmm15,DWORD PTR [rdi+0xc]
  d2:	41 0f 59 f4          	mulps  xmm6,xmm12
  d6:	45 0f 58 ca          	addps  xmm9,xmm10
  da:	f3 44 0f 10 57 3c    	movss  xmm10,DWORD PTR [rdi+0x3c]
  e0:	44 0f 59 e2          	mulps  xmm12,xmm2
  e4:	45 0f c6 ff 00       	shufps xmm15,xmm15,0x0
  e9:	45 0f c6 c0 00       	shufps xmm8,xmm8,0x0
  ee:	0f 58 f7             	addps  xmm6,xmm7
  f1:	0f c6 ed 00          	shufps xmm5,xmm5,0x0
  f5:	45 0f c6 d2 00       	shufps xmm10,xmm10,0x0
  fa:	45 0f 58 e5          	addps  xmm12,xmm13
  fe:	45 0f 59 fb          	mulps  xmm15,xmm11
 102:	45 0f 59 c3          	mulps  xmm8,xmm11
 106:	41 0f 59 eb          	mulps  xmm5,xmm11
 10a:	41 0f 58 df          	addps  xmm3,xmm15
 10e:	45 0f 59 da          	mulps  xmm11,xmm10
 112:	45 0f 58 c1          	addps  xmm8,xmm9
 116:	0f 58 ee             	addps  xmm5,xmm6
 119:	0f 29 1f             	movaps XMMWORD PTR [rdi],xmm3
 11c:	45 0f 58 dc          	addps  xmm11,xmm12
 120:	44 0f 29 47 10       	movaps XMMWORD PTR [rdi+0x10],xmm8
 125:	0f 29 6f 20          	movaps XMMWORD PTR [rdi+0x20],xmm5
 129:	44 0f 29 5f 30       	movaps XMMWORD PTR [rdi+0x30],xmm11
 12e:	c3                   	ret    

Disassembly of section .text._ZN3XGK4DATA4MAT410postmul128EPvS2_:

0000000000000000 <_ZN3XGK4DATA4MAT410postmul128EPvS2_>:
   0:	f3 0f 10 16          	movss  xmm2,DWORD PTR [rsi]
   4:	0f c6 d2 00          	shufps xmm2,xmm2,0x0
   8:	0f 28 07             	movaps xmm0,XMMWORD PTR [rdi]
   b:	44 0f 28 5f 10       	movaps xmm11,XMMWORD PTR [rdi+0x10]
  10:	0f 59 d0             	mulps  xmm2,xmm0
  13:	44 0f 28 4f 20       	movaps xmm9,XMMWORD PTR [rdi+0x20]
  18:	44 0f 28 47 30       	movaps xmm8,XMMWORD PTR [rdi+0x30]
  1d:	0f 29 17             	movaps XMMWORD PTR [rdi],xmm2
  20:	f3 44 0f 10 6e 10    	movss  xmm13,DWORD PTR [rsi+0x10]
  26:	45 0f c6 ed 00       	shufps xmm13,xmm13,0x0
  2b:	44 0f 59 e8          	mulps  xmm13,xmm0
  2f:	44 0f 29 6f 10       	movaps XMMWORD PTR [rdi+0x10],xmm13
  34:	45 0f 28 f5          	movaps xmm14,xmm13
  38:	f3 44 0f 10 66 20    	movss  xmm12,DWORD PTR [rsi+0x20]
  3e:	45 0f c6 e4 00       	shufps xmm12,xmm12,0x0
  43:	44 0f 59 e0          	mulps  xmm12,xmm0
  47:	44 0f 29 67 20       	movaps XMMWORD PTR [rdi+0x20],xmm12
  4c:	45 0f 28 fc          	movaps xmm15,xmm12
  50:	f3 44 0f 10 56 30    	movss  xmm10,DWORD PTR [rsi+0x30]
  56:	45 0f c6 d2 00       	shufps xmm10,xmm10,0x0
  5b:	44 0f 59 d0          	mulps  xmm10,xmm0
  5f:	44 0f 29 57 30       	movaps XMMWORD PTR [rdi+0x30],xmm10
  64:	45 0f 28 ea          	movaps xmm13,xmm10
  68:	f3 0f 10 7e 04       	movss  xmm7,DWORD PTR [rsi+0x4]
  6d:	0f c6 ff 00          	shufps xmm7,xmm7,0x0
  71:	41 0f 59 fb          	mulps  xmm7,xmm11
  75:	44 0f 28 e7          	movaps xmm12,xmm7
  79:	44 0f 58 e2          	addps  xmm12,xmm2
  7d:	44 0f 29 27          	movaps XMMWORD PTR [rdi],xmm12
  81:	f3 0f 10 76 14       	movss  xmm6,DWORD PTR [rsi+0x14]
  86:	0f c6 f6 00          	shufps xmm6,xmm6,0x0
  8a:	41 0f 59 f3          	mulps  xmm6,xmm11
  8e:	44 0f 28 d6          	movaps xmm10,xmm6
  92:	45 0f 58 d6          	addps  xmm10,xmm14
  96:	44 0f 29 57 10       	movaps XMMWORD PTR [rdi+0x10],xmm10
  9b:	f3 0f 10 6e 24       	movss  xmm5,DWORD PTR [rsi+0x24]
  a0:	0f c6 ed 00          	shufps xmm5,xmm5,0x0
  a4:	41 0f 59 eb          	mulps  xmm5,xmm11
  a8:	44 0f 28 f5          	movaps xmm14,xmm5
  ac:	45 0f 58 f7          	addps  xmm14,xmm15
  b0:	44 0f 29 77 20       	movaps XMMWORD PTR [rdi+0x20],xmm14
  b5:	f3 0f 10 66 34       	movss  xmm4,DWORD PTR [rsi+0x34]
  ba:	0f c6 e4 00          	shufps xmm4,xmm4,0x0
  be:	41 0f 59 e3          	mulps  xmm4,xmm11
  c2:	44 0f 28 dc          	movaps xmm11,xmm4
  c6:	45 0f 58 dd          	addps  xmm11,xmm13
  ca:	44 0f 29 5f 30       	movaps XMMWORD PTR [rdi+0x30],xmm11
  cf:	f3 0f 10 5e 08       	movss  xmm3,DWORD PTR [rsi+0x8]
  d4:	0f c6 db 00          	shufps xmm3,xmm3,0x0
  d8:	41 0f 59 d9          	mulps  xmm3,xmm9
  dc:	41 0f 58 dc          	addps  xmm3,xmm12
  e0:	0f 29 1f             	movaps XMMWORD PTR [rdi],xmm3
  e3:	f3 0f 10 56 18       	movss  xmm2,DWORD PTR [rsi+0x18]
  e8:	0f c6 d2 00          	shufps xmm2,xmm2,0x0
  ec:	41 0f 59 d1          	mulps  xmm2,xmm9
  f0:	41 0f 58 d2          	addps  xmm2,xmm10
  f4:	0f 29 57 10          	movaps XMMWORD PTR [rdi+0x10],xmm2
  f8:	f3 0f 10 4e 28       	movss  xmm1,DWORD PTR [rsi+0x28]
  fd:	0f c6 c9 00          	shufps xmm1,xmm1,0x0
 101:	41 0f 59 c9          	mulps  xmm1,xmm9
 105:	41 0f 58 ce          	addps  xmm1,xmm14
 109:	0f 29 4f 20          	movaps XMMWORD PTR [rdi+0x20],xmm1
 10d:	f3 0f 10 46 38       	movss  xmm0,DWORD PTR [rsi+0x38]
 112:	0f c6 c0 00          	shufps xmm0,xmm0,0x0
 116:	41 0f 59 c1          	mulps  xmm0,xmm9
 11a:	41 0f 58 c3          	addps  xmm0,xmm11
 11e:	0f 29 47 30          	movaps XMMWORD PTR [rdi+0x30],xmm0
 122:	f3 44 0f 10 4e 0c    	movss  xmm9,DWORD PTR [rsi+0xc]
 128:	45 0f c6 c9 00       	shufps xmm9,xmm9,0x0
 12d:	45 0f 59 c8          	mulps  xmm9,xmm8
 131:	41 0f 58 d9          	addps  xmm3,xmm9
 135:	0f 29 1f             	movaps XMMWORD PTR [rdi],xmm3
 138:	f3 44 0f 10 7e 1c    	movss  xmm15,DWORD PTR [rsi+0x1c]
 13e:	45 0f c6 ff 00       	shufps xmm15,xmm15,0x0
 143:	45 0f 59 f8          	mulps  xmm15,xmm8
 147:	41 0f 58 d7          	addps  xmm2,xmm15
 14b:	0f 29 57 10          	movaps XMMWORD PTR [rdi+0x10],xmm2
 14f:	f3 44 0f 10 6e 2c    	movss  xmm13,DWORD PTR [rsi+0x2c]
 155:	45 0f c6 ed 00       	shufps xmm13,xmm13,0x0
 15a:	45 0f 59 e8          	mulps  xmm13,xmm8
 15e:	41 0f 58 cd          	addps  xmm1,xmm13
 162:	0f 29 4f 20          	movaps XMMWORD PTR [rdi+0x20],xmm1
 166:	f3 0f 10 7e 3c       	movss  xmm7,DWORD PTR [rsi+0x3c]
 16b:	0f c6 ff 00          	shufps xmm7,xmm7,0x0
 16f:	41 0f 59 f8          	mulps  xmm7,xmm8
 173:	0f 58 c7             	addps  xmm0,xmm7
 176:	0f 29 47 30          	movaps XMMWORD PTR [rdi+0x30],xmm0
 17a:	c3                   	ret    

Disassembly of section .text._ZN3XGK4DATA4MAT412makeTrans128EPvS2_:

0000000000000000 <_ZN3XGK4DATA4MAT412makeTrans128EPvS2_>:
   0:	66 0f 6f 05 00 00 00 	movdqa xmm0,XMMWORD PTR [rip+0x0]        # 8 <_ZN3XGK4DATA4MAT412makeTrans128EPvS2_+0x8>
   7:	00 
   8:	66 0f 6f 0d 00 00 00 	movdqa xmm1,XMMWORD PTR [rip+0x0]        # 10 <_ZN3XGK4DATA4MAT412makeTrans128EPvS2_+0x10>
   f:	00 
  10:	66 0f 6f 15 00 00 00 	movdqa xmm2,XMMWORD PTR [rip+0x0]        # 18 <_ZN3XGK4DATA4MAT412makeTrans128EPvS2_+0x18>
  17:	00 
  18:	0f 11 07             	movups XMMWORD PTR [rdi],xmm0
  1b:	0f 11 4f 10          	movups XMMWORD PTR [rdi+0x10],xmm1
  1f:	0f 11 57 20          	movups XMMWORD PTR [rdi+0x20],xmm2
  23:	f3 0f 6f 1e          	movdqu xmm3,XMMWORD PTR [rsi]
  27:	0f 11 5f 30          	movups XMMWORD PTR [rdi+0x30],xmm3
  2b:	c3                   	ret    

Disassembly of section .text._ZN3XGK4DATA4MAT411preTrans128EPvS2_:

0000000000000000 <_ZN3XGK4DATA4MAT411preTrans128EPvS2_>:
   0:	0f 28 47 30          	movaps xmm0,XMMWORD PTR [rdi+0x30]
   4:	0f 58 06             	addps  xmm0,XMMWORD PTR [rsi]
   7:	0f 29 47 30          	movaps XMMWORD PTR [rdi+0x30],xmm0
   b:	c3                   	ret    

Disassembly of section .text._ZN3XGK4DATA4MAT412postTrans128EPvS2_:

0000000000000000 <_ZN3XGK4DATA4MAT412postTrans128EPvS2_>:
   0:	0f 28 06             	movaps xmm0,XMMWORD PTR [rsi]
   3:	0f c6 c0 00          	shufps xmm0,xmm0,0x0
   7:	0f 28 57 30          	movaps xmm2,XMMWORD PTR [rdi+0x30]
   b:	0f 59 07             	mulps  xmm0,XMMWORD PTR [rdi]
   e:	0f 28 5f 10          	movaps xmm3,XMMWORD PTR [rdi+0x10]
  12:	0f 58 d0             	addps  xmm2,xmm0
  15:	0f 29 57 30          	movaps XMMWORD PTR [rdi+0x30],xmm2
  19:	0f 28 0e             	movaps xmm1,XMMWORD PTR [rsi]
  1c:	0f c6 c9 55          	shufps xmm1,xmm1,0x55
  20:	0f 59 d9             	mulps  xmm3,xmm1
  23:	0f 58 da             	addps  xmm3,xmm2
  26:	0f 29 5f 30          	movaps XMMWORD PTR [rdi+0x30],xmm3
  2a:	0f 28 26             	movaps xmm4,XMMWORD PTR [rsi]
  2d:	0f c6 e4 aa          	shufps xmm4,xmm4,0xaa
  31:	0f 59 67 20          	mulps  xmm4,XMMWORD PTR [rdi+0x20]
  35:	0f 58 dc             	addps  xmm3,xmm4
  38:	0f 29 5f 30          	movaps XMMWORD PTR [rdi+0x30],xmm3
  3c:	c3                   	ret    

Disassembly of section .text._ZN3XGK4DATA4MAT417makeTransValue128EPvS2_f:

0000000000000000 <_ZN3XGK4DATA4MAT417makeTransValue128EPvS2_f>:
   0:	66 0f 6f 0d 00 00 00 	movdqa xmm1,XMMWORD PTR [rip+0x0]        # 8 <_ZN3XGK4DATA4MAT417makeTransValue128EPvS2_f+0x8>
   7:	00 
   8:	0f c6 c0 00          	shufps xmm0,xmm0,0x0
   c:	66 0f 6f 15 00 00 00 	movdqa xmm2,XMMWORD PTR [rip+0x0]        # 14 <_ZN3XGK4DATA4MAT417makeTransValue128EPvS2_f+0x14>
  13:	00 
  14:	66 0f 6f 1d 00 00 00 	movdqa xmm3,XMMWORD PTR [rip+0x0]        # 1c <_ZN3XGK4DATA4MAT417makeTransValue128EPvS2_f+0x1c>
  1b:	00 
  1c:	0f 11 0f             	movups XMMWORD PTR [rdi],xmm1
  1f:	0f 11 57 10          	movups XMMWORD PTR [rdi+0x10],xmm2
  23:	0f 11 5f 20          	movups XMMWORD PTR [rdi+0x20],xmm3
  27:	0f 59 06             	mulps  xmm0,XMMWORD PTR [rsi]
  2a:	0f 29 47 30          	movaps XMMWORD PTR [rdi+0x30],xmm0
  2e:	c7 47 3c 00 00 80 3f 	mov    DWORD PTR [rdi+0x3c],0x3f800000
  35:	c3                   	ret    

Disassembly of section .text._ZN3XGK4DATA4MAT416preTransValue128EPvS2_f:

0000000000000000 <_ZN3XGK4DATA4MAT416preTransValue128EPvS2_f>:
   0:	44 0f 28 e0          	movaps xmm12,xmm0
   4:	48 83 ec 58          	sub    rsp,0x58
   8:	f3 44 0f 10 1f       	movss  xmm11,DWORD PTR [rdi]
   d:	45 0f c6 e4 00       	shufps xmm12,xmm12,0x0
  12:	f3 0f 10 47 04       	movss  xmm0,DWORD PTR [rdi+0x4]
  17:	45 0f c6 db 00       	shufps xmm11,xmm11,0x0
  1c:	0f c6 c0 00          	shufps xmm0,xmm0,0x0
  20:	44 0f 28 3d 00 00 00 	movaps xmm15,XMMWORD PTR [rip+0x0]        # 28 <_ZN3XGK4DATA4MAT416preTransValue128EPvS2_f+0x28>
  27:	00 
  28:	44 0f 59 26          	mulps  xmm12,XMMWORD PTR [rsi]
  2c:	44 0f 28 35 00 00 00 	movaps xmm14,XMMWORD PTR [rip+0x0]        # 34 <_ZN3XGK4DATA4MAT416preTransValue128EPvS2_f+0x34>
  33:	00 
  34:	45 0f 59 df          	mulps  xmm11,xmm15
  38:	f3 0f 10 5f 08       	movss  xmm3,DWORD PTR [rdi+0x8]
  3d:	41 0f 59 c6          	mulps  xmm0,xmm14
  41:	44 0f 28 2d 00 00 00 	movaps xmm13,XMMWORD PTR [rip+0x0]        # 49 <_ZN3XGK4DATA4MAT416preTransValue128EPvS2_f+0x49>
  48:	00 
  49:	64 48 8b 04 25 28 00 	mov    rax,QWORD PTR fs:0x28
  50:	00 00 
  52:	48 89 44 24 48       	mov    QWORD PTR [rsp+0x48],rax
  57:	31 c0                	xor    eax,eax
  59:	0f c6 db 00          	shufps xmm3,xmm3,0x0
  5d:	44 0f 29 64 24 30    	movaps XMMWORD PTR [rsp+0x30],xmm12
  63:	c7 44 24 3c 00 00 80 	mov    DWORD PTR [rsp+0x3c],0x3f800000
  6a:	3f 
  6b:	41 0f 59 dd          	mulps  xmm3,xmm13
  6f:	41 0f 58 c3          	addps  xmm0,xmm11
  73:	48 8b 44 24 48       	mov    rax,QWORD PTR [rsp+0x48]
  78:	64 48 33 04 25 28 00 	xor    rax,QWORD PTR fs:0x28
  7f:	00 00 
  81:	f3 44 0f 10 57 0c    	movss  xmm10,DWORD PTR [rdi+0xc]
  87:	45 0f c6 d2 00       	shufps xmm10,xmm10,0x0
  8c:	44 0f 28 64 24 30    	movaps xmm12,XMMWORD PTR [rsp+0x30]
  92:	0f 58 c3             	addps  xmm0,xmm3
  95:	45 0f 59 d4          	mulps  xmm10,xmm12
  99:	f3 0f 10 57 10       	movss  xmm2,DWORD PTR [rdi+0x10]
  9e:	f3 44 0f 10 4f 14    	movss  xmm9,DWORD PTR [rdi+0x14]
  a4:	f3 0f 10 4f 20       	movss  xmm1,DWORD PTR [rdi+0x20]
  a9:	0f c6 d2 00          	shufps xmm2,xmm2,0x0
  ad:	f3 0f 10 77 24       	movss  xmm6,DWORD PTR [rdi+0x24]
  b2:	f3 44 0f 10 5f 30    	movss  xmm11,DWORD PTR [rdi+0x30]
  b8:	45 0f c6 c9 00       	shufps xmm9,xmm9,0x0
  bd:	41 0f 58 c2          	addps  xmm0,xmm10
  c1:	0f c6 c9 00          	shufps xmm1,xmm1,0x0
  c5:	f3 44 0f 10 47 18    	movss  xmm8,DWORD PTR [rdi+0x18]
  cb:	0f c6 f6 00          	shufps xmm6,xmm6,0x0
  cf:	45 0f c6 db 00       	shufps xmm11,xmm11,0x0
  d4:	f3 0f 10 6f 28       	movss  xmm5,DWORD PTR [rdi+0x28]
  d9:	41 0f 59 d7          	mulps  xmm2,xmm15
  dd:	0f 29 07             	movaps XMMWORD PTR [rdi],xmm0
  e0:	45 0f 59 ce          	mulps  xmm9,xmm14
  e4:	41 0f 59 cf          	mulps  xmm1,xmm15
  e8:	f3 0f 10 47 34       	movss  xmm0,DWORD PTR [rdi+0x34]
  ed:	0f c6 c0 00          	shufps xmm0,xmm0,0x0
  f1:	f3 0f 10 5f 38       	movss  xmm3,DWORD PTR [rdi+0x38]
